;/////////////////////////////////////////////////////////////////////////////////
;// Code Generator: BoostC Compiler - http://www.sourceboost.com
;// Version       : 7.20
;// License Type  : Pro License
;// Limitations   : PIC18 max code size:Unlimited, max RAM banks:Unlimited
;/////////////////////////////////////////////////////////////////////////////////

	ORG 0x00000000
0000  EFB3F008  	GOTO	_startup
	ORG 0x00000008
0008  EFE9F008  	GOTO	interrupt
	ORG 0x0000000C
000C            delay_us_00000
000C            ; { delay_us ; function begin
000C            label1
000C  0000      	NOP
000E  0000      	NOP
0010  2FAB      	DECFSZ delay_us_00000_arg_del, F, 1
0012  D7FC      	BRA	label1
0014  0012      	RETURN
0016            ; } delay_us function end

	ORG 0x00000016
0016            delay_ms_00000
0016            ; { delay_ms ; function begin
0016  526C      	MOVF delay_ms_00000_arg_del, F
0018  0000      	NOP
001A  E101      	BNZ	label2
001C  0012      	RETURN
001E            label2
001E  0EF5      	MOVLW 0xF5
0020            label3
0020  0000      	NOP
0022  0000      	NOP
0024  0000      	NOP
0026  0000      	NOP
0028  0000      	NOP
002A  0000      	NOP
002C  0000      	NOP
002E  0000      	NOP
0030  0000      	NOP
0032  0000      	NOP
0034  0000      	NOP
0036  0000      	NOP
0038  0000      	NOP
003A  0000      	NOP
003C  0000      	NOP
003E  0000      	NOP
0040  0FFF      	ADDLW 0xFF
0042  A4D8      	BTFSS STATUS,Z
0044  D7ED      	BRA	label3
0046  0000      	NOP
0048  0000      	NOP
004A  0000      	NOP
004C  0000      	NOP
004E  0000      	NOP
0050  0000      	NOP
0052  0000      	NOP
0054  0000      	NOP
0056  0000      	NOP
0058  0000      	NOP
005A  0000      	NOP
005C  0000      	NOP
005E  0000      	NOP
0060  2E6C      	DECFSZ delay_ms_00000_arg_del, F
0062  D7DD      	BRA	label2
0064  0012      	RETURN
0066            ; } delay_ms function end

	ORG 0x00000066
0066            delay_s_00000
0066            ; { delay_s ; function begin
0066            label4
0066  0EFA      	MOVLW 0xFA
0068  6E6C      	MOVWF delay_ms_00000_arg_del
006A  EC0BF000  	CALL delay_ms_00000
006E  0EFA      	MOVLW 0xFA
0070  6E6C      	MOVWF delay_ms_00000_arg_del
0072  EC0BF000  	CALL delay_ms_00000
0076  0EFA      	MOVLW 0xFA
0078  6E6C      	MOVWF delay_ms_00000_arg_del
007A  EC0BF000  	CALL delay_ms_00000
007E  0EFA      	MOVLW 0xFA
0080  6E6C      	MOVWF delay_ms_00000_arg_del
0082  EC0BF000  	CALL delay_ms_00000
0086  2E57      	DECFSZ delay_s_00000_arg_del, F
0088  D7EE      	BRA	label4
008A  0012      	RETURN
008C            ; } delay_s function end

	ORG 0x0000008C
008C            FC_CAL_UAR_00076
008C            ; { FC_CAL_UART_Receive_1 ; function begin
008C  69D3      	SETF FC_CAL_UAR_00076_1_retVal, 1
008E  6BD4      	CLRF FC_CAL_UAR_00076_1_delay1, 1
0090  6BD5      	CLRF FC_CAL_UAR_00076_1_regcheck, 1
0092  6BD6      	CLRF FC_CAL_UAR_00076_1_bWaitForever, 1
0094  6BD7      	CLRF FC_CAL_UAR_00076_1_rxStatus, 1
0096  6BDA      	CLRF FC_CAL_UAR_00076_1_dummy, 1
0098  29D2      	INCF FC_CAL_UAR_00076_arg_nTimeout, W, 1
009A  E102      	BNZ	label5
009C  0E01      	MOVLW 0x01
009E  6FD6      	MOVWF FC_CAL_UAR_00076_1_bWaitForever, 1
00A0            label5
00A0  53D7      	MOVF FC_CAL_UAR_00076_1_rxStatus, F, 1
00A2  E124      	BNZ	label10
00A4  53D6      	MOVF FC_CAL_UAR_00076_1_bWaitForever, F, 1
00A6  E118      	BNZ	label9
00A8  53D2      	MOVF FC_CAL_UAR_00076_arg_nTimeout, F, 1
00AA  E103      	BNZ	label6
00AC  0E01      	MOVLW 0x01
00AE  6FD7      	MOVWF FC_CAL_UAR_00076_1_rxStatus, 1
00B0  D013      	BRA	label9
00B2            label6
00B2  6BD8      	CLRF FC_CAL_UAR_00076_1_delaycnt, 1
00B4  6BD9      	CLRF FC_CAL_UAR_00076_1_delaycnt+D'1', 1
00B6            label7
00B6  0E31      	MOVLW 0x31
00B8  5DD8      	SUBWF FC_CAL_UAR_00076_1_delaycnt, W, 1
00BA  E205      	BC	label8
00BC  67D9      	TSTFSZ FC_CAL_UAR_00076_1_delaycnt+D'1', 1
00BE  D003      	BRA	label8
00C0  4BD8      	INFSNZ FC_CAL_UAR_00076_1_delaycnt, F, 1
00C2  2BD9      	INCF FC_CAL_UAR_00076_1_delaycnt+D'1', F, 1
00C4  D7F8      	BRA	label7
00C6            label8
00C6  29D4      	INCF FC_CAL_UAR_00076_1_delay1, W, 1
00C8  6FD4      	MOVWF FC_CAL_UAR_00076_1_delay1, 1
00CA  0E64      	MOVLW 0x64
00CC  63D4      	CPFSEQ FC_CAL_UAR_00076_1_delay1, 1
00CE  D004      	BRA	label9
00D0  05D2      	DECF FC_CAL_UAR_00076_arg_nTimeout, W, 1
00D2  6FD2      	MOVWF FC_CAL_UAR_00076_arg_nTimeout, 1
00D4  0004      	CLRWDT
00D6  6BD4      	CLRF FC_CAL_UAR_00076_1_delay1, 1
00D8            label9
00D8  0E20      	MOVLW 0x20
00DA  149E      	ANDWF gbl_pir1, W
00DC  6FDB      	MOVWF CompTempVar2755, 1
00DE  51DB      	MOVF CompTempVar2755, W, 1
00E0  6FD5      	MOVWF FC_CAL_UAR_00076_1_regcheck, 1
00E2  53D5      	MOVF FC_CAL_UAR_00076_1_regcheck, F, 1
00E4  E0DD      	BZ	label5
00E6  0E02      	MOVLW 0x02
00E8  6FD7      	MOVWF FC_CAL_UAR_00076_1_rxStatus, 1
00EA  D7DA      	BRA	label5
00EC            label10
00EC  0E02      	MOVLW 0x02
00EE  63D7      	CPFSEQ FC_CAL_UAR_00076_1_rxStatus, 1
00F0  D018      	BRA	label13
00F2  0E04      	MOVLW 0x04
00F4  14AB      	ANDWF gbl_rcsta, W
00F6  6FDB      	MOVWF CompTempVar2756, 1
00F8  51DB      	MOVF CompTempVar2756, W, 1
00FA  6FD5      	MOVWF FC_CAL_UAR_00076_1_regcheck, 1
00FC  53D5      	MOVF FC_CAL_UAR_00076_1_regcheck, F, 1
00FE  E003      	BZ	label11
0100  50AE      	MOVF gbl_rcreg, W
0102  6FDA      	MOVWF FC_CAL_UAR_00076_1_dummy, 1
0104  D00E      	BRA	label13
0106            label11
0106  0E02      	MOVLW 0x02
0108  14AB      	ANDWF gbl_rcsta, W
010A  6FDB      	MOVWF CompTempVar2757, 1
010C  51DB      	MOVF CompTempVar2757, W, 1
010E  6FD5      	MOVWF FC_CAL_UAR_00076_1_regcheck, 1
0110  53D5      	MOVF FC_CAL_UAR_00076_1_regcheck, F, 1
0112  E003      	BZ	label12
0114  98AB      	BCF gbl_rcsta,4
0116  88AB      	BSF gbl_rcsta,4
0118  D004      	BRA	label13
011A            label12
011A  6BD3      	CLRF FC_CAL_UAR_00076_1_retVal, 1
011C  50AE      	MOVF gbl_rcreg, W
011E  11D3      	IORWF FC_CAL_UAR_00076_1_retVal, W, 1
0120  6FD3      	MOVWF FC_CAL_UAR_00076_1_retVal, 1
0122            label13
0122  51D3      	MOVF FC_CAL_UAR_00076_1_retVal, W, 1
0124  6FDB      	MOVWF CompTempVarRet2754, 1
0126  6BDC      	CLRF CompTempVarRet2754+D'1', 1
0128  0012      	RETURN
012A            ; } FC_CAL_UART_Receive_1 function end

	ORG 0x0000012A
012A            FCI_DELAYI_00038
012A            ; { FCI_DELAYINT_US ; function begin
012A            label14
012A  0EFF      	MOVLW 0xFF
012C  65A9      	CPFSGT FCI_DELAYI_00038_arg_Delay, 1
012E  67AA      	TSTFSZ FCI_DELAYI_00038_arg_Delay+D'1', 1
0130  D001      	BRA	label15
0132  D00C      	BRA	label16
0134            label15
0134  69AB      	SETF delay_us_00000_arg_del, 1
0136  EC06F000  	CALL delay_us_00000
013A  0EFF      	MOVLW 0xFF
013C  5DA9      	SUBWF FCI_DELAYI_00038_arg_Delay, W, 1
013E  6FAB      	MOVWF CompTempVar1839, 1
0140  59A9      	SUBWFB FCI_DELAYI_00038_arg_Delay, W, 1
0142  08FF      	SUBLW 0xFF
0144  5FAA      	SUBWF FCI_DELAYI_00038_arg_Delay+D'1', F, 1
0146  51AB      	MOVF CompTempVar1839, W, 1
0148  6FA9      	MOVWF FCI_DELAYI_00038_arg_Delay, 1
014A  D7EF      	BRA	label14
014C            label16
014C  0E00      	MOVLW 0x00
014E  65A9      	CPFSGT FCI_DELAYI_00038_arg_Delay, 1
0150  67AA      	TSTFSZ FCI_DELAYI_00038_arg_Delay+D'1', 1
0152  D001      	BRA	label17
0154  0012      	RETURN
0156            label17
0156  51A9      	MOVF FCI_DELAYI_00038_arg_Delay, W, 1
0158  6FAB      	MOVWF delay_us_00000_arg_del, 1
015A  EC06F000  	CALL delay_us_00000
015E  0012      	RETURN
0160            ; } FCI_DELAYINT_US function end

	ORG 0x00000160
0160            FC_CAL_UAR_00077
0160            ; { FC_CAL_UART_Send_1 ; function begin
0160            label18
0160  0E10      	MOVLW 0x10
0162  149E      	ANDWF gbl_pir1, W
0164  6E7E      	MOVWF CompTempVar2758
0166  527E      	MOVF CompTempVar2758, F
0168  E0FB      	BZ	label18
016A  51A8      	MOVF FC_CAL_UAR_00077_arg_nChar, W, 1
016C  6EAD      	MOVWF gbl_txreg
016E  0012      	RETURN
0170            ; } FC_CAL_UART_Send_1 function end

	ORG 0x00000170
0170            FCI_GETLEN_0003E
0170            ; { FCI_GETLENGTH ; function begin
0170  6B95      	CLRF FCI_GETLEN_0003E_1_tmp, 1
0172            label19
0172  5194      	MOVF FCI_GETLEN_0003E_arg_iStr1_len, W, 1
0174  6195      	CPFSLT FCI_GETLEN_0003E_1_tmp, 1
0176  D009      	BRA	label20
0178  507F      	MOVF FCI_GETLEN_0003E_arg_sStr1+D'1', W
017A  6EEA      	MOVWF FSR0H
017C  507E      	MOVF FCI_GETLEN_0003E_arg_sStr1, W
017E  2595      	ADDWF FCI_GETLEN_0003E_1_tmp, W, 1
0180  6EE9      	MOVWF FSR0L
0182  52EF      	MOVF INDF0, F
0184  E002      	BZ	label20
0186  2B95      	INCF FCI_GETLEN_0003E_1_tmp, F, 1
0188  D7F4      	BRA	label19
018A            label20
018A  5195      	MOVF FCI_GETLEN_0003E_1_tmp, W, 1
018C  6F96      	MOVWF CompTempVarRet1853, 1
018E  0012      	RETURN
0190            ; } FCI_GETLENGTH function end

	ORG 0x00000190
0190            FCD_0c851__0007D
0190            ; { FCD_0c851_Bluetooth2__StringReceive ; function begin
0190  6A7E      	CLRF FCD_0c851__0007D_1_FCL_TOUT
0192  6A7F      	CLRF FCD_0c851__0007D_1_FCL_LEN
0194  5056      	MOVF gbl_FCV_0c851_Bluetooth2___00002, W
0196  6E7F      	MOVWF FCD_0c851__0007D_1_FCL_LEN
0198  6A55      	CLRF gbl_FCV_0c851_Bluetooth2___00001
019A  6A56      	CLRF gbl_FCV_0c851_Bluetooth2___00002
019C  6A54      	CLRF gbl_FCV_0c851_Bluetooth2__RX_IDX
019E            label21
019E  5255      	MOVF gbl_FCV_0c851_Bluetooth2___00001, F
01A0  E114      	BNZ	label23
01A2  0EFF      	MOVLW 0xFF
01A4  607E      	CPFSLT FCD_0c851__0007D_1_FCL_TOUT
01A6  D011      	BRA	label23
01A8  287E      	INCF FCD_0c851__0007D_1_FCL_TOUT, W
01AA  6E7E      	MOVWF FCD_0c851__0007D_1_FCL_TOUT
01AC  5056      	MOVF gbl_FCV_0c851_Bluetooth2___00002, W
01AE  627F      	CPFSEQ FCD_0c851__0007D_1_FCL_LEN
01B0  6256      	CPFSEQ gbl_FCV_0c851_Bluetooth2___00002
01B2  D003      	BRA	label22
01B4  6A7E      	CLRF FCD_0c851__0007D_1_FCL_TOUT
01B6  5056      	MOVF gbl_FCV_0c851_Bluetooth2___00002, W
01B8  6E7F      	MOVWF FCD_0c851__0007D_1_FCL_LEN
01BA            label22
01BA  0EF4      	MOVLW 0xF4
01BC  0100      	MOVLB 0x00
01BE  6FA9      	MOVWF FCI_DELAYI_00038_arg_Delay, 1
01C0  0E01      	MOVLW 0x01
01C2  6FAA      	MOVWF FCI_DELAYI_00038_arg_Delay+D'1', 1
01C4  EC95F000  	CALL FCI_DELAYI_00038
01C8  D7EA      	BRA	label21
01CA            label23
01CA  287E      	INCF FCD_0c851__0007D_1_FCL_TOUT, W
01CC  E105      	BNZ	label24
01CE  6A55      	CLRF gbl_FCV_0c851_Bluetooth2___00001
01D0  6A56      	CLRF gbl_FCV_0c851_Bluetooth2___00002
01D2  0100      	MOVLB 0x00
01D4  6BA8      	CLRF FCD_0c851__0007D_1_FCR_RETVAL, 1
01D6  D003      	BRA	label25
01D8            label24
01D8  0E01      	MOVLW 0x01
01DA  0100      	MOVLB 0x00
01DC  6FA8      	MOVWF FCD_0c851__0007D_1_FCR_RETVAL, 1
01DE            label25
01DE  51A8      	MOVF FCD_0c851__0007D_1_FCR_RETVAL, W, 1
01E0  6FA9      	MOVWF CompTempVarRet2768, 1
01E2  0012      	RETURN
01E4            ; } FCD_0c851_Bluetooth2__StringReceive function end

	ORG 0x000001E4
01E4            FCI_SHEAD_00000
01E4            ; { FCI_SHEAD ; function begin
01E4  6A7D      	CLRF FCI_SHEAD_00000_1_len
01E6  0100      	MOVLB 0x00
01E8  519F      	MOVF FCI_SHEAD_00000_arg_sDst, W, 1
01EA  639D      	CPFSEQ FCI_SHEAD_00000_arg_sSrc2, 1
01EC  D08C      	BRA	label37
01EE  51A0      	MOVF FCI_SHEAD_00000_arg_sDst+D'1', W, 1
01F0  639E      	CPFSEQ FCI_SHEAD_00000_arg_sSrc2+D'1', 1
01F2  D089      	BRA	label37
01F4  6A7E      	CLRF FCI_SHEAD_00000_1_strt
01F6            label26
01F6  5078      	MOVF FCI_SHEAD_00000_arg_iSrc1_len, W
01F8  607E      	CPFSLT FCI_SHEAD_00000_1_strt
01FA  D009      	BRA	label27
01FC  5077      	MOVF FCI_SHEAD_00000_arg_sSrc1+D'1', W
01FE  6EEA      	MOVWF FSR0H
0200  5076      	MOVF FCI_SHEAD_00000_arg_sSrc1, W
0202  247E      	ADDWF FCI_SHEAD_00000_1_strt, W
0204  6EE9      	MOVWF FSR0L
0206  52EF      	MOVF INDF0, F
0208  E002      	BZ	label27
020A  2A7E      	INCF FCI_SHEAD_00000_1_strt, F
020C  D7F4      	BRA	label26
020E            label27
020E  507C      	MOVF FCI_SHEAD_00000_arg_iDst_len, W
0210  607E      	CPFSLT FCI_SHEAD_00000_1_strt
0212  D058      	BRA	label35
0214  6A7D      	CLRF FCI_SHEAD_00000_1_len
0216            label28
0216  507B      	MOVF FCI_SHEAD_00000_arg_iSrc2_len, W
0218  607D      	CPFSLT FCI_SHEAD_00000_1_len
021A  D009      	BRA	label29
021C  519E      	MOVF FCI_SHEAD_00000_arg_sSrc2+D'1', W, 1
021E  6EEA      	MOVWF FSR0H
0220  519D      	MOVF FCI_SHEAD_00000_arg_sSrc2, W, 1
0222  247D      	ADDWF FCI_SHEAD_00000_1_len, W
0224  6EE9      	MOVWF FSR0L
0226  52EF      	MOVF INDF0, F
0228  E002      	BZ	label29
022A  2A7D      	INCF FCI_SHEAD_00000_1_len, F
022C  D7F4      	BRA	label28
022E            label29
022E  507E      	MOVF FCI_SHEAD_00000_1_strt, W
0230  5C7C      	SUBWF FCI_SHEAD_00000_arg_iDst_len, W
0232  6E7F      	MOVWF CompTempVar2023
0234  507D      	MOVF FCI_SHEAD_00000_1_len, W
0236  607F      	CPFSLT CompTempVar2023
0238  D005      	BRA	label30
023A  507E      	MOVF FCI_SHEAD_00000_1_strt, W
023C  5C7C      	SUBWF FCI_SHEAD_00000_arg_iDst_len, W
023E  6FA1      	MOVWF CompTempVar2029, 1
0240  51A1      	MOVF CompTempVar2029, W, 1
0242  6E7D      	MOVWF FCI_SHEAD_00000_1_len
0244            label30
0244  507D      	MOVF FCI_SHEAD_00000_1_len, W
0246  247E      	ADDWF FCI_SHEAD_00000_1_strt, W
0248  6E7B      	MOVWF FCI_SHEAD_00000_arg_iSrc2_len
024A  507D      	MOVF FCI_SHEAD_00000_1_len, W
024C  6E7E      	MOVWF FCI_SHEAD_00000_1_strt
024E            label31
024E  0E00      	MOVLW 0x00
0250  647E      	CPFSGT FCI_SHEAD_00000_1_strt
0252  D014      	BRA	label32
0254  067E      	DECF FCI_SHEAD_00000_1_strt, F
0256  067B      	DECF FCI_SHEAD_00000_arg_iSrc2_len, F
0258  519E      	MOVF FCI_SHEAD_00000_arg_sSrc2+D'1', W, 1
025A  6EEA      	MOVWF FSR0H
025C  519D      	MOVF FCI_SHEAD_00000_arg_sSrc2, W, 1
025E  6EE9      	MOVWF FSR0L
0260  507E      	MOVF FCI_SHEAD_00000_1_strt, W
0262  6FA1      	MOVWF CompTempVar2032, 1
0264  51A1      	MOVF CompTempVar2032, W, 1
0266  26E9      	ADDWF FSR0L, F
0268  50EF      	MOVF INDF0, W
026A  6FA2      	MOVWF CompTempVar2033, 1
026C  51A0      	MOVF FCI_SHEAD_00000_arg_sDst+D'1', W, 1
026E  6EEA      	MOVWF FSR0H
0270  519F      	MOVF FCI_SHEAD_00000_arg_sDst, W, 1
0272  247B      	ADDWF FCI_SHEAD_00000_arg_iSrc2_len, W
0274  6EE9      	MOVWF FSR0L
0276  51A2      	MOVF CompTempVar2033, W, 1
0278  6EEF      	MOVWF INDF0
027A  D7E9      	BRA	label31
027C            label32
027C  6A7E      	CLRF FCI_SHEAD_00000_1_strt
027E            label33
027E  5078      	MOVF FCI_SHEAD_00000_arg_iSrc1_len, W
0280  607E      	CPFSLT FCI_SHEAD_00000_1_strt
0282  D01D      	BRA	label34
0284  507C      	MOVF FCI_SHEAD_00000_arg_iDst_len, W
0286  607E      	CPFSLT FCI_SHEAD_00000_1_strt
0288  D01A      	BRA	label34
028A  5077      	MOVF FCI_SHEAD_00000_arg_sSrc1+D'1', W
028C  6EEA      	MOVWF FSR0H
028E  5076      	MOVF FCI_SHEAD_00000_arg_sSrc1, W
0290  247E      	ADDWF FCI_SHEAD_00000_1_strt, W
0292  6EE9      	MOVWF FSR0L
0294  52EF      	MOVF INDF0, F
0296  E013      	BZ	label34
0298  5077      	MOVF FCI_SHEAD_00000_arg_sSrc1+D'1', W
029A  6EEA      	MOVWF FSR0H
029C  5076      	MOVF FCI_SHEAD_00000_arg_sSrc1, W
029E  6EE9      	MOVWF FSR0L
02A0  507E      	MOVF FCI_SHEAD_00000_1_strt, W
02A2  6FA1      	MOVWF CompTempVar2036, 1
02A4  51A1      	MOVF CompTempVar2036, W, 1
02A6  26E9      	ADDWF FSR0L, F
02A8  50EF      	MOVF INDF0, W
02AA  6FA2      	MOVWF CompTempVar2037, 1
02AC  51A0      	MOVF FCI_SHEAD_00000_arg_sDst+D'1', W, 1
02AE  6EEA      	MOVWF FSR0H
02B0  519F      	MOVF FCI_SHEAD_00000_arg_sDst, W, 1
02B2  247E      	ADDWF FCI_SHEAD_00000_1_strt, W
02B4  6EE9      	MOVWF FSR0L
02B6  51A2      	MOVF CompTempVar2037, W, 1
02B8  6EEF      	MOVWF INDF0
02BA  2A7E      	INCF FCI_SHEAD_00000_1_strt, F
02BC  D7E0      	BRA	label33
02BE            label34
02BE  507E      	MOVF FCI_SHEAD_00000_1_strt, W
02C0  267D      	ADDWF FCI_SHEAD_00000_1_len, F
02C2  D075      	BRA	label42
02C4            label35
02C4  6A7D      	CLRF FCI_SHEAD_00000_1_len
02C6            label36
02C6  5078      	MOVF FCI_SHEAD_00000_arg_iSrc1_len, W
02C8  607D      	CPFSLT FCI_SHEAD_00000_1_len
02CA  D071      	BRA	label42
02CC  507C      	MOVF FCI_SHEAD_00000_arg_iDst_len, W
02CE  607D      	CPFSLT FCI_SHEAD_00000_1_len
02D0  D06E      	BRA	label42
02D2  5077      	MOVF FCI_SHEAD_00000_arg_sSrc1+D'1', W
02D4  6EEA      	MOVWF FSR0H
02D6  5076      	MOVF FCI_SHEAD_00000_arg_sSrc1, W
02D8  247D      	ADDWF FCI_SHEAD_00000_1_len, W
02DA  6EE9      	MOVWF FSR0L
02DC  52EF      	MOVF INDF0, F
02DE  E067      	BZ	label42
02E0  5077      	MOVF FCI_SHEAD_00000_arg_sSrc1+D'1', W
02E2  6EEA      	MOVWF FSR0H
02E4  5076      	MOVF FCI_SHEAD_00000_arg_sSrc1, W
02E6  6EE9      	MOVWF FSR0L
02E8  507D      	MOVF FCI_SHEAD_00000_1_len, W
02EA  6E7F      	MOVWF CompTempVar2044
02EC  507F      	MOVF CompTempVar2044, W
02EE  26E9      	ADDWF FSR0L, F
02F0  50EF      	MOVF INDF0, W
02F2  6FA1      	MOVWF CompTempVar2045, 1
02F4  51A0      	MOVF FCI_SHEAD_00000_arg_sDst+D'1', W, 1
02F6  6EEA      	MOVWF FSR0H
02F8  519F      	MOVF FCI_SHEAD_00000_arg_sDst, W, 1
02FA  247D      	ADDWF FCI_SHEAD_00000_1_len, W
02FC  6EE9      	MOVWF FSR0L
02FE  51A1      	MOVF CompTempVar2045, W, 1
0300  6EEF      	MOVWF INDF0
0302  2A7D      	INCF FCI_SHEAD_00000_1_len, F
0304  D7E0      	BRA	label36
0306            label37
0306  6A7D      	CLRF FCI_SHEAD_00000_1_len
0308            label38
0308  5078      	MOVF FCI_SHEAD_00000_arg_iSrc1_len, W
030A  607D      	CPFSLT FCI_SHEAD_00000_1_len
030C  D01D      	BRA	label39
030E  507C      	MOVF FCI_SHEAD_00000_arg_iDst_len, W
0310  607D      	CPFSLT FCI_SHEAD_00000_1_len
0312  D01A      	BRA	label39
0314  5077      	MOVF FCI_SHEAD_00000_arg_sSrc1+D'1', W
0316  6EEA      	MOVWF FSR0H
0318  5076      	MOVF FCI_SHEAD_00000_arg_sSrc1, W
031A  247D      	ADDWF FCI_SHEAD_00000_1_len, W
031C  6EE9      	MOVWF FSR0L
031E  52EF      	MOVF INDF0, F
0320  E013      	BZ	label39
0322  5077      	MOVF FCI_SHEAD_00000_arg_sSrc1+D'1', W
0324  6EEA      	MOVWF FSR0H
0326  5076      	MOVF FCI_SHEAD_00000_arg_sSrc1, W
0328  6EE9      	MOVWF FSR0L
032A  507D      	MOVF FCI_SHEAD_00000_1_len, W
032C  6E7F      	MOVWF CompTempVar2052
032E  507F      	MOVF CompTempVar2052, W
0330  26E9      	ADDWF FSR0L, F
0332  50EF      	MOVF INDF0, W
0334  6FA1      	MOVWF CompTempVar2053, 1
0336  51A0      	MOVF FCI_SHEAD_00000_arg_sDst+D'1', W, 1
0338  6EEA      	MOVWF FSR0H
033A  519F      	MOVF FCI_SHEAD_00000_arg_sDst, W, 1
033C  247D      	ADDWF FCI_SHEAD_00000_1_len, W
033E  6EE9      	MOVWF FSR0L
0340  51A1      	MOVF CompTempVar2053, W, 1
0342  6EEF      	MOVWF INDF0
0344  2A7D      	INCF FCI_SHEAD_00000_1_len, F
0346  D7E0      	BRA	label38
0348            label39
0348  507C      	MOVF FCI_SHEAD_00000_arg_iDst_len, W
034A  607D      	CPFSLT FCI_SHEAD_00000_1_len
034C  D030      	BRA	label42
034E  6BA1      	CLRF CompTempVar2059, 1
0350  507D      	MOVF FCI_SHEAD_00000_1_len, W
0352  259F      	ADDWF FCI_SHEAD_00000_arg_sDst, W, 1
0354  6E7F      	MOVWF CompTempVar2058
0356  51A0      	MOVF FCI_SHEAD_00000_arg_sDst+D'1', W, 1
0358  23A1      	ADDWFC CompTempVar2059, F, 1
035A  507F      	MOVF CompTempVar2058, W
035C  6E76      	MOVWF FCI_SHEAD_00000_arg_sSrc1
035E  51A1      	MOVF CompTempVar2059, W, 1
0360  6E77      	MOVWF FCI_SHEAD_00000_arg_sSrc1+D'1'
0362  507D      	MOVF FCI_SHEAD_00000_1_len, W
0364  5C7C      	SUBWF FCI_SHEAD_00000_arg_iDst_len, W
0366  6E78      	MOVWF FCI_SHEAD_00000_arg_iSrc1_len
0368  6A7E      	CLRF FCI_SHEAD_00000_1_strt
036A            label40
036A  507B      	MOVF FCI_SHEAD_00000_arg_iSrc2_len, W
036C  607E      	CPFSLT FCI_SHEAD_00000_1_strt
036E  D01D      	BRA	label41
0370  5078      	MOVF FCI_SHEAD_00000_arg_iSrc1_len, W
0372  607E      	CPFSLT FCI_SHEAD_00000_1_strt
0374  D01A      	BRA	label41
0376  519E      	MOVF FCI_SHEAD_00000_arg_sSrc2+D'1', W, 1
0378  6EEA      	MOVWF FSR0H
037A  519D      	MOVF FCI_SHEAD_00000_arg_sSrc2, W, 1
037C  247E      	ADDWF FCI_SHEAD_00000_1_strt, W
037E  6EE9      	MOVWF FSR0L
0380  52EF      	MOVF INDF0, F
0382  E013      	BZ	label41
0384  519E      	MOVF FCI_SHEAD_00000_arg_sSrc2+D'1', W, 1
0386  6EEA      	MOVWF FSR0H
0388  519D      	MOVF FCI_SHEAD_00000_arg_sSrc2, W, 1
038A  6EE9      	MOVWF FSR0L
038C  507E      	MOVF FCI_SHEAD_00000_1_strt, W
038E  6E7F      	MOVWF CompTempVar2062
0390  507F      	MOVF CompTempVar2062, W
0392  26E9      	ADDWF FSR0L, F
0394  50EF      	MOVF INDF0, W
0396  6FA1      	MOVWF CompTempVar2063, 1
0398  5077      	MOVF FCI_SHEAD_00000_arg_sSrc1+D'1', W
039A  6EEA      	MOVWF FSR0H
039C  5076      	MOVF FCI_SHEAD_00000_arg_sSrc1, W
039E  247E      	ADDWF FCI_SHEAD_00000_1_strt, W
03A0  6EE9      	MOVWF FSR0L
03A2  51A1      	MOVF CompTempVar2063, W, 1
03A4  6EEF      	MOVWF INDF0
03A6  2A7E      	INCF FCI_SHEAD_00000_1_strt, F
03A8  D7E0      	BRA	label40
03AA            label41
03AA  507E      	MOVF FCI_SHEAD_00000_1_strt, W
03AC  267D      	ADDWF FCI_SHEAD_00000_1_len, F
03AE            label42
03AE  507C      	MOVF FCI_SHEAD_00000_arg_iDst_len, W
03B0  607D      	CPFSLT FCI_SHEAD_00000_1_len
03B2  0012      	RETURN
03B4  51A0      	MOVF FCI_SHEAD_00000_arg_sDst+D'1', W, 1
03B6  6EEA      	MOVWF FSR0H
03B8  519F      	MOVF FCI_SHEAD_00000_arg_sDst, W, 1
03BA  247D      	ADDWF FCI_SHEAD_00000_1_len, W
03BC  6EE9      	MOVWF FSR0L
03BE  0E00      	MOVLW 0x00
03C0  6EEF      	MOVWF INDF0
03C2  0012      	RETURN
03C4            ; } FCI_SHEAD function end

	ORG 0x000003C4
03C4            FCD_0c851__00064
03C4            ; { FCD_0c851_Bluetooth2__SendCommand ; function begin
03C4  6A7B      	CLRF FCD_0c851__00064_1_FCL_IDX
03C6            label43
03C6  ECC8F000  	CALL FCD_0c851__0007D
03CA  51A9      	MOVF CompTempVarRet2768, W, 1
03CC  6E7D      	MOVWF FCD_0c851__00064_1_FCR_RETVAL
03CE  527D      	MOVF FCD_0c851__00064_1_FCR_RETVAL, F
03D0  E1FA      	BNZ	label43
03D2  5076      	MOVF FCD_0c851__00064_arg_FCL_COMMAND, W
03D4  6E7E      	MOVWF FCI_GETLEN_0003E_arg_sStr1
03D6  5077      	MOVF FCD_0c851__00064_arg_FCL_COMMAND+D'1', W
03D8  6E7F      	MOVWF FCI_GETLEN_0003E_arg_sStr1+D'1'
03DA  5078      	MOVF FCD_0c851__00064_arg_FCLsz_00065, W
03DC  6F94      	MOVWF FCI_GETLEN_0003E_arg_iStr1_len, 1
03DE  ECB8F000  	CALL FCI_GETLEN_0003E
03E2  5196      	MOVF CompTempVarRet1853, W, 1
03E4  6E7C      	MOVWF FCD_0c851__00064_1_FCL_LEN
03E6  527C      	MOVF FCD_0c851__00064_1_FCL_LEN, F
03E8  E017      	BZ	label46
03EA            label44
03EA  507C      	MOVF FCD_0c851__00064_1_FCL_LEN, W
03EC  607B      	CPFSLT FCD_0c851__00064_1_FCL_IDX
03EE  D00D      	BRA	label45
03F0  5077      	MOVF FCD_0c851__00064_arg_FCL_COMMAND+D'1', W
03F2  6EEA      	MOVWF FSR0H
03F4  5076      	MOVF FCD_0c851__00064_arg_FCL_COMMAND, W
03F6  247B      	ADDWF FCD_0c851__00064_1_FCL_IDX, W
03F8  6EE9      	MOVWF FSR0L
03FA  50EF      	MOVF INDF0, W
03FC  6FA8      	MOVWF FC_CAL_UAR_00077_arg_nChar, 1
03FE  6BA9      	CLRF FC_CAL_UAR_00077_arg_nChar+D'1', 1
0400  ECB0F000  	CALL FC_CAL_UAR_00077
0404  287B      	INCF FCD_0c851__00064_1_FCL_IDX, W
0406  6E7B      	MOVWF FCD_0c851__00064_1_FCL_IDX
0408  D7F0      	BRA	label44
040A            label45
040A  527A      	MOVF FCD_0c851__00064_arg_FCL_SENDCR, F
040C  E005      	BZ	label46
040E  0E0D      	MOVLW 0x0D
0410  6FA8      	MOVWF FC_CAL_UAR_00077_arg_nChar, 1
0412  6BA9      	CLRF FC_CAL_UAR_00077_arg_nChar+D'1', 1
0414  ECB0F000  	CALL FC_CAL_UAR_00077
0418            label46
0418  ECC8F000  	CALL FCD_0c851__0007D
041C  ECC8F000  	CALL FCD_0c851__0007D
0420  51A9      	MOVF CompTempVarRet2768, W, 1
0422  6E7D      	MOVWF FCD_0c851__00064_1_FCR_RETVAL
0424  527D      	MOVF FCD_0c851__00064_1_FCR_RETVAL, F
0426  E102      	BNZ	label47
0428  687D      	SETF FCD_0c851__00064_1_FCR_RETVAL
042A  D001      	BRA	label48
042C            label47
042C  6A7D      	CLRF FCD_0c851__00064_1_FCR_RETVAL
042E            label48
042E  507D      	MOVF FCD_0c851__00064_1_FCR_RETVAL, W
0430  6E7E      	MOVWF CompTempVarRet2724
0432  0012      	RETURN
0434            ; } FCD_0c851_Bluetooth2__SendCommand function end

	ORG 0x00000434
0434            FCD_04071__00066
0434            ; { FCD_04071_LCD__RawSend ; function begin
0434  6A6A      	CLRF FCD_04071__00066_2_ptmp
0436  9092      	BCF gbl_trisa,0
0438  526A      	MOVF FCD_04071__00066_2_ptmp, F
043A  E004      	BZ	label49
043C  0E01      	MOVLW 0x01
043E  1089      	IORWF gbl_lata, W
0440  6E80      	MOVWF gbl_porta
0442  D003      	BRA	label50
0444            label49
0444  0EFE      	MOVLW 0xFE
0446  1489      	ANDWF gbl_lata, W
0448  6E80      	MOVWF gbl_porta
044A            label50
044A  6A6A      	CLRF FCD_04071__00066_9_ptmp
044C  9292      	BCF gbl_trisa,1
044E  526A      	MOVF FCD_04071__00066_9_ptmp, F
0450  E004      	BZ	label51
0452  0E02      	MOVLW 0x02
0454  1089      	IORWF gbl_lata, W
0456  6E80      	MOVWF gbl_porta
0458  D003      	BRA	label52
045A            label51
045A  0EFD      	MOVLW 0xFD
045C  1489      	ANDWF gbl_lata, W
045E  6E80      	MOVWF gbl_porta
0460            label52
0460  6A6A      	CLRF FCD_04071__00066_16_ptmp
0462  9492      	BCF gbl_trisa,2
0464  526A      	MOVF FCD_04071__00066_16_ptmp, F
0466  E004      	BZ	label53
0468  0E04      	MOVLW 0x04
046A  1089      	IORWF gbl_lata, W
046C  6E80      	MOVWF gbl_porta
046E  D003      	BRA	label54
0470            label53
0470  0EFB      	MOVLW 0xFB
0472  1489      	ANDWF gbl_lata, W
0474  6E80      	MOVWF gbl_porta
0476            label54
0476  6A6A      	CLRF FCD_04071__00066_23_ptmp
0478  9692      	BCF gbl_trisa,3
047A  526A      	MOVF FCD_04071__00066_23_ptmp, F
047C  E004      	BZ	label55
047E  0E08      	MOVLW 0x08
0480  1089      	IORWF gbl_lata, W
0482  6E80      	MOVWF gbl_porta
0484  D003      	BRA	label56
0486            label55
0486  0EF7      	MOVLW 0xF7
0488  1489      	ANDWF gbl_lata, W
048A  6E80      	MOVWF gbl_porta
048C            label56
048C  6A6A      	CLRF FCD_04071__00066_30_ptmp
048E  9892      	BCF gbl_trisa,4
0490  526A      	MOVF FCD_04071__00066_30_ptmp, F
0492  E004      	BZ	label57
0494  0E10      	MOVLW 0x10
0496  1089      	IORWF gbl_lata, W
0498  6E80      	MOVWF gbl_porta
049A  D003      	BRA	label58
049C            label57
049C  0EEF      	MOVLW 0xEF
049E  1489      	ANDWF gbl_lata, W
04A0  6E80      	MOVWF gbl_porta
04A2            label58
04A2  6A6A      	CLRF FCD_04071__00066_37_ptmp
04A4  9A92      	BCF gbl_trisa,5
04A6  526A      	MOVF FCD_04071__00066_37_ptmp, F
04A8  E004      	BZ	label59
04AA  0E20      	MOVLW 0x20
04AC  1089      	IORWF gbl_lata, W
04AE  6E80      	MOVWF gbl_porta
04B0  D003      	BRA	label60
04B2            label59
04B2  0EDF      	MOVLW 0xDF
04B4  1489      	ANDWF gbl_lata, W
04B6  6E80      	MOVWF gbl_porta
04B8            label60
04B8  3867      	SWAPF FCD_04071__00066_arg_FCL_DATA, W
04BA  0B0F      	ANDLW 0x0F
04BC  6E69      	MOVWF FCD_04071__00066_1_FCL_NIBBLE
04BE  0E01      	MOVLW 0x01
04C0  1469      	ANDWF FCD_04071__00066_1_FCL_NIBBLE, W
04C2  6E6A      	MOVWF FCD_04071__00066_46_ptmp
04C4  9092      	BCF gbl_trisa,0
04C6  526A      	MOVF FCD_04071__00066_46_ptmp, F
04C8  E004      	BZ	label61
04CA  0E01      	MOVLW 0x01
04CC  1089      	IORWF gbl_lata, W
04CE  6E80      	MOVWF gbl_porta
04D0  D003      	BRA	label62
04D2            label61
04D2  0EFE      	MOVLW 0xFE
04D4  1489      	ANDWF gbl_lata, W
04D6  6E80      	MOVWF gbl_porta
04D8            label62
04D8  5269      	MOVF FCD_04071__00066_1_FCL_NIBBLE, F
04DA  90D8      	BCF STATUS,C
04DC  3269      	RRCF FCD_04071__00066_1_FCL_NIBBLE, F
04DE  0E01      	MOVLW 0x01
04E0  1469      	ANDWF FCD_04071__00066_1_FCL_NIBBLE, W
04E2  6E6A      	MOVWF FCD_04071__00066_55_ptmp
04E4  9292      	BCF gbl_trisa,1
04E6  526A      	MOVF FCD_04071__00066_55_ptmp, F
04E8  E004      	BZ	label63
04EA  0E02      	MOVLW 0x02
04EC  1089      	IORWF gbl_lata, W
04EE  6E80      	MOVWF gbl_porta
04F0  D003      	BRA	label64
04F2            label63
04F2  0EFD      	MOVLW 0xFD
04F4  1489      	ANDWF gbl_lata, W
04F6  6E80      	MOVWF gbl_porta
04F8            label64
04F8  5269      	MOVF FCD_04071__00066_1_FCL_NIBBLE, F
04FA  90D8      	BCF STATUS,C
04FC  3269      	RRCF FCD_04071__00066_1_FCL_NIBBLE, F
04FE  0E01      	MOVLW 0x01
0500  1469      	ANDWF FCD_04071__00066_1_FCL_NIBBLE, W
0502  6E6A      	MOVWF FCD_04071__00066_64_ptmp
0504  9492      	BCF gbl_trisa,2
0506  526A      	MOVF FCD_04071__00066_64_ptmp, F
0508  E004      	BZ	label65
050A  0E04      	MOVLW 0x04
050C  1089      	IORWF gbl_lata, W
050E  6E80      	MOVWF gbl_porta
0510  D003      	BRA	label66
0512            label65
0512  0EFB      	MOVLW 0xFB
0514  1489      	ANDWF gbl_lata, W
0516  6E80      	MOVWF gbl_porta
0518            label66
0518  5269      	MOVF FCD_04071__00066_1_FCL_NIBBLE, F
051A  90D8      	BCF STATUS,C
051C  3269      	RRCF FCD_04071__00066_1_FCL_NIBBLE, F
051E  0E01      	MOVLW 0x01
0520  1469      	ANDWF FCD_04071__00066_1_FCL_NIBBLE, W
0522  6E6A      	MOVWF FCD_04071__00066_73_ptmp
0524  9692      	BCF gbl_trisa,3
0526  526A      	MOVF FCD_04071__00066_73_ptmp, F
0528  E004      	BZ	label67
052A  0E08      	MOVLW 0x08
052C  1089      	IORWF gbl_lata, W
052E  6E80      	MOVWF gbl_porta
0530  D003      	BRA	label68
0532            label67
0532  0EF7      	MOVLW 0xF7
0534  1489      	ANDWF gbl_lata, W
0536  6E80      	MOVWF gbl_porta
0538            label68
0538  A068      	BTFSS FCD_04071__00066_arg_FCL_TYPE,0
053A  D00C      	BRA	label70
053C  0E01      	MOVLW 0x01
053E  6E6A      	MOVWF FCD_04071__00066_82_ptmp
0540  9892      	BCF gbl_trisa,4
0542  526A      	MOVF FCD_04071__00066_82_ptmp, F
0544  E004      	BZ	label69
0546  0E10      	MOVLW 0x10
0548  1089      	IORWF gbl_lata, W
054A  6E80      	MOVWF gbl_porta
054C  D003      	BRA	label70
054E            label69
054E  0EEF      	MOVLW 0xEF
0550  1489      	ANDWF gbl_lata, W
0552  6E80      	MOVWF gbl_porta
0554            label70
0554  0E64      	MOVLW 0x64
0556  0100      	MOVLB 0x00
0558  6FAB      	MOVWF delay_us_00000_arg_del, 1
055A  EC06F000  	CALL delay_us_00000
055E  0E01      	MOVLW 0x01
0560  6E6A      	MOVWF FCD_04071__00066_93_ptmp
0562  9A92      	BCF gbl_trisa,5
0564  526A      	MOVF FCD_04071__00066_93_ptmp, F
0566  E004      	BZ	label71
0568  0E20      	MOVLW 0x20
056A  1089      	IORWF gbl_lata, W
056C  6E80      	MOVWF gbl_porta
056E  D003      	BRA	label72
0570            label71
0570  0EDF      	MOVLW 0xDF
0572  1489      	ANDWF gbl_lata, W
0574  6E80      	MOVWF gbl_porta
0576            label72
0576  0E64      	MOVLW 0x64
0578  6FAB      	MOVWF delay_us_00000_arg_del, 1
057A  EC06F000  	CALL delay_us_00000
057E  6A6A      	CLRF FCD_04071__00066_104_ptmp
0580  9A92      	BCF gbl_trisa,5
0582  526A      	MOVF FCD_04071__00066_104_ptmp, F
0584  E004      	BZ	label73
0586  0E20      	MOVLW 0x20
0588  1089      	IORWF gbl_lata, W
058A  6E80      	MOVWF gbl_porta
058C  D003      	BRA	label74
058E            label73
058E  0EDF      	MOVLW 0xDF
0590  1489      	ANDWF gbl_lata, W
0592  6E80      	MOVWF gbl_porta
0594            label74
0594  0E64      	MOVLW 0x64
0596  6FAB      	MOVWF delay_us_00000_arg_del, 1
0598  EC06F000  	CALL delay_us_00000
059C  6A6A      	CLRF FCD_04071__00066_115_ptmp
059E  9092      	BCF gbl_trisa,0
05A0  526A      	MOVF FCD_04071__00066_115_ptmp, F
05A2  E004      	BZ	label75
05A4  0E01      	MOVLW 0x01
05A6  1089      	IORWF gbl_lata, W
05A8  6E80      	MOVWF gbl_porta
05AA  D003      	BRA	label76
05AC            label75
05AC  0EFE      	MOVLW 0xFE
05AE  1489      	ANDWF gbl_lata, W
05B0  6E80      	MOVWF gbl_porta
05B2            label76
05B2  6A6A      	CLRF FCD_04071__00066_122_ptmp
05B4  9292      	BCF gbl_trisa,1
05B6  526A      	MOVF FCD_04071__00066_122_ptmp, F
05B8  E004      	BZ	label77
05BA  0E02      	MOVLW 0x02
05BC  1089      	IORWF gbl_lata, W
05BE  6E80      	MOVWF gbl_porta
05C0  D003      	BRA	label78
05C2            label77
05C2  0EFD      	MOVLW 0xFD
05C4  1489      	ANDWF gbl_lata, W
05C6  6E80      	MOVWF gbl_porta
05C8            label78
05C8  6A6A      	CLRF FCD_04071__00066_129_ptmp
05CA  9492      	BCF gbl_trisa,2
05CC  526A      	MOVF FCD_04071__00066_129_ptmp, F
05CE  E004      	BZ	label79
05D0  0E04      	MOVLW 0x04
05D2  1089      	IORWF gbl_lata, W
05D4  6E80      	MOVWF gbl_porta
05D6  D003      	BRA	label80
05D8            label79
05D8  0EFB      	MOVLW 0xFB
05DA  1489      	ANDWF gbl_lata, W
05DC  6E80      	MOVWF gbl_porta
05DE            label80
05DE  6A6A      	CLRF FCD_04071__00066_136_ptmp
05E0  9692      	BCF gbl_trisa,3
05E2  526A      	MOVF FCD_04071__00066_136_ptmp, F
05E4  E004      	BZ	label81
05E6  0E08      	MOVLW 0x08
05E8  1089      	IORWF gbl_lata, W
05EA  6E80      	MOVWF gbl_porta
05EC  D003      	BRA	label82
05EE            label81
05EE  0EF7      	MOVLW 0xF7
05F0  1489      	ANDWF gbl_lata, W
05F2  6E80      	MOVWF gbl_porta
05F4            label82
05F4  6A6A      	CLRF FCD_04071__00066_143_ptmp
05F6  9892      	BCF gbl_trisa,4
05F8  526A      	MOVF FCD_04071__00066_143_ptmp, F
05FA  E004      	BZ	label83
05FC  0E10      	MOVLW 0x10
05FE  1089      	IORWF gbl_lata, W
0600  6E80      	MOVWF gbl_porta
0602  D003      	BRA	label84
0604            label83
0604  0EEF      	MOVLW 0xEF
0606  1489      	ANDWF gbl_lata, W
0608  6E80      	MOVWF gbl_porta
060A            label84
060A  0E0F      	MOVLW 0x0F
060C  1467      	ANDWF FCD_04071__00066_arg_FCL_DATA, W
060E  6E6A      	MOVWF CompTempVar2736
0610  506A      	MOVF CompTempVar2736, W
0612  6E69      	MOVWF FCD_04071__00066_1_FCL_NIBBLE
0614  0E01      	MOVLW 0x01
0616  1469      	ANDWF FCD_04071__00066_1_FCL_NIBBLE, W
0618  6E6A      	MOVWF FCD_04071__00066_152_ptmp
061A  9092      	BCF gbl_trisa,0
061C  526A      	MOVF FCD_04071__00066_152_ptmp, F
061E  E004      	BZ	label85
0620  0E01      	MOVLW 0x01
0622  1089      	IORWF gbl_lata, W
0624  6E80      	MOVWF gbl_porta
0626  D003      	BRA	label86
0628            label85
0628  0EFE      	MOVLW 0xFE
062A  1489      	ANDWF gbl_lata, W
062C  6E80      	MOVWF gbl_porta
062E            label86
062E  5269      	MOVF FCD_04071__00066_1_FCL_NIBBLE, F
0630  90D8      	BCF STATUS,C
0632  3269      	RRCF FCD_04071__00066_1_FCL_NIBBLE, F
0634  0E01      	MOVLW 0x01
0636  1469      	ANDWF FCD_04071__00066_1_FCL_NIBBLE, W
0638  6E6A      	MOVWF FCD_04071__00066_161_ptmp
063A  9292      	BCF gbl_trisa,1
063C  526A      	MOVF FCD_04071__00066_161_ptmp, F
063E  E004      	BZ	label87
0640  0E02      	MOVLW 0x02
0642  1089      	IORWF gbl_lata, W
0644  6E80      	MOVWF gbl_porta
0646  D003      	BRA	label88
0648            label87
0648  0EFD      	MOVLW 0xFD
064A  1489      	ANDWF gbl_lata, W
064C  6E80      	MOVWF gbl_porta
064E            label88
064E  5269      	MOVF FCD_04071__00066_1_FCL_NIBBLE, F
0650  90D8      	BCF STATUS,C
0652  3269      	RRCF FCD_04071__00066_1_FCL_NIBBLE, F
0654  0E01      	MOVLW 0x01
0656  1469      	ANDWF FCD_04071__00066_1_FCL_NIBBLE, W
0658  6E6A      	MOVWF FCD_04071__00066_170_ptmp
065A  9492      	BCF gbl_trisa,2
065C  526A      	MOVF FCD_04071__00066_170_ptmp, F
065E  E004      	BZ	label89
0660  0E04      	MOVLW 0x04
0662  1089      	IORWF gbl_lata, W
0664  6E80      	MOVWF gbl_porta
0666  D003      	BRA	label90
0668            label89
0668  0EFB      	MOVLW 0xFB
066A  1489      	ANDWF gbl_lata, W
066C  6E80      	MOVWF gbl_porta
066E            label90
066E  5269      	MOVF FCD_04071__00066_1_FCL_NIBBLE, F
0670  90D8      	BCF STATUS,C
0672  3269      	RRCF FCD_04071__00066_1_FCL_NIBBLE, F
0674  0E01      	MOVLW 0x01
0676  1469      	ANDWF FCD_04071__00066_1_FCL_NIBBLE, W
0678  6E6A      	MOVWF FCD_04071__00066_179_ptmp
067A  9692      	BCF gbl_trisa,3
067C  526A      	MOVF FCD_04071__00066_179_ptmp, F
067E  E004      	BZ	label91
0680  0E08      	MOVLW 0x08
0682  1089      	IORWF gbl_lata, W
0684  6E80      	MOVWF gbl_porta
0686  D003      	BRA	label92
0688            label91
0688  0EF7      	MOVLW 0xF7
068A  1489      	ANDWF gbl_lata, W
068C  6E80      	MOVWF gbl_porta
068E            label92
068E  A068      	BTFSS FCD_04071__00066_arg_FCL_TYPE,0
0690  D00C      	BRA	label94
0692  0E01      	MOVLW 0x01
0694  6E6A      	MOVWF FCD_04071__00066_188_ptmp
0696  9892      	BCF gbl_trisa,4
0698  526A      	MOVF FCD_04071__00066_188_ptmp, F
069A  E004      	BZ	label93
069C  0E10      	MOVLW 0x10
069E  1089      	IORWF gbl_lata, W
06A0  6E80      	MOVWF gbl_porta
06A2  D003      	BRA	label94
06A4            label93
06A4  0EEF      	MOVLW 0xEF
06A6  1489      	ANDWF gbl_lata, W
06A8  6E80      	MOVWF gbl_porta
06AA            label94
06AA  0E64      	MOVLW 0x64
06AC  6FAB      	MOVWF delay_us_00000_arg_del, 1
06AE  EC06F000  	CALL delay_us_00000
06B2  0E01      	MOVLW 0x01
06B4  6E6A      	MOVWF FCD_04071__00066_199_ptmp
06B6  9A92      	BCF gbl_trisa,5
06B8  526A      	MOVF FCD_04071__00066_199_ptmp, F
06BA  E004      	BZ	label95
06BC  0E20      	MOVLW 0x20
06BE  1089      	IORWF gbl_lata, W
06C0  6E80      	MOVWF gbl_porta
06C2  D003      	BRA	label96
06C4            label95
06C4  0EDF      	MOVLW 0xDF
06C6  1489      	ANDWF gbl_lata, W
06C8  6E80      	MOVWF gbl_porta
06CA            label96
06CA  0E64      	MOVLW 0x64
06CC  6FAB      	MOVWF delay_us_00000_arg_del, 1
06CE  EC06F000  	CALL delay_us_00000
06D2  6A6A      	CLRF FCD_04071__00066_210_ptmp
06D4  9A92      	BCF gbl_trisa,5
06D6  526A      	MOVF FCD_04071__00066_210_ptmp, F
06D8  E004      	BZ	label97
06DA  0E20      	MOVLW 0x20
06DC  1089      	IORWF gbl_lata, W
06DE  6E80      	MOVWF gbl_porta
06E0  D003      	BRA	label98
06E2            label97
06E2  0EDF      	MOVLW 0xDF
06E4  1489      	ANDWF gbl_lata, W
06E6  6E80      	MOVWF gbl_porta
06E8            label98
06E8  0E64      	MOVLW 0x64
06EA  6FAB      	MOVWF delay_us_00000_arg_del, 1
06EC  EC06F000  	CALL delay_us_00000
06F0  0012      	RETURN
06F2            ; } FCD_04071_LCD__RawSend function end

	ORG 0x000006F2
06F2            FC_CAL_UAR_00078
06F2            ; { FC_CAL_UART_Init_1 ; function begin
06F2  84AC      	BSF gbl_txsta,2
06F4  0E7F      	MOVLW 0x7F
06F6  6EAF      	MOVWF gbl_spbrg
06F8  6AAB      	CLRF gbl_rcsta
06FA  8EAB      	BSF gbl_rcsta,7
06FC  8AAC      	BSF gbl_txsta,5
06FE  88AB      	BSF gbl_rcsta,4
0700  8A9D      	BSF gbl_pie1,5
0702  8CF2      	BSF gbl_intcon,6
0704  8EF2      	BSF gbl_intcon,7
0706  0012      	RETURN
0708            ; } FC_CAL_UART_Init_1 function end

	ORG 0x00000708
0708            FCI_SCOPY_00000
0708            ; { FCI_SCOPY ; function begin
0708  6A5F      	CLRF FCI_SCOPY_00000_1_len
070A            label99
070A  505D      	MOVF FCI_SCOPY_00000_arg_iSrc_len, W
070C  605F      	CPFSLT FCI_SCOPY_00000_1_len
070E  D01E      	BRA	label100
0710  505E      	MOVF FCI_SCOPY_00000_arg_iDst_len, W
0712  605F      	CPFSLT FCI_SCOPY_00000_1_len
0714  D01B      	BRA	label100
0716  0100      	MOVLB 0x00
0718  51A9      	MOVF FCI_SCOPY_00000_arg_sSrc+D'1', W, 1
071A  6EEA      	MOVWF FSR0H
071C  51A8      	MOVF FCI_SCOPY_00000_arg_sSrc, W, 1
071E  245F      	ADDWF FCI_SCOPY_00000_1_len, W
0720  6EE9      	MOVWF FSR0L
0722  52EF      	MOVF INDF0, F
0724  E013      	BZ	label100
0726  51A9      	MOVF FCI_SCOPY_00000_arg_sSrc+D'1', W, 1
0728  6EEA      	MOVWF FSR0H
072A  51A8      	MOVF FCI_SCOPY_00000_arg_sSrc, W, 1
072C  6EE9      	MOVWF FSR0L
072E  505F      	MOVF FCI_SCOPY_00000_1_len, W
0730  6E60      	MOVWF CompTempVar2071
0732  5060      	MOVF CompTempVar2071, W
0734  26E9      	ADDWF FSR0L, F
0736  50EF      	MOVF INDF0, W
0738  6E61      	MOVWF CompTempVar2072
073A  51D0      	MOVF FCI_SCOPY_00000_arg_sDst+D'1', W, 1
073C  6EEA      	MOVWF FSR0H
073E  51CF      	MOVF FCI_SCOPY_00000_arg_sDst, W, 1
0740  245F      	ADDWF FCI_SCOPY_00000_1_len, W
0742  6EE9      	MOVWF FSR0L
0744  5061      	MOVF CompTempVar2072, W
0746  6EEF      	MOVWF INDF0
0748  2A5F      	INCF FCI_SCOPY_00000_1_len, F
074A  D7DF      	BRA	label99
074C            label100
074C  505E      	MOVF FCI_SCOPY_00000_arg_iDst_len, W
074E  605F      	CPFSLT FCI_SCOPY_00000_1_len
0750  0012      	RETURN
0752  0100      	MOVLB 0x00
0754  51D0      	MOVF FCI_SCOPY_00000_arg_sDst+D'1', W, 1
0756  6EEA      	MOVWF FSR0H
0758  51CF      	MOVF FCI_SCOPY_00000_arg_sDst, W, 1
075A  245F      	ADDWF FCI_SCOPY_00000_1_len, W
075C  6EE9      	MOVWF FSR0L
075E  0E00      	MOVLW 0x00
0760  6EEF      	MOVWF INDF0
0762  0012      	RETURN
0764            ; } FCI_SCOPY function end

	ORG 0x00000764
0764            FCD_0c851__00083
0764            ; { FCD_0c851_Bluetooth2__RestoreFactorySettings ; function begin
0764  0E41      	MOVLW 0x41
0766  6E6D      	MOVWF CompTempVar2784
0768  0E54      	MOVLW 0x54
076A  6E6E      	MOVWF CompTempVar2784+D'1'
076C  0E26      	MOVLW 0x26
076E  6E6F      	MOVWF CompTempVar2784+D'2'
0770  0E46      	MOVLW 0x46
0772  6E70      	MOVWF CompTempVar2784+D'3'
0774  0E2A      	MOVLW 0x2A
0776  6E71      	MOVWF CompTempVar2784+D'4'
0778  6A72      	CLRF CompTempVar2784+D'5'
077A  0E00      	MOVLW HIGH(CompTempVar2784+D'0')
077C  6E77      	MOVWF FCD_0c851__00064_arg_FCL_COMMAND+D'1'
077E  0E6D      	MOVLW LOW(CompTempVar2784+D'0')
0780  6E76      	MOVWF FCD_0c851__00064_arg_FCL_COMMAND
0782  0E06      	MOVLW 0x06
0784  6E78      	MOVWF FCD_0c851__00064_arg_FCLsz_00065
0786  6A79      	CLRF FCD_0c851__00064_arg_FCLsz_00065+D'1'
0788  0E01      	MOVLW 0x01
078A  6E7A      	MOVWF FCD_0c851__00064_arg_FCL_SENDCR
078C  ECE2F001  	CALL FCD_0c851__00064
0790  507E      	MOVF CompTempVarRet2724, W
0792  6E6C      	MOVWF FCD_0c851__00083_1_FCR_RETVAL
0794  506C      	MOVF FCD_0c851__00083_1_FCR_RETVAL, W
0796  6E6D      	MOVWF CompTempVarRet2783
0798  0012      	RETURN
079A            ; } FCD_0c851_Bluetooth2__RestoreFactorySettings function end

	ORG 0x0000079A
079A            FCD_0c851__00080
079A            ; { FCD_0c851_Bluetooth2__SetMode ; function begin
079A  526C      	MOVF FCD_0c851__00080_arg_FCL_D_00081, F
079C  E041      	BZ	label102
079E  526D      	MOVF FCD_0c851__00080_arg_FCL_C_00082, F
07A0  E020      	BZ	label101
07A2  0E41      	MOVLW 0x41
07A4  0100      	MOVLB 0x00
07A6  6F80      	MOVWF CompTempVar2775, 1
07A8  0E54      	MOVLW 0x54
07AA  6F81      	MOVWF CompTempVar2775+D'1', 1
07AC  0E53      	MOVLW 0x53
07AE  6F82      	MOVWF CompTempVar2775+D'2', 1
07B0  0E35      	MOVLW 0x35
07B2  6F83      	MOVWF CompTempVar2775+D'3', 1
07B4  0E31      	MOVLW 0x31
07B6  6F84      	MOVWF CompTempVar2775+D'4', 1
07B8  0E32      	MOVLW 0x32
07BA  6F85      	MOVWF CompTempVar2775+D'5', 1
07BC  0E3D      	MOVLW 0x3D
07BE  6F86      	MOVWF CompTempVar2775+D'6', 1
07C0  0E34      	MOVLW 0x34
07C2  6F87      	MOVWF CompTempVar2775+D'7', 1
07C4  6B88      	CLRF CompTempVar2775+D'8', 1
07C6  0E00      	MOVLW HIGH(CompTempVar2775+D'0')
07C8  6E77      	MOVWF FCD_0c851__00064_arg_FCL_COMMAND+D'1'
07CA  0E80      	MOVLW LOW(CompTempVar2775+D'0')
07CC  6E76      	MOVWF FCD_0c851__00064_arg_FCL_COMMAND
07CE  0E09      	MOVLW 0x09
07D0  6E78      	MOVWF FCD_0c851__00064_arg_FCLsz_00065
07D2  6A79      	CLRF FCD_0c851__00064_arg_FCLsz_00065+D'1'
07D4  0E01      	MOVLW 0x01
07D6  6E7A      	MOVWF FCD_0c851__00064_arg_FCL_SENDCR
07D8  ECE2F001  	CALL FCD_0c851__00064
07DC  507E      	MOVF CompTempVarRet2724, W
07DE  6E6E      	MOVWF FCD_0c851__00080_1_FCR_RETVAL
07E0  D05F      	BRA	label104
07E2            label101
07E2  0E31      	MOVLW 0x31
07E4  0100      	MOVLB 0x00
07E6  6F84      	MOVWF CompTempVar2777+D'4', 1
07E8  0E32      	MOVLW 0x32
07EA  6F85      	MOVWF CompTempVar2777+D'5', 1
07EC  6F87      	MOVWF CompTempVar2777+D'7', 1
07EE  0E35      	MOVLW 0x35
07F0  6F83      	MOVWF CompTempVar2777+D'3', 1
07F2  0E3D      	MOVLW 0x3D
07F4  6F86      	MOVWF CompTempVar2777+D'6', 1
07F6  0E41      	MOVLW 0x41
07F8  6F80      	MOVWF CompTempVar2777, 1
07FA  0E53      	MOVLW 0x53
07FC  6F82      	MOVWF CompTempVar2777+D'2', 1
07FE  0E54      	MOVLW 0x54
0800  6F81      	MOVWF CompTempVar2777+D'1', 1
0802  6B88      	CLRF CompTempVar2777+D'8', 1
0804  0E00      	MOVLW HIGH(CompTempVar2777+D'0')
0806  6E77      	MOVWF FCD_0c851__00064_arg_FCL_COMMAND+D'1'
0808  0E80      	MOVLW LOW(CompTempVar2777+D'0')
080A  6E76      	MOVWF FCD_0c851__00064_arg_FCL_COMMAND
080C  0E09      	MOVLW 0x09
080E  6E78      	MOVWF FCD_0c851__00064_arg_FCLsz_00065
0810  6A79      	CLRF FCD_0c851__00064_arg_FCLsz_00065+D'1'
0812  0E01      	MOVLW 0x01
0814  6E7A      	MOVWF FCD_0c851__00064_arg_FCL_SENDCR
0816  ECE2F001  	CALL FCD_0c851__00064
081A  507E      	MOVF CompTempVarRet2724, W
081C  6E6E      	MOVWF FCD_0c851__00080_1_FCR_RETVAL
081E  D040      	BRA	label104
0820            label102
0820  526D      	MOVF FCD_0c851__00080_arg_FCL_C_00082, F
0822  E01F      	BZ	label103
0824  0E31      	MOVLW 0x31
0826  0100      	MOVLB 0x00
0828  6F84      	MOVWF CompTempVar2779+D'4', 1
082A  0E32      	MOVLW 0x32
082C  6F85      	MOVWF CompTempVar2779+D'5', 1
082E  6F87      	MOVWF CompTempVar2779+D'7', 1
0830  0E35      	MOVLW 0x35
0832  6F83      	MOVWF CompTempVar2779+D'3', 1
0834  0E3D      	MOVLW 0x3D
0836  6F86      	MOVWF CompTempVar2779+D'6', 1
0838  0E41      	MOVLW 0x41
083A  6F80      	MOVWF CompTempVar2779, 1
083C  0E53      	MOVLW 0x53
083E  6F82      	MOVWF CompTempVar2779+D'2', 1
0840  0E54      	MOVLW 0x54
0842  6F81      	MOVWF CompTempVar2779+D'1', 1
0844  6B88      	CLRF CompTempVar2779+D'8', 1
0846  0E00      	MOVLW HIGH(CompTempVar2779+D'0')
0848  6E77      	MOVWF FCD_0c851__00064_arg_FCL_COMMAND+D'1'
084A  0E80      	MOVLW LOW(CompTempVar2779+D'0')
084C  6E76      	MOVWF FCD_0c851__00064_arg_FCL_COMMAND
084E  0E09      	MOVLW 0x09
0850  6E78      	MOVWF FCD_0c851__00064_arg_FCLsz_00065
0852  6A79      	CLRF FCD_0c851__00064_arg_FCLsz_00065+D'1'
0854  0E03      	MOVLW 0x03
0856  6E7A      	MOVWF FCD_0c851__00064_arg_FCL_SENDCR
0858  ECE2F001  	CALL FCD_0c851__00064
085C  507E      	MOVF CompTempVarRet2724, W
085E  6E6E      	MOVWF FCD_0c851__00080_1_FCR_RETVAL
0860  D01F      	BRA	label104
0862            label103
0862  0E41      	MOVLW 0x41
0864  0100      	MOVLB 0x00
0866  6F80      	MOVWF CompTempVar2781, 1
0868  0E54      	MOVLW 0x54
086A  6F81      	MOVWF CompTempVar2781+D'1', 1
086C  0E53      	MOVLW 0x53
086E  6F82      	MOVWF CompTempVar2781+D'2', 1
0870  0E35      	MOVLW 0x35
0872  6F83      	MOVWF CompTempVar2781+D'3', 1
0874  0E31      	MOVLW 0x31
0876  6F84      	MOVWF CompTempVar2781+D'4', 1
0878  0E32      	MOVLW 0x32
087A  6F85      	MOVWF CompTempVar2781+D'5', 1
087C  0E3D      	MOVLW 0x3D
087E  6F86      	MOVWF CompTempVar2781+D'6', 1
0880  0E30      	MOVLW 0x30
0882  6F87      	MOVWF CompTempVar2781+D'7', 1
0884  6B88      	CLRF CompTempVar2781+D'8', 1
0886  0E00      	MOVLW HIGH(CompTempVar2781+D'0')
0888  6E77      	MOVWF FCD_0c851__00064_arg_FCL_COMMAND+D'1'
088A  0E80      	MOVLW LOW(CompTempVar2781+D'0')
088C  6E76      	MOVWF FCD_0c851__00064_arg_FCL_COMMAND
088E  0E09      	MOVLW 0x09
0890  6E78      	MOVWF FCD_0c851__00064_arg_FCLsz_00065
0892  6A79      	CLRF FCD_0c851__00064_arg_FCLsz_00065+D'1'
0894  0E01      	MOVLW 0x01
0896  6E7A      	MOVWF FCD_0c851__00064_arg_FCL_SENDCR
0898  ECE2F001  	CALL FCD_0c851__00064
089C  507E      	MOVF CompTempVarRet2724, W
089E  6E6E      	MOVWF FCD_0c851__00080_1_FCR_RETVAL
08A0            label104
08A0  506E      	MOVF FCD_0c851__00080_1_FCR_RETVAL, W
08A2  6E6F      	MOVWF CompTempVarRet2774
08A4  0012      	RETURN
08A6            ; } FCD_0c851_Bluetooth2__SetMode function end

	ORG 0x000008A6
08A6            FCD_0c851__0007E
08A6            ; { FCD_0c851_Bluetooth2__SaveSettings ; function begin
08A6  0E41      	MOVLW 0x41
08A8  6E6D      	MOVWF CompTempVar2770
08AA  0E54      	MOVLW 0x54
08AC  6E6E      	MOVWF CompTempVar2770+D'1'
08AE  0E26      	MOVLW 0x26
08B0  6E6F      	MOVWF CompTempVar2770+D'2'
08B2  0E57      	MOVLW 0x57
08B4  6E70      	MOVWF CompTempVar2770+D'3'
08B6  6A71      	CLRF CompTempVar2770+D'4'
08B8  0E00      	MOVLW HIGH(CompTempVar2770+D'0')
08BA  6E77      	MOVWF FCD_0c851__00064_arg_FCL_COMMAND+D'1'
08BC  0E6D      	MOVLW LOW(CompTempVar2770+D'0')
08BE  6E76      	MOVWF FCD_0c851__00064_arg_FCL_COMMAND
08C0  0E05      	MOVLW 0x05
08C2  6E78      	MOVWF FCD_0c851__00064_arg_FCLsz_00065
08C4  6A79      	CLRF FCD_0c851__00064_arg_FCLsz_00065+D'1'
08C6  0E01      	MOVLW 0x01
08C8  6E7A      	MOVWF FCD_0c851__00064_arg_FCL_SENDCR
08CA  ECE2F001  	CALL FCD_0c851__00064
08CE  507E      	MOVF CompTempVarRet2724, W
08D0  6E6C      	MOVWF FCD_0c851__0007E_1_FCR_RETVAL
08D2  526C      	MOVF FCD_0c851__0007E_1_FCR_RETVAL, F
08D4  E114      	BNZ	label105
08D6  0E41      	MOVLW 0x41
08D8  6E6D      	MOVWF CompTempVar2772
08DA  0E54      	MOVLW 0x54
08DC  6E6E      	MOVWF CompTempVar2772+D'1'
08DE  0E5A      	MOVLW 0x5A
08E0  6E6F      	MOVWF CompTempVar2772+D'2'
08E2  6A70      	CLRF CompTempVar2772+D'3'
08E4  0E00      	MOVLW HIGH(CompTempVar2772+D'0')
08E6  6E77      	MOVWF FCD_0c851__00064_arg_FCL_COMMAND+D'1'
08E8  0E6D      	MOVLW LOW(CompTempVar2772+D'0')
08EA  6E76      	MOVWF FCD_0c851__00064_arg_FCL_COMMAND
08EC  0E04      	MOVLW 0x04
08EE  6E78      	MOVWF FCD_0c851__00064_arg_FCLsz_00065
08F0  6A79      	CLRF FCD_0c851__00064_arg_FCLsz_00065+D'1'
08F2  0E01      	MOVLW 0x01
08F4  6E7A      	MOVWF FCD_0c851__00064_arg_FCL_SENDCR
08F6  ECE2F001  	CALL FCD_0c851__00064
08FA  507E      	MOVF CompTempVarRet2724, W
08FC  6E6C      	MOVWF FCD_0c851__0007E_1_FCR_RETVAL
08FE            label105
08FE  506C      	MOVF FCD_0c851__0007E_1_FCR_RETVAL, W
0900  6E6D      	MOVWF CompTempVarRet2769
0902  0012      	RETURN
0904            ; } FCD_0c851_Bluetooth2__SaveSettings function end

	ORG 0x00000904
0904            FCD_0c851__0007A
0904            ; { FCD_0c851_Bluetooth2__SetPairKey ; function begin
0904  0E22      	MOVLW 0x22
0906  0100      	MOVLB 0x00
0908  6F9B      	MOVWF CompTempVar2760+D'7', 1
090A  0E2B      	MOVLW 0x2B
090C  6F96      	MOVWF CompTempVar2760+D'2', 1
090E  0E3D      	MOVLW 0x3D
0910  6F9A      	MOVWF CompTempVar2760+D'6', 1
0912  0E41      	MOVLW 0x41
0914  6F94      	MOVWF CompTempVar2760, 1
0916  0E42      	MOVLW 0x42
0918  6F97      	MOVWF CompTempVar2760+D'3', 1
091A  0E4B      	MOVLW 0x4B
091C  6F99      	MOVWF CompTempVar2760+D'5', 1
091E  0E54      	MOVLW 0x54
0920  6F95      	MOVWF CompTempVar2760+D'1', 1
0922  6F98      	MOVWF CompTempVar2760+D'4', 1
0924  6B9C      	CLRF CompTempVar2760+D'8', 1
0926  0E00      	MOVLW HIGH(CompTempVar2760+D'0')
0928  6E77      	MOVWF FCI_SHEAD_00000_arg_sSrc1+D'1'
092A  0E94      	MOVLW LOW(CompTempVar2760+D'0')
092C  6E76      	MOVWF FCI_SHEAD_00000_arg_sSrc1
092E  0E09      	MOVLW 0x09
0930  6E78      	MOVWF FCI_SHEAD_00000_arg_iSrc1_len
0932  506C      	MOVF FCD_0c851__0007A_arg_FCL_PAIRKEY, W
0934  6F9D      	MOVWF FCI_SHEAD_00000_arg_sSrc2, 1
0936  506D      	MOVF FCD_0c851__0007A_arg_FCL_PAIRKEY+D'1', W
0938  6F9E      	MOVWF FCI_SHEAD_00000_arg_sSrc2+D'1', 1
093A  5073      	MOVF FCD_0c851__0007A_arg_FCLsz_0007B, W
093C  6E7B      	MOVWF FCI_SHEAD_00000_arg_iSrc2_len
093E  0E00      	MOVLW HIGH(FCD_0c851__0007A_1_FCL_COM_0007C+D'0')
0940  6FA0      	MOVWF FCI_SHEAD_00000_arg_sDst+D'1', 1
0942  0E80      	MOVLW LOW(FCD_0c851__0007A_1_FCL_COM_0007C+D'0')
0944  6F9F      	MOVWF FCI_SHEAD_00000_arg_sDst, 1
0946  0E14      	MOVLW 0x14
0948  6E7C      	MOVWF FCI_SHEAD_00000_arg_iDst_len
094A  ECF2F000  	CALL FCI_SHEAD_00000
094E  0E00      	MOVLW HIGH(FCD_0c851__0007A_1_FCL_COM_0007C+D'0')
0950  6E77      	MOVWF FCI_SHEAD_00000_arg_sSrc1+D'1'
0952  0E80      	MOVLW LOW(FCD_0c851__0007A_1_FCL_COM_0007C+D'0')
0954  6E76      	MOVWF FCI_SHEAD_00000_arg_sSrc1
0956  0E14      	MOVLW 0x14
0958  6E78      	MOVWF FCI_SHEAD_00000_arg_iSrc1_len
095A  0E22      	MOVLW 0x22
095C  6E79      	MOVWF CompTempVar2763
095E  6A7A      	CLRF CompTempVar2763+D'1'
0960  0E00      	MOVLW HIGH(CompTempVar2763+D'0')
0962  6F9E      	MOVWF FCI_SHEAD_00000_arg_sSrc2+D'1', 1
0964  0E79      	MOVLW LOW(CompTempVar2763+D'0')
0966  6F9D      	MOVWF FCI_SHEAD_00000_arg_sSrc2, 1
0968  0E02      	MOVLW 0x02
096A  6E7B      	MOVWF FCI_SHEAD_00000_arg_iSrc2_len
096C  0E00      	MOVLW HIGH(FCD_0c851__0007A_1_FCL_COM_0007C+D'0')
096E  6FA0      	MOVWF FCI_SHEAD_00000_arg_sDst+D'1', 1
0970  0E80      	MOVLW LOW(FCD_0c851__0007A_1_FCL_COM_0007C+D'0')
0972  6F9F      	MOVWF FCI_SHEAD_00000_arg_sDst, 1
0974  0E14      	MOVLW 0x14
0976  6E7C      	MOVWF FCI_SHEAD_00000_arg_iDst_len
0978  ECF2F000  	CALL FCI_SHEAD_00000
097C  0E00      	MOVLW HIGH(FCD_0c851__0007A_1_FCL_COM_0007C+D'0')
097E  6E77      	MOVWF FCD_0c851__00064_arg_FCL_COMMAND+D'1'
0980  0E80      	MOVLW LOW(FCD_0c851__0007A_1_FCL_COM_0007C+D'0')
0982  6E76      	MOVWF FCD_0c851__00064_arg_FCL_COMMAND
0984  0E14      	MOVLW 0x14
0986  6E78      	MOVWF FCD_0c851__00064_arg_FCLsz_00065
0988  6A79      	CLRF FCD_0c851__00064_arg_FCLsz_00065+D'1'
098A  0E01      	MOVLW 0x01
098C  6E7A      	MOVWF FCD_0c851__00064_arg_FCL_SENDCR
098E  ECE2F001  	CALL FCD_0c851__00064
0992  507E      	MOVF CompTempVarRet2724, W
0994  6E75      	MOVWF FCD_0c851__0007A_1_FCR_RETVAL
0996  5075      	MOVF FCD_0c851__0007A_1_FCR_RETVAL, W
0998  6E76      	MOVWF CompTempVarRet2759
099A  0012      	RETURN
099C            ; } FCD_0c851_Bluetooth2__SetPairKey function end

	ORG 0x0000099C
099C            FCD_04071__00057
099C            ; { FCD_04071_LCD__Clear ; function begin
099C  0E01      	MOVLW 0x01
099E  6E67      	MOVWF FCD_04071__00066_arg_FCL_DATA
09A0  9068      	BCF FCD_04071__00066_arg_FCL_TYPE,0
09A2  EC1AF002  	CALL FCD_04071__00066
09A6  0E02      	MOVLW 0x02
09A8  6E6C      	MOVWF delay_ms_00000_arg_del
09AA  EC0BF000  	CALL delay_ms_00000
09AE  0E02      	MOVLW 0x02
09B0  6E67      	MOVWF FCD_04071__00066_arg_FCL_DATA
09B2  9068      	BCF FCD_04071__00066_arg_FCL_TYPE,0
09B4  EC1AF002  	CALL FCD_04071__00066
09B8  0E02      	MOVLW 0x02
09BA  6E6C      	MOVWF delay_ms_00000_arg_del
09BC  EC0BF000  	CALL delay_ms_00000
09C0  0012      	RETURN
09C2            ; } FCD_04071_LCD__Clear function end

	ORG 0x000009C2
09C2            FCM_SET_AS_0005D
09C2            ; { FCM_SET_ASCII_CHARATERS ; function begin
09C2  0101      	MOVLB 0x01
09C4  6B30      	CLRF gbl_FCV_ASCII+D'48', 1
09C6  0E01      	MOVLW 0x01
09C8  6F31      	MOVWF gbl_FCV_ASCII+D'49', 1
09CA  0E02      	MOVLW 0x02
09CC  6F32      	MOVWF gbl_FCV_ASCII+D'50', 1
09CE  0E03      	MOVLW 0x03
09D0  6F33      	MOVWF gbl_FCV_ASCII+D'51', 1
09D2  0E04      	MOVLW 0x04
09D4  6F34      	MOVWF gbl_FCV_ASCII+D'52', 1
09D6  0E05      	MOVLW 0x05
09D8  6F35      	MOVWF gbl_FCV_ASCII+D'53', 1
09DA  0E06      	MOVLW 0x06
09DC  6F36      	MOVWF gbl_FCV_ASCII+D'54', 1
09DE  0E07      	MOVLW 0x07
09E0  6F37      	MOVWF gbl_FCV_ASCII+D'55', 1
09E2  0E08      	MOVLW 0x08
09E4  6F38      	MOVWF gbl_FCV_ASCII+D'56', 1
09E6  0E09      	MOVLW 0x09
09E8  6F39      	MOVWF gbl_FCV_ASCII+D'57', 1
09EA  0E0A      	MOVLW 0x0A
09EC  6F3A      	MOVWF gbl_FCV_ASCII+D'58', 1
09EE  0E61      	MOVLW 0x61
09F0  6F61      	MOVWF gbl_FCV_ASCII+D'97', 1
09F2  0E62      	MOVLW 0x62
09F4  6F62      	MOVWF gbl_FCV_ASCII+D'98', 1
09F6  0E63      	MOVLW 0x63
09F8  6F63      	MOVWF gbl_FCV_ASCII+D'99', 1
09FA  0E64      	MOVLW 0x64
09FC  6F64      	MOVWF gbl_FCV_ASCII+D'100', 1
09FE  0E65      	MOVLW 0x65
0A00  6F65      	MOVWF gbl_FCV_ASCII+D'101', 1
0A02  0E66      	MOVLW 0x66
0A04  6F66      	MOVWF gbl_FCV_ASCII+D'102', 1
0A06  0E2B      	MOVLW 0x2B
0A08  6F2B      	MOVWF gbl_FCV_ASCII+D'43', 1
0A0A  0012      	RETURN
0A0C            ; } FCM_SET_ASCII_CHARATERS function end

	ORG 0x00000A0C
0A0C            FCI_DELAYI_00039
0A0C            ; { FCI_DELAYINT_MS ; function begin
0A0C            label106
0A0C  0EFF      	MOVLW 0xFF
0A0E  6459      	CPFSGT FCI_DELAYI_00039_arg_Delay
0A10  665A      	TSTFSZ FCI_DELAYI_00039_arg_Delay+D'1'
0A12  D001      	BRA	label107
0A14  D00C      	BRA	label108
0A16            label107
0A16  686C      	SETF delay_ms_00000_arg_del
0A18  EC0BF000  	CALL delay_ms_00000
0A1C  0EFF      	MOVLW 0xFF
0A1E  5C59      	SUBWF FCI_DELAYI_00039_arg_Delay, W
0A20  6E5B      	MOVWF CompTempVar1841
0A22  5859      	SUBWFB FCI_DELAYI_00039_arg_Delay, W
0A24  08FF      	SUBLW 0xFF
0A26  5E5A      	SUBWF FCI_DELAYI_00039_arg_Delay+D'1', F
0A28  505B      	MOVF CompTempVar1841, W
0A2A  6E59      	MOVWF FCI_DELAYI_00039_arg_Delay
0A2C  D7EF      	BRA	label106
0A2E            label108
0A2E  0E00      	MOVLW 0x00
0A30  6459      	CPFSGT FCI_DELAYI_00039_arg_Delay
0A32  665A      	TSTFSZ FCI_DELAYI_00039_arg_Delay+D'1'
0A34  D001      	BRA	label109
0A36  0012      	RETURN
0A38            label109
0A38  5059      	MOVF FCI_DELAYI_00039_arg_Delay, W
0A3A  6E6C      	MOVWF delay_ms_00000_arg_del
0A3C  EC0BF000  	CALL delay_ms_00000
0A40  0012      	RETURN
0A42            ; } FCI_DELAYINT_MS function end

	ORG 0x00000A42
0A42            FCD_0c851__0005B
0A42            ; { FCD_0c851_Bluetooth2__SendScript ; function begin
0A42  6A58      	CLRF FCD_0c851__0005B_1_FCL_I
0A44  6859      	SETF FCD_0c851__0005B_1_FCL_CH
0A46  6A5A      	CLRF FCD_0c851__0005B_1_FCL_LEN
0A48  0E01      	MOVLW 0x01
0A4A  6057      	CPFSLT FCD_0c851__0005B_arg_FCL_IDX
0A4C  D001      	BRA	label110
0A4E  D003      	BRA	label111
0A50            label110
0A50  0E02      	MOVLW 0x02
0A52  6457      	CPFSGT FCD_0c851__0005B_arg_FCL_IDX
0A54  D002      	BRA	label112
0A56            label111
0A56  685B      	SETF FCD_0c851__0005B_1_FCR_RETVAL
0A58  D0D6      	BRA	label124
0A5A            label112
0A5A  0457      	DECF FCD_0c851__0005B_arg_FCL_IDX, W
0A5C  E00C      	BZ	label115
0A5E  0E02      	MOVLW 0x02
0A60  6257      	CPFSEQ FCD_0c851__0005B_arg_FCL_IDX
0A62  D001      	BRA	label113
0A64  D04A      	BRA	label116
0A66            label113
0A66  0E03      	MOVLW 0x03
0A68  6257      	CPFSEQ FCD_0c851__0005B_arg_FCL_IDX
0A6A  D001      	BRA	label114
0A6C  D073      	BRA	label117
0A6E            label114
0A6E  0E04      	MOVLW 0x04
0A70  6257      	CPFSEQ FCD_0c851__0005B_arg_FCL_IDX
0A72  D092      	BRA	label119
0A74  D080      	BRA	label118
0A76            label115
0A76  0E0A      	MOVLW 0x0A
0A78  0100      	MOVLB 0x00
0A7A  6FB1      	MOVWF CompTempVar2671+D'7', 1
0A7C  6FBB      	MOVWF CompTempVar2671+D'17', 1
0A7E  6FC5      	MOVWF CompTempVar2671+D'27', 1
0A80  0E0D      	MOVLW 0x0D
0A82  6FB0      	MOVWF CompTempVar2671+D'6', 1
0A84  6FBA      	MOVWF CompTempVar2671+D'16', 1
0A86  6FC4      	MOVWF CompTempVar2671+D'26', 1
0A88  0E30      	MOVLW 0x30
0A8A  6FAD      	MOVWF CompTempVar2671+D'3', 1
0A8C  6FCA      	MOVWF CompTempVar2671+D'32', 1
0A8E  0E31      	MOVLW 0x31
0A90  6FAF      	MOVWF CompTempVar2671+D'5', 1
0A92  6FB6      	MOVWF CompTempVar2671+D'12', 1
0A94  6FC3      	MOVWF CompTempVar2671+D'25', 1
0A96  6FCD      	MOVWF CompTempVar2671+D'35', 1
0A98  0E32      	MOVLW 0x32
0A9A  6FB7      	MOVWF CompTempVar2671+D'13', 1
0A9C  6FCB      	MOVWF CompTempVar2671+D'33', 1
0A9E  0E33      	MOVLW 0x33
0AA0  6FC0      	MOVWF CompTempVar2671+D'22', 1
0AA2  0E34      	MOVLW 0x34
0AA4  6FB9      	MOVWF CompTempVar2671+D'15', 1
0AA6  0E35      	MOVLW 0x35
0AA8  6FB5      	MOVWF CompTempVar2671+D'11', 1
0AAA  6FBF      	MOVWF CompTempVar2671+D'21', 1
0AAC  6FC9      	MOVWF CompTempVar2671+D'31', 1
0AAE  0E36      	MOVLW 0x36
0AB0  6FC1      	MOVWF CompTempVar2671+D'23', 1
0AB2  0E3D      	MOVLW 0x3D
0AB4  6FAE      	MOVWF CompTempVar2671+D'4', 1
0AB6  6FB8      	MOVWF CompTempVar2671+D'14', 1
0AB8  6FC2      	MOVWF CompTempVar2671+D'24', 1
0ABA  6FCC      	MOVWF CompTempVar2671+D'34', 1
0ABC  0E41      	MOVLW 0x41
0ABE  6FAA      	MOVWF CompTempVar2671, 1
0AC0  6FB2      	MOVWF CompTempVar2671+D'8', 1
0AC2  6FBC      	MOVWF CompTempVar2671+D'18', 1
0AC4  6FC6      	MOVWF CompTempVar2671+D'28', 1
0AC6  0E53      	MOVLW 0x53
0AC8  6FAC      	MOVWF CompTempVar2671+D'2', 1
0ACA  6FB4      	MOVWF CompTempVar2671+D'10', 1
0ACC  6FBE      	MOVWF CompTempVar2671+D'20', 1
0ACE  6FC8      	MOVWF CompTempVar2671+D'30', 1
0AD0  0E54      	MOVLW 0x54
0AD2  6FAB      	MOVWF CompTempVar2671+D'1', 1
0AD4  6FB3      	MOVWF CompTempVar2671+D'9', 1
0AD6  6FBD      	MOVWF CompTempVar2671+D'19', 1
0AD8  6FC7      	MOVWF CompTempVar2671+D'29', 1
0ADA  6BCE      	CLRF CompTempVar2671+D'36', 1
0ADC  0E00      	MOVLW HIGH(CompTempVar2671+D'0')
0ADE  6FA9      	MOVWF FCI_SCOPY_00000_arg_sSrc+D'1', 1
0AE0  0EAA      	MOVLW LOW(CompTempVar2671+D'0')
0AE2  6FA8      	MOVWF FCI_SCOPY_00000_arg_sSrc, 1
0AE4  0E25      	MOVLW 0x25
0AE6  6E5D      	MOVWF FCI_SCOPY_00000_arg_iSrc_len
0AE8  0E00      	MOVLW HIGH(FCD_0c851__0005B_1_FCL_SCR_0005C+D'0')
0AEA  6FD0      	MOVWF FCI_SCOPY_00000_arg_sDst+D'1', 1
0AEC  0E80      	MOVLW LOW(FCD_0c851__0005B_1_FCL_SCR_0005C+D'0')
0AEE  6FCF      	MOVWF FCI_SCOPY_00000_arg_sDst, 1
0AF0  0E28      	MOVLW 0x28
0AF2  6E5E      	MOVWF FCI_SCOPY_00000_arg_iDst_len
0AF4  EC84F003  	CALL FCI_SCOPY_00000
0AF8  D051      	BRA	label120
0AFA            label116
0AFA  0E0A      	MOVLW 0x0A
0AFC  0100      	MOVLB 0x00
0AFE  6FAF      	MOVWF CompTempVar2674+D'5', 1
0B00  0E0D      	MOVLW 0x0D
0B02  6FAE      	MOVWF CompTempVar2674+D'4', 1
0B04  0E26      	MOVLW 0x26
0B06  6FAC      	MOVWF CompTempVar2674+D'2', 1
0B08  0E30      	MOVLW 0x30
0B0A  6FB8      	MOVWF CompTempVar2674+D'14', 1
0B0C  6FB9      	MOVWF CompTempVar2674+D'15', 1
0B0E  0E31      	MOVLW 0x31
0B10  6FB7      	MOVWF CompTempVar2674+D'13', 1
0B12  0E34      	MOVLW 0x34
0B14  6FB5      	MOVWF CompTempVar2674+D'11', 1
0B16  0E35      	MOVLW 0x35
0B18  6FB3      	MOVWF CompTempVar2674+D'9', 1
0B1A  6FB4      	MOVWF CompTempVar2674+D'10', 1
0B1C  0E3D      	MOVLW 0x3D
0B1E  6FB6      	MOVWF CompTempVar2674+D'12', 1
0B20  0E41      	MOVLW 0x41
0B22  6FAA      	MOVWF CompTempVar2674, 1
0B24  6FB0      	MOVWF CompTempVar2674+D'6', 1
0B26  0E53      	MOVLW 0x53
0B28  6FB2      	MOVWF CompTempVar2674+D'8', 1
0B2A  0E54      	MOVLW 0x54
0B2C  6FAB      	MOVWF CompTempVar2674+D'1', 1
0B2E  6FB1      	MOVWF CompTempVar2674+D'7', 1
0B30  0E57      	MOVLW 0x57
0B32  6FAD      	MOVWF CompTempVar2674+D'3', 1
0B34  6BBA      	CLRF CompTempVar2674+D'16', 1
0B36  0E00      	MOVLW HIGH(CompTempVar2674+D'0')
0B38  6FA9      	MOVWF FCI_SCOPY_00000_arg_sSrc+D'1', 1
0B3A  0EAA      	MOVLW LOW(CompTempVar2674+D'0')
0B3C  6FA8      	MOVWF FCI_SCOPY_00000_arg_sSrc, 1
0B3E  0E11      	MOVLW 0x11
0B40  6E5D      	MOVWF FCI_SCOPY_00000_arg_iSrc_len
0B42  0E00      	MOVLW HIGH(FCD_0c851__0005B_1_FCL_SCR_0005C+D'0')
0B44  6FD0      	MOVWF FCI_SCOPY_00000_arg_sDst+D'1', 1
0B46  0E80      	MOVLW LOW(FCD_0c851__0005B_1_FCL_SCR_0005C+D'0')
0B48  6FCF      	MOVWF FCI_SCOPY_00000_arg_sDst, 1
0B4A  0E28      	MOVLW 0x28
0B4C  6E5E      	MOVWF FCI_SCOPY_00000_arg_iDst_len
0B4E  EC84F003  	CALL FCI_SCOPY_00000
0B52  D024      	BRA	label120
0B54            label117
0B54  6A5C      	CLRF CompTempVar2677
0B56  0E00      	MOVLW HIGH(CompTempVar2677+D'0')
0B58  0100      	MOVLB 0x00
0B5A  6FA9      	MOVWF FCI_SCOPY_00000_arg_sSrc+D'1', 1
0B5C  0E5C      	MOVLW LOW(CompTempVar2677+D'0')
0B5E  6FA8      	MOVWF FCI_SCOPY_00000_arg_sSrc, 1
0B60  0E01      	MOVLW 0x01
0B62  6E5D      	MOVWF FCI_SCOPY_00000_arg_iSrc_len
0B64  0E00      	MOVLW HIGH(FCD_0c851__0005B_1_FCL_SCR_0005C+D'0')
0B66  6FD0      	MOVWF FCI_SCOPY_00000_arg_sDst+D'1', 1
0B68  0E80      	MOVLW LOW(FCD_0c851__0005B_1_FCL_SCR_0005C+D'0')
0B6A  6FCF      	MOVWF FCI_SCOPY_00000_arg_sDst, 1
0B6C  0E28      	MOVLW 0x28
0B6E  6E5E      	MOVWF FCI_SCOPY_00000_arg_iDst_len
0B70  EC84F003  	CALL FCI_SCOPY_00000
0B74  D013      	BRA	label120
0B76            label118
0B76  6A5C      	CLRF CompTempVar2680
0B78  0E00      	MOVLW HIGH(CompTempVar2680+D'0')
0B7A  0100      	MOVLB 0x00
0B7C  6FA9      	MOVWF FCI_SCOPY_00000_arg_sSrc+D'1', 1
0B7E  0E5C      	MOVLW LOW(CompTempVar2680+D'0')
0B80  6FA8      	MOVWF FCI_SCOPY_00000_arg_sSrc, 1
0B82  0E01      	MOVLW 0x01
0B84  6E5D      	MOVWF FCI_SCOPY_00000_arg_iSrc_len
0B86  0E00      	MOVLW HIGH(FCD_0c851__0005B_1_FCL_SCR_0005C+D'0')
0B88  6FD0      	MOVWF FCI_SCOPY_00000_arg_sDst+D'1', 1
0B8A  0E80      	MOVLW LOW(FCD_0c851__0005B_1_FCL_SCR_0005C+D'0')
0B8C  6FCF      	MOVWF FCI_SCOPY_00000_arg_sDst, 1
0B8E  0E28      	MOVLW 0x28
0B90  6E5E      	MOVWF FCI_SCOPY_00000_arg_iDst_len
0B92  EC84F003  	CALL FCI_SCOPY_00000
0B96  D002      	BRA	label120
0B98            label119
0B98  685B      	SETF FCD_0c851__0005B_1_FCR_RETVAL
0B9A  D035      	BRA	label124
0B9C            label120
0B9C  0E00      	MOVLW 0x00
0B9E  6459      	CPFSGT FCD_0c851__0005B_1_FCL_CH
0BA0  D023      	BRA	label123
0BA2  0100      	MOVLB 0x00
0BA4  EE00F080  	LFSR 0x00, FCD_0c851__0005B_1_FCL_SCR_0005C
0BA8  50E9      	MOVF FSR0L, W
0BAA  5058      	MOVF FCD_0c851__0005B_1_FCL_I, W
0BAC  26E9      	ADDWF FSR0L, F
0BAE  50EF      	MOVF INDF0, W
0BB0  6E59      	MOVWF FCD_0c851__0005B_1_FCL_CH
0BB2  0E00      	MOVLW 0x00
0BB4  6459      	CPFSGT FCD_0c851__0005B_1_FCL_CH
0BB6  D015      	BRA	label122
0BB8  0E0A      	MOVLW 0x0A
0BBA  6259      	CPFSEQ FCD_0c851__0005B_1_FCL_CH
0BBC  D001      	BRA	label121
0BBE  D011      	BRA	label122
0BC0            label121
0BC0  5059      	MOVF FCD_0c851__0005B_1_FCL_CH, W
0BC2  6FA8      	MOVWF FC_CAL_UAR_00077_arg_nChar, 1
0BC4  6BA9      	CLRF FC_CAL_UAR_00077_arg_nChar+D'1', 1
0BC6  ECB0F000  	CALL FC_CAL_UAR_00077
0BCA  285A      	INCF FCD_0c851__0005B_1_FCL_LEN, W
0BCC  6E5A      	MOVWF FCD_0c851__0005B_1_FCL_LEN
0BCE  0E0D      	MOVLW 0x0D
0BD0  6259      	CPFSEQ FCD_0c851__0005B_1_FCL_CH
0BD2  D007      	BRA	label122
0BD4  ECC8F000  	CALL FCD_0c851__0007D
0BD8  ECC8F000  	CALL FCD_0c851__0007D
0BDC  51A9      	MOVF CompTempVarRet2768, W, 1
0BDE  6E5B      	MOVWF FCD_0c851__0005B_1_FCR_RETVAL
0BE0  6A5A      	CLRF FCD_0c851__0005B_1_FCL_LEN
0BE2            label122
0BE2  2858      	INCF FCD_0c851__0005B_1_FCL_I, W
0BE4  6E58      	MOVWF FCD_0c851__0005B_1_FCL_I
0BE6  D7DA      	BRA	label120
0BE8            label123
0BE8  0E00      	MOVLW 0x00
0BEA  645A      	CPFSGT FCD_0c851__0005B_1_FCL_LEN
0BEC  D00C      	BRA	label124
0BEE  0E0D      	MOVLW 0x0D
0BF0  0100      	MOVLB 0x00
0BF2  6FA8      	MOVWF FC_CAL_UAR_00077_arg_nChar, 1
0BF4  6BA9      	CLRF FC_CAL_UAR_00077_arg_nChar+D'1', 1
0BF6  ECB0F000  	CALL FC_CAL_UAR_00077
0BFA  ECC8F000  	CALL FCD_0c851__0007D
0BFE  ECC8F000  	CALL FCD_0c851__0007D
0C02  51A9      	MOVF CompTempVarRet2768, W, 1
0C04  6E5B      	MOVWF FCD_0c851__0005B_1_FCR_RETVAL
0C06            label124
0C06  505B      	MOVF FCD_0c851__0005B_1_FCR_RETVAL, W
0C08  6E5C      	MOVWF CompTempVarRet2670
0C0A  0012      	RETURN
0C0C            ; } FCD_0c851_Bluetooth2__SendScript function end

	ORG 0x00000C0C
0C0C            FCD_0c851__0005A
0C0C            ; { FCD_0c851_Bluetooth2__Initialise ; function begin
0C0C  6A6C      	CLRF FCD_0c851__0005A_2_ptmp
0C0E  9294      	BCF gbl_trisc,1
0C10  526C      	MOVF FCD_0c851__0005A_2_ptmp, F
0C12  E004      	BZ	label125
0C14  0E02      	MOVLW 0x02
0C16  108B      	IORWF gbl_latc, W
0C18  6E82      	MOVWF gbl_portc
0C1A  D003      	BRA	label126
0C1C            label125
0C1C  0EFD      	MOVLW 0xFD
0C1E  148B      	ANDWF gbl_latc, W
0C20  6E82      	MOVWF gbl_portc
0C22            label126
0C22  0E64      	MOVLW 0x64
0C24  6E6C      	MOVWF delay_ms_00000_arg_del
0C26  EC0BF000  	CALL delay_ms_00000
0C2A  0E01      	MOVLW 0x01
0C2C  6E6C      	MOVWF FCD_0c851__0005A_13_ptmp
0C2E  9294      	BCF gbl_trisc,1
0C30  526C      	MOVF FCD_0c851__0005A_13_ptmp, F
0C32  E004      	BZ	label127
0C34  0E02      	MOVLW 0x02
0C36  108B      	IORWF gbl_latc, W
0C38  6E82      	MOVWF gbl_portc
0C3A  D003      	BRA	label128
0C3C            label127
0C3C  0EFD      	MOVLW 0xFD
0C3E  148B      	ANDWF gbl_latc, W
0C40  6E82      	MOVWF gbl_portc
0C42            label128
0C42  6A6B      	CLRF FCD_0c851__0005A_1_FCR_RETVAL
0C44  EC79F003  	CALL FC_CAL_UAR_00078
0C48  0E0A      	MOVLW 0x0A
0C4A  6E6C      	MOVWF delay_ms_00000_arg_del
0C4C  EC0BF000  	CALL delay_ms_00000
0C50  ECC8F000  	CALL FCD_0c851__0007D
0C54  ECB2F003  	CALL FCD_0c851__00083
0C58  0E22      	MOVLW 0x22
0C5A  6F87      	MOVWF CompTempVar2658+D'7', 1
0C5C  0E2B      	MOVLW 0x2B
0C5E  6F82      	MOVWF CompTempVar2658+D'2', 1
0C60  0E3D      	MOVLW 0x3D
0C62  6F86      	MOVWF CompTempVar2658+D'6', 1
0C64  0E41      	MOVLW 0x41
0C66  6F80      	MOVWF CompTempVar2658, 1
0C68  0E42      	MOVLW 0x42
0C6A  6F83      	MOVWF CompTempVar2658+D'3', 1
0C6C  0E4E      	MOVLW 0x4E
0C6E  6F85      	MOVWF CompTempVar2658+D'5', 1
0C70  0E54      	MOVLW 0x54
0C72  6F81      	MOVWF CompTempVar2658+D'1', 1
0C74  6F84      	MOVWF CompTempVar2658+D'4', 1
0C76  6B88      	CLRF CompTempVar2658+D'8', 1
0C78  0E00      	MOVLW HIGH(CompTempVar2658+D'0')
0C7A  6E77      	MOVWF FCI_SHEAD_00000_arg_sSrc1+D'1'
0C7C  0E80      	MOVLW LOW(CompTempVar2658+D'0')
0C7E  6E76      	MOVWF FCI_SHEAD_00000_arg_sSrc1
0C80  0E09      	MOVLW 0x09
0C82  6E78      	MOVWF FCI_SHEAD_00000_arg_iSrc1_len
0C84  0E4A      	MOVLW 0x4A
0C86  6F89      	MOVWF CompTempVar2659, 1
0C88  0E31      	MOVLW 0x31
0C8A  6F8A      	MOVWF CompTempVar2659+D'1', 1
0C8C  6B8B      	CLRF CompTempVar2659+D'2', 1
0C8E  0E00      	MOVLW HIGH(CompTempVar2659+D'0')
0C90  6F9E      	MOVWF FCI_SHEAD_00000_arg_sSrc2+D'1', 1
0C92  0E89      	MOVLW LOW(CompTempVar2659+D'0')
0C94  6F9D      	MOVWF FCI_SHEAD_00000_arg_sSrc2, 1
0C96  0E03      	MOVLW 0x03
0C98  6E7B      	MOVWF FCI_SHEAD_00000_arg_iSrc2_len
0C9A  0E00      	MOVLW HIGH(FCD_0c851__0005A_1_FCL_CMDSTR+D'0')
0C9C  6FA0      	MOVWF FCI_SHEAD_00000_arg_sDst+D'1', 1
0C9E  0E57      	MOVLW LOW(FCD_0c851__0005A_1_FCL_CMDSTR+D'0')
0CA0  6F9F      	MOVWF FCI_SHEAD_00000_arg_sDst, 1
0CA2  0E14      	MOVLW 0x14
0CA4  6E7C      	MOVWF FCI_SHEAD_00000_arg_iDst_len
0CA6  ECF2F000  	CALL FCI_SHEAD_00000
0CAA  0E00      	MOVLW HIGH(FCD_0c851__0005A_1_FCL_CMDSTR+D'0')
0CAC  6E77      	MOVWF FCI_SHEAD_00000_arg_sSrc1+D'1'
0CAE  0E57      	MOVLW LOW(FCD_0c851__0005A_1_FCL_CMDSTR+D'0')
0CB0  6E76      	MOVWF FCI_SHEAD_00000_arg_sSrc1
0CB2  0E14      	MOVLW 0x14
0CB4  6E78      	MOVWF FCI_SHEAD_00000_arg_iSrc1_len
0CB6  0E22      	MOVLW 0x22
0CB8  6E6D      	MOVWF CompTempVar2663
0CBA  6A6E      	CLRF CompTempVar2663+D'1'
0CBC  0E00      	MOVLW HIGH(CompTempVar2663+D'0')
0CBE  6F9E      	MOVWF FCI_SHEAD_00000_arg_sSrc2+D'1', 1
0CC0  0E6D      	MOVLW LOW(CompTempVar2663+D'0')
0CC2  6F9D      	MOVWF FCI_SHEAD_00000_arg_sSrc2, 1
0CC4  0E02      	MOVLW 0x02
0CC6  6E7B      	MOVWF FCI_SHEAD_00000_arg_iSrc2_len
0CC8  0E00      	MOVLW HIGH(FCD_0c851__0005A_1_FCL_CMDSTR+D'0')
0CCA  6FA0      	MOVWF FCI_SHEAD_00000_arg_sDst+D'1', 1
0CCC  0E57      	MOVLW LOW(FCD_0c851__0005A_1_FCL_CMDSTR+D'0')
0CCE  6F9F      	MOVWF FCI_SHEAD_00000_arg_sDst, 1
0CD0  0E14      	MOVLW 0x14
0CD2  6E7C      	MOVWF FCI_SHEAD_00000_arg_iDst_len
0CD4  ECF2F000  	CALL FCI_SHEAD_00000
0CD8  0E00      	MOVLW HIGH(FCD_0c851__0005A_1_FCL_CMDSTR+D'0')
0CDA  6E77      	MOVWF FCD_0c851__00064_arg_FCL_COMMAND+D'1'
0CDC  0E57      	MOVLW LOW(FCD_0c851__0005A_1_FCL_CMDSTR+D'0')
0CDE  6E76      	MOVWF FCD_0c851__00064_arg_FCL_COMMAND
0CE0  0E14      	MOVLW 0x14
0CE2  6E78      	MOVWF FCD_0c851__00064_arg_FCLsz_00065
0CE4  6A79      	CLRF FCD_0c851__00064_arg_FCLsz_00065+D'1'
0CE6  0E01      	MOVLW 0x01
0CE8  6E7A      	MOVWF FCD_0c851__00064_arg_FCL_SENDCR
0CEA  ECE2F001  	CALL FCD_0c851__00064
0CEE  0E31      	MOVLW 0x31
0CF0  6E6E      	MOVWF CompTempVar2668
0CF2  0E33      	MOVLW 0x33
0CF4  6E6F      	MOVWF CompTempVar2668+D'1'
0CF6  0E37      	MOVLW 0x37
0CF8  6E70      	MOVWF CompTempVar2668+D'2'
0CFA  0E39      	MOVLW 0x39
0CFC  6E71      	MOVWF CompTempVar2668+D'3'
0CFE  6A72      	CLRF CompTempVar2668+D'4'
0D00  0E00      	MOVLW HIGH(CompTempVar2668+D'0')
0D02  6E6D      	MOVWF FCD_0c851__0007A_arg_FCL_PAIRKEY+D'1'
0D04  0E6E      	MOVLW LOW(CompTempVar2668+D'0')
0D06  6E6C      	MOVWF FCD_0c851__0007A_arg_FCL_PAIRKEY
0D08  0E05      	MOVLW 0x05
0D0A  6E73      	MOVWF FCD_0c851__0007A_arg_FCLsz_0007B
0D0C  6A74      	CLRF FCD_0c851__0007A_arg_FCLsz_0007B+D'1'
0D0E  EC82F004  	CALL FCD_0c851__0007A
0D12  0E01      	MOVLW 0x01
0D14  6E6C      	MOVWF FCD_0c851__00080_arg_FCL_D_00081
0D16  6E6D      	MOVWF FCD_0c851__00080_arg_FCL_C_00082
0D18  ECCDF003  	CALL FCD_0c851__00080
0D1C  EC53F004  	CALL FCD_0c851__0007E
0D20  506D      	MOVF CompTempVarRet2769, W
0D22  6E6B      	MOVWF FCD_0c851__0005A_1_FCR_RETVAL
0D24  506B      	MOVF FCD_0c851__0005A_1_FCR_RETVAL, W
0D26  6E6C      	MOVWF CompTempVarRet2657
0D28  0012      	RETURN
0D2A            ; } FCD_0c851_Bluetooth2__Initialise function end

	ORG 0x00000D2A
0D2A            FCD_0c851__00053
0D2A            ; { FCD_0c851_Bluetooth2__ReadString ; function begin
0D2A  6A5E      	CLRF FCD_0c851__00053_1_FCL_IDX
0D2C            label129
0D2C  505D      	MOVF FCD_0c851__00053_arg_FCL_N_00055, W
0D2E  605E      	CPFSLT FCD_0c851__00053_1_FCL_IDX
0D30  D01B      	BRA	label130
0D32  EE00F005  	LFSR 0x00, gbl_FCV_0c851_Bluetooth2___00000
0D36  50E9      	MOVF FSR0L, W
0D38  505E      	MOVF FCD_0c851__00053_1_FCL_IDX, W
0D3A  26E9      	ADDWF FSR0L, F
0D3C  0E00      	MOVLW 0x00
0D3E  64EF      	CPFSGT INDF0
0D40  D013      	BRA	label130
0D42  EE00F005  	LFSR 0x00, gbl_FCV_0c851_Bluetooth2___00000
0D46  50E9      	MOVF FSR0L, W
0D48  505E      	MOVF FCD_0c851__00053_1_FCL_IDX, W
0D4A  6E5F      	MOVWF CompTempVar2643
0D4C  505F      	MOVF CompTempVar2643, W
0D4E  26E9      	ADDWF FSR0L, F
0D50  50EF      	MOVF INDF0, W
0D52  6E60      	MOVWF CompTempVar2644
0D54  505A      	MOVF FCD_0c851__00053_arg_FCR_RETVAL+D'1', W
0D56  6EEA      	MOVWF FSR0H
0D58  5059      	MOVF FCD_0c851__00053_arg_FCR_RETVAL, W
0D5A  245E      	ADDWF FCD_0c851__00053_1_FCL_IDX, W
0D5C  6EE9      	MOVWF FSR0L
0D5E  5060      	MOVF CompTempVar2644, W
0D60  6EEF      	MOVWF INDF0
0D62  285E      	INCF FCD_0c851__00053_1_FCL_IDX, W
0D64  6E5E      	MOVWF FCD_0c851__00053_1_FCL_IDX
0D66  D7E2      	BRA	label129
0D68            label130
0D68  505D      	MOVF FCD_0c851__00053_arg_FCL_N_00055, W
0D6A  605E      	CPFSLT FCD_0c851__00053_1_FCL_IDX
0D6C  0012      	RETURN
0D6E  505A      	MOVF FCD_0c851__00053_arg_FCR_RETVAL+D'1', W
0D70  6EEA      	MOVWF FSR0H
0D72  5059      	MOVF FCD_0c851__00053_arg_FCR_RETVAL, W
0D74  245E      	ADDWF FCD_0c851__00053_1_FCL_IDX, W
0D76  6EE9      	MOVWF FSR0L
0D78  0E00      	MOVLW 0x00
0D7A  6EEF      	MOVWF INDF0
0D7C  0012      	RETURN
0D7E            ; } FCD_0c851_Bluetooth2__ReadString function end

	ORG 0x00000D7E
0D7E            FCD_0c851__00052
0D7E            ; { FCD_0c851_Bluetooth2__ReceiveByte ; function begin
0D7E  6A5A      	CLRF FCD_0c851__00052_1_FCL_COUNT
0D80  6A55      	CLRF gbl_FCV_0c851_Bluetooth2___00001
0D82            label131
0D82  5056      	MOVF gbl_FCV_0c851_Bluetooth2___00002, W
0D84  6054      	CPFSLT gbl_FCV_0c851_Bluetooth2__RX_IDX
0D86  D00A      	BRA	label132
0D88  EE00F005  	LFSR 0x00, gbl_FCV_0c851_Bluetooth2___00000
0D8C  50E9      	MOVF FSR0L, W
0D8E  5054      	MOVF gbl_FCV_0c851_Bluetooth2__RX_IDX, W
0D90  26E9      	ADDWF FSR0L, F
0D92  50EF      	MOVF INDF0, W
0D94  6E5B      	MOVWF FCD_0c851__00052_1_FCR_RETVAL
0D96  2854      	INCF gbl_FCV_0c851_Bluetooth2__RX_IDX, W
0D98  6E54      	MOVWF gbl_FCV_0c851_Bluetooth2__RX_IDX
0D9A  D012      	BRA	label135
0D9C            label132
0D9C  0E28      	MOVLW 0x28
0D9E  6056      	CPFSLT gbl_FCV_0c851_Bluetooth2___00002
0DA0  D00C      	BRA	label134
0DA2  5259      	MOVF FCD_0c851__00052_arg_FCL_TIMEOUT, F
0DA4  E003      	BZ	label133
0DA6  5059      	MOVF FCD_0c851__00052_arg_FCL_TIMEOUT, W
0DA8  605A      	CPFSLT FCD_0c851__00052_1_FCL_COUNT
0DAA  D007      	BRA	label134
0DAC            label133
0DAC  0E01      	MOVLW 0x01
0DAE  6E6C      	MOVWF delay_ms_00000_arg_del
0DB0  EC0BF000  	CALL delay_ms_00000
0DB4  285A      	INCF FCD_0c851__00052_1_FCL_COUNT, W
0DB6  6E5A      	MOVWF FCD_0c851__00052_1_FCL_COUNT
0DB8  D7E4      	BRA	label131
0DBA            label134
0DBA  6A54      	CLRF gbl_FCV_0c851_Bluetooth2__RX_IDX
0DBC  6A56      	CLRF gbl_FCV_0c851_Bluetooth2___00002
0DBE  685B      	SETF FCD_0c851__00052_1_FCR_RETVAL
0DC0            label135
0DC0  505B      	MOVF FCD_0c851__00052_1_FCR_RETVAL, W
0DC2  6E5C      	MOVWF CompTempVarRet2638
0DC4  0012      	RETURN
0DC6            ; } FCD_0c851_Bluetooth2__ReceiveByte function end

	ORG 0x00000DC6
0DC6            FCD_04071__00059
0DC6            ; { FCD_04071_LCD__Start ; function begin
0DC6  6A57      	CLRF FCD_04071__00059_2_ptmp
0DC8  9092      	BCF gbl_trisa,0
0DCA  5257      	MOVF FCD_04071__00059_2_ptmp, F
0DCC  E004      	BZ	label136
0DCE  0E01      	MOVLW 0x01
0DD0  1089      	IORWF gbl_lata, W
0DD2  6E80      	MOVWF gbl_porta
0DD4  D003      	BRA	label137
0DD6            label136
0DD6  0EFE      	MOVLW 0xFE
0DD8  1489      	ANDWF gbl_lata, W
0DDA  6E80      	MOVWF gbl_porta
0DDC            label137
0DDC  6A57      	CLRF FCD_04071__00059_9_ptmp
0DDE  9292      	BCF gbl_trisa,1
0DE0  5257      	MOVF FCD_04071__00059_9_ptmp, F
0DE2  E004      	BZ	label138
0DE4  0E02      	MOVLW 0x02
0DE6  1089      	IORWF gbl_lata, W
0DE8  6E80      	MOVWF gbl_porta
0DEA  D003      	BRA	label139
0DEC            label138
0DEC  0EFD      	MOVLW 0xFD
0DEE  1489      	ANDWF gbl_lata, W
0DF0  6E80      	MOVWF gbl_porta
0DF2            label139
0DF2  6A57      	CLRF FCD_04071__00059_16_ptmp
0DF4  9492      	BCF gbl_trisa,2
0DF6  5257      	MOVF FCD_04071__00059_16_ptmp, F
0DF8  E004      	BZ	label140
0DFA  0E04      	MOVLW 0x04
0DFC  1089      	IORWF gbl_lata, W
0DFE  6E80      	MOVWF gbl_porta
0E00  D003      	BRA	label141
0E02            label140
0E02  0EFB      	MOVLW 0xFB
0E04  1489      	ANDWF gbl_lata, W
0E06  6E80      	MOVWF gbl_porta
0E08            label141
0E08  6A57      	CLRF FCD_04071__00059_23_ptmp
0E0A  9692      	BCF gbl_trisa,3
0E0C  5257      	MOVF FCD_04071__00059_23_ptmp, F
0E0E  E004      	BZ	label142
0E10  0E08      	MOVLW 0x08
0E12  1089      	IORWF gbl_lata, W
0E14  6E80      	MOVWF gbl_porta
0E16  D003      	BRA	label143
0E18            label142
0E18  0EF7      	MOVLW 0xF7
0E1A  1489      	ANDWF gbl_lata, W
0E1C  6E80      	MOVWF gbl_porta
0E1E            label143
0E1E  6A57      	CLRF FCD_04071__00059_30_ptmp
0E20  9892      	BCF gbl_trisa,4
0E22  5257      	MOVF FCD_04071__00059_30_ptmp, F
0E24  E004      	BZ	label144
0E26  0E10      	MOVLW 0x10
0E28  1089      	IORWF gbl_lata, W
0E2A  6E80      	MOVWF gbl_porta
0E2C  D003      	BRA	label145
0E2E            label144
0E2E  0EEF      	MOVLW 0xEF
0E30  1489      	ANDWF gbl_lata, W
0E32  6E80      	MOVWF gbl_porta
0E34            label145
0E34  6A57      	CLRF FCD_04071__00059_37_ptmp
0E36  9A92      	BCF gbl_trisa,5
0E38  5257      	MOVF FCD_04071__00059_37_ptmp, F
0E3A  E004      	BZ	label146
0E3C  0E20      	MOVLW 0x20
0E3E  1089      	IORWF gbl_lata, W
0E40  6E80      	MOVWF gbl_porta
0E42  D003      	BRA	label147
0E44            label146
0E44  0EDF      	MOVLW 0xDF
0E46  1489      	ANDWF gbl_lata, W
0E48  6E80      	MOVWF gbl_porta
0E4A            label147
0E4A  0E0C      	MOVLW 0x0C
0E4C  6E6C      	MOVWF delay_ms_00000_arg_del
0E4E  EC0BF000  	CALL delay_ms_00000
0E52  0E33      	MOVLW 0x33
0E54  6E67      	MOVWF FCD_04071__00066_arg_FCL_DATA
0E56  9068      	BCF FCD_04071__00066_arg_FCL_TYPE,0
0E58  EC1AF002  	CALL FCD_04071__00066
0E5C  0E02      	MOVLW 0x02
0E5E  6E6C      	MOVWF delay_ms_00000_arg_del
0E60  EC0BF000  	CALL delay_ms_00000
0E64  0E33      	MOVLW 0x33
0E66  6E67      	MOVWF FCD_04071__00066_arg_FCL_DATA
0E68  9068      	BCF FCD_04071__00066_arg_FCL_TYPE,0
0E6A  EC1AF002  	CALL FCD_04071__00066
0E6E  0E02      	MOVLW 0x02
0E70  6E6C      	MOVWF delay_ms_00000_arg_del
0E72  EC0BF000  	CALL delay_ms_00000
0E76  0E32      	MOVLW 0x32
0E78  6E67      	MOVWF FCD_04071__00066_arg_FCL_DATA
0E7A  9068      	BCF FCD_04071__00066_arg_FCL_TYPE,0
0E7C  EC1AF002  	CALL FCD_04071__00066
0E80  0E02      	MOVLW 0x02
0E82  6E6C      	MOVWF delay_ms_00000_arg_del
0E84  EC0BF000  	CALL delay_ms_00000
0E88  0E2C      	MOVLW 0x2C
0E8A  6E67      	MOVWF FCD_04071__00066_arg_FCL_DATA
0E8C  9068      	BCF FCD_04071__00066_arg_FCL_TYPE,0
0E8E  EC1AF002  	CALL FCD_04071__00066
0E92  0E02      	MOVLW 0x02
0E94  6E6C      	MOVWF delay_ms_00000_arg_del
0E96  EC0BF000  	CALL delay_ms_00000
0E9A  0E06      	MOVLW 0x06
0E9C  6E67      	MOVWF FCD_04071__00066_arg_FCL_DATA
0E9E  9068      	BCF FCD_04071__00066_arg_FCL_TYPE,0
0EA0  EC1AF002  	CALL FCD_04071__00066
0EA4  0E02      	MOVLW 0x02
0EA6  6E6C      	MOVWF delay_ms_00000_arg_del
0EA8  EC0BF000  	CALL delay_ms_00000
0EAC  0E0C      	MOVLW 0x0C
0EAE  6E67      	MOVWF FCD_04071__00066_arg_FCL_DATA
0EB0  9068      	BCF FCD_04071__00066_arg_FCL_TYPE,0
0EB2  EC1AF002  	CALL FCD_04071__00066
0EB6  0E02      	MOVLW 0x02
0EB8  6E6C      	MOVWF delay_ms_00000_arg_del
0EBA  EC0BF000  	CALL delay_ms_00000
0EBE  0E01      	MOVLW 0x01
0EC0  6E67      	MOVWF FCD_04071__00066_arg_FCL_DATA
0EC2  9068      	BCF FCD_04071__00066_arg_FCL_TYPE,0
0EC4  EC1AF002  	CALL FCD_04071__00066
0EC8  0E02      	MOVLW 0x02
0ECA  6E6C      	MOVWF delay_ms_00000_arg_del
0ECC  EC0BF000  	CALL delay_ms_00000
0ED0  0E02      	MOVLW 0x02
0ED2  6E67      	MOVWF FCD_04071__00066_arg_FCL_DATA
0ED4  9068      	BCF FCD_04071__00066_arg_FCL_TYPE,0
0ED6  EC1AF002  	CALL FCD_04071__00066
0EDA  0E02      	MOVLW 0x02
0EDC  6E6C      	MOVWF delay_ms_00000_arg_del
0EDE  EC0BF000  	CALL delay_ms_00000
0EE2  ECCEF004  	CALL FCD_04071__00057
0EE6  0012      	RETURN
0EE8            ; } FCD_04071_LCD__Start function end

	ORG 0x00000EE8
0EE8            FCD_04071__00056
0EE8            ; { FCD_04071_LCD__PrintString ; function begin
0EE8  6A65      	CLRF FCD_04071__00056_1_FCL_IDX
0EEA  5059      	MOVF FCD_04071__00056_arg_FCL_TEXT, W
0EEC  6E7E      	MOVWF FCI_GETLEN_0003E_arg_sStr1
0EEE  505A      	MOVF FCD_04071__00056_arg_FCL_TEXT+D'1', W
0EF0  6E7F      	MOVWF FCI_GETLEN_0003E_arg_sStr1+D'1'
0EF2  5063      	MOVF FCD_04071__00056_arg_FCLsz_TEXT, W
0EF4  0100      	MOVLB 0x00
0EF6  6F94      	MOVWF FCI_GETLEN_0003E_arg_iStr1_len, 1
0EF8  ECB8F000  	CALL FCI_GETLEN_0003E
0EFC  5196      	MOVF CompTempVarRet1853, W, 1
0EFE  6E66      	MOVWF FCD_04071__00056_1_FCL_COUNT
0F00            label148
0F00  5066      	MOVF FCD_04071__00056_1_FCL_COUNT, W
0F02  6065      	CPFSLT FCD_04071__00056_1_FCL_IDX
0F04  0012      	RETURN
0F06  505A      	MOVF FCD_04071__00056_arg_FCL_TEXT+D'1', W
0F08  6EEA      	MOVWF FSR0H
0F0A  5059      	MOVF FCD_04071__00056_arg_FCL_TEXT, W
0F0C  2465      	ADDWF FCD_04071__00056_1_FCL_IDX, W
0F0E  6EE9      	MOVWF FSR0L
0F10  50EF      	MOVF INDF0, W
0F12  6E67      	MOVWF FCD_04071__00066_arg_FCL_DATA
0F14  8068      	BSF FCD_04071__00066_arg_FCL_TYPE,0
0F16  EC1AF002  	CALL FCD_04071__00066
0F1A  2865      	INCF FCD_04071__00056_1_FCL_IDX, W
0F1C  6E65      	MOVWF FCD_04071__00056_1_FCL_IDX
0F1E  D7F0      	BRA	label148
0F20            ; } FCD_04071_LCD__PrintString function end

	ORG 0x00000F20
0F20            FCM_INTERU_0004E
0F20            ; { FCM_INTERUPT_GETTING_DATA ; function begin
0F20  6A58      	CLRF FCM_INTERU_0004E_1_FCL_DAT_00051
0F22  6A59      	CLRF CompTempVar2633
0F24  0E00      	MOVLW HIGH(CompTempVar2633+D'0')
0F26  0100      	MOVLB 0x00
0F28  6FA9      	MOVWF FCI_SCOPY_00000_arg_sSrc+D'1', 1
0F2A  0E59      	MOVLW LOW(CompTempVar2633+D'0')
0F2C  6FA8      	MOVWF FCI_SCOPY_00000_arg_sSrc, 1
0F2E  0E01      	MOVLW 0x01
0F30  6E5D      	MOVWF FCI_SCOPY_00000_arg_iSrc_len
0F32  0E04      	MOVLW HIGH(FCM_INTERU_0004E_1_FCL_REC_00050+D'0')
0F34  6FD0      	MOVWF FCI_SCOPY_00000_arg_sDst+D'1', 1
0F36  0E00      	MOVLW LOW(FCM_INTERU_0004E_1_FCL_REC_00050+D'0')
0F38  6FCF      	MOVWF FCI_SCOPY_00000_arg_sDst, 1
0F3A  685E      	SETF FCI_SCOPY_00000_arg_iDst_len
0F3C  EC84F003  	CALL FCI_SCOPY_00000
0F40  0E01      	MOVLW 0x01
0F42  6E59      	MOVWF FCD_0c851__00052_arg_FCL_TIMEOUT
0F44  ECBFF006  	CALL FCD_0c851__00052
0F48  505C      	MOVF CompTempVarRet2638, W
0F4A  6E57      	MOVWF FCM_INTERU_0004E_1_FCL_REC_0004F
0F4C  0E04      	MOVLW HIGH(FCM_INTERU_0004E_1_FCL_REC_00050+D'0')
0F4E  6E5A      	MOVWF FCD_0c851__00053_arg_FCR_RETVAL+D'1'
0F50  0E00      	MOVLW LOW(FCM_INTERU_0004E_1_FCL_REC_00050+D'0')
0F52  6E59      	MOVWF FCD_0c851__00053_arg_FCR_RETVAL
0F54  685B      	SETF FCD_0c851__00053_arg_FCRsz_00054
0F56  6A5C      	CLRF FCD_0c851__00053_arg_FCRsz_00054+D'1'
0F58  5057      	MOVF FCM_INTERU_0004E_1_FCL_REC_0004F, W
0F5A  6E5D      	MOVWF FCD_0c851__00053_arg_FCL_N_00055
0F5C  EC95F006  	CALL FCD_0c851__00053
0F60  0E04      	MOVLW HIGH(FCM_INTERU_0004E_1_FCL_REC_00050+D'0')
0F62  6E5A      	MOVWF FCD_04071__00056_arg_FCL_TEXT+D'1'
0F64  0E00      	MOVLW LOW(FCM_INTERU_0004E_1_FCL_REC_00050+D'0')
0F66  6E59      	MOVWF FCD_04071__00056_arg_FCL_TEXT
0F68  6863      	SETF FCD_04071__00056_arg_FCLsz_TEXT
0F6A  6A64      	CLRF FCD_04071__00056_arg_FCLsz_TEXT+D'1'
0F6C  EC74F007  	CALL FCD_04071__00056
0F70  0EF4      	MOVLW 0xF4
0F72  6E59      	MOVWF FCI_DELAYI_00039_arg_Delay
0F74  0E01      	MOVLW 0x01
0F76  6E5A      	MOVWF FCI_DELAYI_00039_arg_Delay+D'1'
0F78  EC06F005  	CALL FCI_DELAYI_00039
0F7C  ECCEF004  	CALL FCD_04071__00057
0F80  0012      	RETURN
0F82            ; } FCM_INTERUPT_GETTING_DATA function end

	ORG 0x00000F82
0F82            FCM_INITIA_00058
0F82            ; { FCM_INITIALISATION ; function begin
0F82  ECE3F006  	CALL FCD_04071__00059
0F86  EC06F006  	CALL FCD_0c851__0005A
0F8A  0E42      	MOVLW 0x42
0F8C  6E5B      	MOVWF CompTempVar2649
0F8E  0E6F      	MOVLW 0x6F
0F90  6E5C      	MOVWF CompTempVar2649+D'1'
0F92  6E5D      	MOVWF CompTempVar2649+D'2'
0F94  0E74      	MOVLW 0x74
0F96  6E5E      	MOVWF CompTempVar2649+D'3'
0F98  0E69      	MOVLW 0x69
0F9A  6E5F      	MOVWF CompTempVar2649+D'4'
0F9C  0E6E      	MOVLW 0x6E
0F9E  6E60      	MOVWF CompTempVar2649+D'5'
0FA0  0E67      	MOVLW 0x67
0FA2  6E61      	MOVWF CompTempVar2649+D'6'
0FA4  6A62      	CLRF CompTempVar2649+D'7'
0FA6  0E00      	MOVLW HIGH(CompTempVar2649+D'0')
0FA8  6E5A      	MOVWF FCD_04071__00056_arg_FCL_TEXT+D'1'
0FAA  0E5B      	MOVLW LOW(CompTempVar2649+D'0')
0FAC  6E59      	MOVWF FCD_04071__00056_arg_FCL_TEXT
0FAE  0E08      	MOVLW 0x08
0FB0  6E63      	MOVWF FCD_04071__00056_arg_FCLsz_TEXT
0FB2  6A64      	CLRF FCD_04071__00056_arg_FCLsz_TEXT+D'1'
0FB4  EC74F007  	CALL FCD_04071__00056
0FB8  0E01      	MOVLW 0x01
0FBA  6E57      	MOVWF FCD_0c851__0005B_arg_FCL_IDX
0FBC  EC21F005  	CALL FCD_0c851__0005B
0FC0  0E2E      	MOVLW 0x2E
0FC2  6E5B      	MOVWF CompTempVar2651
0FC4  6A5C      	CLRF CompTempVar2651+D'1'
0FC6  0E00      	MOVLW HIGH(CompTempVar2651+D'0')
0FC8  6E5A      	MOVWF FCD_04071__00056_arg_FCL_TEXT+D'1'
0FCA  0E5B      	MOVLW LOW(CompTempVar2651+D'0')
0FCC  6E59      	MOVWF FCD_04071__00056_arg_FCL_TEXT
0FCE  0E02      	MOVLW 0x02
0FD0  6E63      	MOVWF FCD_04071__00056_arg_FCLsz_TEXT
0FD2  6A64      	CLRF FCD_04071__00056_arg_FCLsz_TEXT+D'1'
0FD4  EC74F007  	CALL FCD_04071__00056
0FD8  0E02      	MOVLW 0x02
0FDA  6E57      	MOVWF FCD_0c851__0005B_arg_FCL_IDX
0FDC  EC21F005  	CALL FCD_0c851__0005B
0FE0  0E2E      	MOVLW 0x2E
0FE2  6E5B      	MOVWF CompTempVar2653
0FE4  6A5C      	CLRF CompTempVar2653+D'1'
0FE6  0E00      	MOVLW HIGH(CompTempVar2653+D'0')
0FE8  6E5A      	MOVWF FCD_04071__00056_arg_FCL_TEXT+D'1'
0FEA  0E5B      	MOVLW LOW(CompTempVar2653+D'0')
0FEC  6E59      	MOVWF FCD_04071__00056_arg_FCL_TEXT
0FEE  0E02      	MOVLW 0x02
0FF0  6E63      	MOVWF FCD_04071__00056_arg_FCLsz_TEXT
0FF2  6A64      	CLRF FCD_04071__00056_arg_FCLsz_TEXT+D'1'
0FF4  EC74F007  	CALL FCD_04071__00056
0FF8  ECE1F004  	CALL FCM_SET_AS_0005D
0FFC  0E2E      	MOVLW 0x2E
0FFE  6E5B      	MOVWF CompTempVar2655
1000  6A5C      	CLRF CompTempVar2655+D'1'
1002  0E00      	MOVLW HIGH(CompTempVar2655+D'0')
1004  6E5A      	MOVWF FCD_04071__00056_arg_FCL_TEXT+D'1'
1006  0E5B      	MOVLW LOW(CompTempVar2655+D'0')
1008  6E59      	MOVWF FCD_04071__00056_arg_FCL_TEXT
100A  0E02      	MOVLW 0x02
100C  6E63      	MOVWF FCD_04071__00056_arg_FCLsz_TEXT
100E  6A64      	CLRF FCD_04071__00056_arg_FCLsz_TEXT+D'1'
1010  EC74F007  	CALL FCD_04071__00056
1014  EFAEF008  	GOTO	label151
1018            ; } FCM_INITIALISATION function end

	ORG 0x00001018
1018            FCM_BT_CON_00063
1018            ; { FCM_BT_CONNECTION ; function begin
1018  0E41      	MOVLW 0x41
101A  6E57      	MOVWF CompTempVar2705
101C  6E59      	MOVWF CompTempVar2705+D'2'
101E  0E54      	MOVLW 0x54
1020  6E58      	MOVWF CompTempVar2705+D'1'
1022  6A5A      	CLRF CompTempVar2705+D'3'
1024  0E00      	MOVLW HIGH(CompTempVar2705+D'0')
1026  6E77      	MOVWF FCD_0c851__00064_arg_FCL_COMMAND+D'1'
1028  0E57      	MOVLW LOW(CompTempVar2705+D'0')
102A  6E76      	MOVWF FCD_0c851__00064_arg_FCL_COMMAND
102C  0E04      	MOVLW 0x04
102E  6E78      	MOVWF FCD_0c851__00064_arg_FCLsz_00065
1030  6A79      	CLRF FCD_0c851__00064_arg_FCLsz_00065+D'1'
1032  0E01      	MOVLW 0x01
1034  6E7A      	MOVWF FCD_0c851__00064_arg_FCL_SENDCR
1036  ECE2F001  	CALL FCD_0c851__00064
103A  507E      	MOVF CompTempVarRet2724, W
103C  6E53      	MOVWF gbl_FCV_RETURN_CMD
103E  0E03      	MOVLW 0x03
1040  6E57      	MOVWF delay_s_00000_arg_del
1042  EC33F000  	CALL delay_s_00000
1046            label149
1046  B051      	BTFSC gbl_FCV_CONN,0
1048  D051      	BRA	label150
104A  0E41      	MOVLW 0x41
104C  6E57      	MOVWF CompTempVar2707
104E  6E59      	MOVWF CompTempVar2707+D'2'
1050  0E54      	MOVLW 0x54
1052  6E58      	MOVWF CompTempVar2707+D'1'
1054  6A5A      	CLRF CompTempVar2707+D'3'
1056  0E00      	MOVLW HIGH(CompTempVar2707+D'0')
1058  6E77      	MOVWF FCD_0c851__00064_arg_FCL_COMMAND+D'1'
105A  0E57      	MOVLW LOW(CompTempVar2707+D'0')
105C  6E76      	MOVWF FCD_0c851__00064_arg_FCL_COMMAND
105E  0E04      	MOVLW 0x04
1060  6E78      	MOVWF FCD_0c851__00064_arg_FCLsz_00065
1062  6A79      	CLRF FCD_0c851__00064_arg_FCLsz_00065+D'1'
1064  0E01      	MOVLW 0x01
1066  6E7A      	MOVWF FCD_0c851__00064_arg_FCL_SENDCR
1068  ECE2F001  	CALL FCD_0c851__00064
106C  507E      	MOVF CompTempVarRet2724, W
106E  6E53      	MOVWF gbl_FCV_RETURN_CMD
1070  0E64      	MOVLW 0x64
1072  6E6C      	MOVWF delay_ms_00000_arg_del
1074  EC0BF000  	CALL delay_ms_00000
1078  0E41      	MOVLW 0x41
107A  6E57      	MOVWF CompTempVar2709
107C  0E54      	MOVLW 0x54
107E  6E58      	MOVWF CompTempVar2709+D'1'
1080  0E49      	MOVLW 0x49
1082  6E59      	MOVWF CompTempVar2709+D'2'
1084  0E39      	MOVLW 0x39
1086  6E5A      	MOVWF CompTempVar2709+D'3'
1088  6A5B      	CLRF CompTempVar2709+D'4'
108A  0E00      	MOVLW HIGH(CompTempVar2709+D'0')
108C  6E77      	MOVWF FCD_0c851__00064_arg_FCL_COMMAND+D'1'
108E  0E57      	MOVLW LOW(CompTempVar2709+D'0')
1090  6E76      	MOVWF FCD_0c851__00064_arg_FCL_COMMAND
1092  0E05      	MOVLW 0x05
1094  6E78      	MOVWF FCD_0c851__00064_arg_FCLsz_00065
1096  6A79      	CLRF FCD_0c851__00064_arg_FCLsz_00065+D'1'
1098  0E01      	MOVLW 0x01
109A  6E7A      	MOVWF FCD_0c851__00064_arg_FCL_SENDCR
109C  ECE2F001  	CALL FCD_0c851__00064
10A0  0E64      	MOVLW 0x64
10A2  6E6C      	MOVWF delay_ms_00000_arg_del
10A4  EC0BF000  	CALL delay_ms_00000
10A8  6A59      	CLRF FCD_0c851__00052_arg_FCL_TIMEOUT
10AA  ECBFF006  	CALL FCD_0c851__00052
10AE  505C      	MOVF CompTempVarRet2638, W
10B0  6E50      	MOVWF gbl_FCV_OCTET
10B2  0E03      	MOVLW HIGH(gbl_FCV_RETURN+D'0')
10B4  6E5A      	MOVWF FCD_0c851__00053_arg_FCR_RETVAL+D'1'
10B6  0E00      	MOVLW LOW(gbl_FCV_RETURN+D'0')
10B8  6E59      	MOVWF FCD_0c851__00053_arg_FCR_RETVAL
10BA  685B      	SETF FCD_0c851__00053_arg_FCRsz_00054
10BC  6A5C      	CLRF FCD_0c851__00053_arg_FCRsz_00054+D'1'
10BE  5050      	MOVF gbl_FCV_OCTET, W
10C0  6E5D      	MOVWF FCD_0c851__00053_arg_FCL_N_00055
10C2  EC95F006  	CALL FCD_0c851__00053
10C6  0101      	MOVLB 0x01
10C8  EE01F000  	LFSR 0x00, gbl_FCV_ASCII
10CC  50E9      	MOVF FSR0L, W
10CE  0103      	MOVLB 0x03
10D0  5100      	MOVF gbl_FCV_RETURN, W, 1
10D2  26E9      	ADDWF FSR0L, F
10D4  6A57      	CLRF CompTempVar2717
10D6  66EF      	TSTFSZ INDF0
10D8  8057      	BSF CompTempVar2717,0
10DA  9051      	BCF gbl_FCV_CONN,0
10DC  5057      	MOVF CompTempVar2717, W
10DE  A4D8      	BTFSS STATUS,Z
10E0  8051      	BSF gbl_FCV_CONN,0
10E2  0E01      	MOVLW 0x01
10E4  6E57      	MOVWF delay_s_00000_arg_del
10E6  EC33F000  	CALL delay_s_00000
10EA  D7AD      	BRA	label149
10EC            label150
10EC  0E2E      	MOVLW 0x2E
10EE  6E5B      	MOVWF CompTempVar2718
10F0  6A5C      	CLRF CompTempVar2718+D'1'
10F2  0E00      	MOVLW HIGH(CompTempVar2718+D'0')
10F4  6E5A      	MOVWF FCD_04071__00056_arg_FCL_TEXT+D'1'
10F6  0E5B      	MOVLW LOW(CompTempVar2718+D'0')
10F8  6E59      	MOVWF FCD_04071__00056_arg_FCL_TEXT
10FA  0E02      	MOVLW 0x02
10FC  6E63      	MOVWF FCD_04071__00056_arg_FCLsz_TEXT
10FE  6A64      	CLRF FCD_04071__00056_arg_FCLsz_TEXT+D'1'
1100  EC74F007  	CALL FCD_04071__00056
1104  0E41      	MOVLW 0x41
1106  6E57      	MOVWF CompTempVar2720
1108  0E54      	MOVLW 0x54
110A  6E58      	MOVWF CompTempVar2720+D'1'
110C  0E4F      	MOVLW 0x4F
110E  6E59      	MOVWF CompTempVar2720+D'2'
1110  6A5A      	CLRF CompTempVar2720+D'3'
1112  0E00      	MOVLW HIGH(CompTempVar2720+D'0')
1114  6E77      	MOVWF FCD_0c851__00064_arg_FCL_COMMAND+D'1'
1116  0E57      	MOVLW LOW(CompTempVar2720+D'0')
1118  6E76      	MOVWF FCD_0c851__00064_arg_FCL_COMMAND
111A  0E04      	MOVLW 0x04
111C  6E78      	MOVWF FCD_0c851__00064_arg_FCLsz_00065
111E  6A79      	CLRF FCD_0c851__00064_arg_FCLsz_00065+D'1'
1120  0E01      	MOVLW 0x01
1122  6E7A      	MOVWF FCD_0c851__00064_arg_FCL_SENDCR
1124  ECE2F001  	CALL FCD_0c851__00064
1128  0E2E      	MOVLW 0x2E
112A  6E5B      	MOVWF CompTempVar2722
112C  6A5C      	CLRF CompTempVar2722+D'1'
112E  0E00      	MOVLW HIGH(CompTempVar2722+D'0')
1130  6E5A      	MOVWF FCD_04071__00056_arg_FCL_TEXT+D'1'
1132  0E5B      	MOVLW LOW(CompTempVar2722+D'0')
1134  6E59      	MOVWF FCD_04071__00056_arg_FCL_TEXT
1136  0E02      	MOVLW 0x02
1138  6E63      	MOVWF FCD_04071__00056_arg_FCLsz_TEXT
113A  6A64      	CLRF FCD_04071__00056_arg_FCLsz_TEXT+D'1'
113C  EC74F007  	CALL FCD_04071__00056
1140  0EF4      	MOVLW 0xF4
1142  6E59      	MOVWF FCI_DELAYI_00039_arg_Delay
1144  0E01      	MOVLW 0x01
1146  6E5A      	MOVWF FCI_DELAYI_00039_arg_Delay+D'1'
1148  EC06F005  	CALL FCI_DELAYI_00039
114C  ECCEF004  	CALL FCD_04071__00057
1150  0012      	RETURN
1152            ; } FCM_BT_CONNECTION function end

	ORG 0x00001152
1152            main
1152            ; { main ; function begin
1152  0E0F      	MOVLW 0x0F
1154  6EC1      	MOVWF gbl_adcon1
1156  0E99      	MOVLW 0x99
1158  EFC1F007  	GOTO	FCM_INITIA_00058
115C            label151
115C  EC0CF008  	CALL FCM_BT_CON_00063
1160            label152
1160  EC90F007  	CALL FCM_INTERU_0004E
1164  D7FD      	BRA	label152
1166            ; } main function end

	ORG 0x00001166
1166            _startup
1166  0ED5      	MOVLW 0xD5
1168  6E2D      	MOVWF gbl_14_LSR
116A  0EC4      	MOVLW 0xC4
116C  6E2E      	MOVWF gbl_14_LSR+D'1'
116E  0EBB      	MOVLW 0xBB
1170  6E2F      	MOVWF gbl_14_LSR+D'2'
1172  0EDC      	MOVLW 0xDC
1174  6E30      	MOVWF gbl_14_LSR+D'3'
1176  6A31      	CLRF gbl_15_gbl_aSig
1178  6A32      	CLRF gbl_15_gbl_aSig+D'1'
117A  6A33      	CLRF gbl_15_gbl_aSig+D'2'
117C  6A34      	CLRF gbl_15_gbl_aSig+D'3'
117E  6A35      	CLRF gbl_15_gbl_bSig
1180  6A36      	CLRF gbl_15_gbl_bSig+D'1'
1182  6A37      	CLRF gbl_15_gbl_bSig+D'2'
1184  6A38      	CLRF gbl_15_gbl_bSig+D'3'
1186  6A39      	CLRF gbl_15_gbl_zSig
1188  6A3A      	CLRF gbl_15_gbl_zSig+D'1'
118A  6A3B      	CLRF gbl_15_gbl_zSig+D'2'
118C  6A3C      	CLRF gbl_15_gbl_zSig+D'3'
118E  6A46      	CLRF gbl_15_gbl_aExp
1190  6A47      	CLRF gbl_15_gbl_bExp
1192  6A41      	CLRF gbl_15_gbl_zExp
1194  6A42      	CLRF gbl_15_gbl_zExp+D'1'
1196  6A48      	CLRF gbl_15_gbl_aSign
1198  6A49      	CLRF gbl_15_gbl_bSign
119A  6A4A      	CLRF gbl_15_gbl_zSign
119C  6A4B      	CLRF gbl_15_gbl_zSigZero
119E  6A3D      	CLRF gbl_15_gbl_ret
11A0  6A3E      	CLRF gbl_15_gbl_ret+D'1'
11A2  6A3F      	CLRF gbl_15_gbl_ret+D'2'
11A4  6A40      	CLRF gbl_15_gbl_ret+D'3'
11A6  6A44      	CLRF gbl_float_rounding_mode
11A8  6A45      	CLRF gbl_float_exception_flags
11AA  6A43      	CLRF gbl_float_detect_tininess
11AC  6A4C      	CLRF gbl_FCV_INTER_DATA_LOOP
11AE  6A4D      	CLRF CompGblVar60
11B0  0E00      	MOVLW HIGH(CompGblVar60+D'0')
11B2  6E4F      	MOVWF CompGblVar62
11B4  0E4D      	MOVLW LOW(CompGblVar60+D'0')
11B6  6E4E      	MOVWF CompGblVar61
11B8  504E      	MOVF CompGblVar61, W
11BA  0102      	MOVLB 0x02
11BC  6F00      	MOVWF gbl_FCV_INTER_SORTED_DATA, 1
11BE  504F      	MOVF CompGblVar62, W
11C0  6F01      	MOVWF gbl_FCV_INTER_SORTED_DATA+D'1', 1
11C2  9051      	BCF gbl_FCV_CONN,0
11C4  0EA5      	MOVLW 0xA5
11C6  6E52      	MOVWF gbl_FCV_BT_STATE
11C8  6A54      	CLRF gbl_FCV_0c851_Bluetooth2__RX_IDX
11CA  6A55      	CLRF gbl_FCV_0c851_Bluetooth2___00001
11CC  6A56      	CLRF gbl_FCV_0c851_Bluetooth2___00002
11CE  EFA9F008  	GOTO	main
	ORG 0x000011D2
11D2            interrupt
11D2            ; { interrupt ; function begin
11D2  CFEAF001  	MOVFF FSR0H,  Int1Context
11D6  CFE9F002  	MOVFF FSR0L,  Int1Context+D'1'
11DA  CFF4F003  	MOVFF PRODH,  Int1Context+D'2'
11DE  CFF3F004  	MOVFF PRODL,  Int1Context+D'3'
11E2  0E20      	MOVLW 0x20
11E4  149E      	ANDWF gbl_pir1, W
11E6  0100      	MOVLB 0x00
11E8  6FD3      	MOVWF CompTempVar2787, 1
11EA  0E20      	MOVLW 0x20
11EC  149D      	ANDWF gbl_pie1, W
11EE  6FD2      	MOVWF CompTempVar2786, 1
11F0  6BD1      	CLRF interrupt_1_FCL_BT_IN, 1
11F2  53D2      	MOVF CompTempVar2786, F, 1
11F4  A4D8      	BTFSS STATUS,Z
11F6  53D3      	MOVF CompTempVar2787, F, 1
11F8  A4D8      	BTFSS STATUS,Z
11FA  2BD1      	INCF interrupt_1_FCL_BT_IN, F, 1
11FC  53D1      	MOVF interrupt_1_FCL_BT_IN, F, 1
11FE  E022      	BZ	label156
1200  0E01      	MOVLW 0x01
1202  6FD2      	MOVWF FC_CAL_UAR_00076_arg_nTimeout, 1
1204  EC46F000  	CALL FC_CAL_UAR_00076
1208  51DB      	MOVF CompTempVarRet2754, W, 1
120A  6FD1      	MOVWF interrupt_1_FCL_BT_IN, 1
120C  5255      	MOVF gbl_FCV_0c851_Bluetooth2___00001, F
120E  E119      	BNZ	label155
1210  0E28      	MOVLW 0x28
1212  6056      	CPFSLT gbl_FCV_0c851_Bluetooth2___00002
1214  D016      	BRA	label155
1216  0E0A      	MOVLW 0x0A
1218  63D1      	CPFSEQ interrupt_1_FCL_BT_IN, 1
121A  D00A      	BRA	label154
121C  0E01      	MOVLW 0x01
121E  6E55      	MOVWF gbl_FCV_0c851_Bluetooth2___00001
1220  EE00F005  	LFSR 0x00, gbl_FCV_0c851_Bluetooth2___00000
1224  50E9      	MOVF FSR0L, W
1226  5056      	MOVF gbl_FCV_0c851_Bluetooth2___00002, W
1228  26E9      	ADDWF FSR0L, F
122A  0E00      	MOVLW 0x00
122C  6EEF      	MOVWF INDF0
122E  D009      	BRA	label155
1230            label154
1230  EE00F005  	LFSR 0x00, gbl_FCV_0c851_Bluetooth2___00000
1234  50E9      	MOVF FSR0L, W
1236  5056      	MOVF gbl_FCV_0c851_Bluetooth2___00002, W
1238  26E9      	ADDWF FSR0L, F
123A  51D1      	MOVF interrupt_1_FCL_BT_IN, W, 1
123C  6EEF      	MOVWF INDF0
123E  2856      	INCF gbl_FCV_0c851_Bluetooth2___00002, W
1240  6E56      	MOVWF gbl_FCV_0c851_Bluetooth2___00002
1242            label155
1242  9A9E      	BCF gbl_pir1,5
1244            label156
1244  C004FFF3  	MOVFF Int1Context+D'3',  PRODL
1248  C003FFF4  	MOVFF Int1Context+D'2',  PRODH
124C  C002FFE9  	MOVFF Int1Context+D'1',  FSR0L
1250  C001FFEA  	MOVFF Int1Context,  FSR0H
1254  0011      	RETFIE 1
1256            ; } interrupt function end

	ORG 0x00300000
300000  32FF      	DW 0x32FF
300002  FEF9      	DW 0xFEF9
300004  78FF      	DW 0x78FF
300006  FFBA      	DW 0xFFBA
300008  FFFF      	DW 0xFFFF
30000A  FFFF      	DW 0xFFFF
30000C  FFFF      	DW 0xFFFF
