;/////////////////////////////////////////////////////////////////////////////////
;// Code Generator: BoostC Compiler - http://www.sourceboost.com
;// Version       : 7.20
;// License Type  : Pro License
;// Limitations   : PIC18 max code size:Unlimited, max RAM banks:Unlimited
;/////////////////////////////////////////////////////////////////////////////////

	ORG 0x00000000
0000  EF18F009  	GOTO	_startup
	ORG 0x00000008
0008  EF42F009  	GOTO	interrupt
	ORG 0x0000000C
000C            delay_us_00000
000C            ; { delay_us ; function begin
000C            label1
000C  0000      	NOP
000E  0000      	NOP
0010  2FAD      	DECFSZ delay_us_00000_arg_del, F, 1
0012  D7FC      	BRA	label1
0014  0012      	RETURN
0016            ; } delay_us function end

	ORG 0x00000016
0016            delay_ms_00000
0016            ; { delay_ms ; function begin
0016  5270      	MOVF delay_ms_00000_arg_del, F
0018  0000      	NOP
001A  E101      	BNZ	label2
001C  0012      	RETURN
001E            label2
001E  0EF5      	MOVLW 0xF5
0020            label3
0020  0000      	NOP
0022  0000      	NOP
0024  0000      	NOP
0026  0000      	NOP
0028  0000      	NOP
002A  0000      	NOP
002C  0000      	NOP
002E  0000      	NOP
0030  0000      	NOP
0032  0000      	NOP
0034  0000      	NOP
0036  0000      	NOP
0038  0000      	NOP
003A  0000      	NOP
003C  0000      	NOP
003E  0000      	NOP
0040  0FFF      	ADDLW 0xFF
0042  A4D8      	BTFSS STATUS,Z
0044  D7ED      	BRA	label3
0046  0000      	NOP
0048  0000      	NOP
004A  0000      	NOP
004C  0000      	NOP
004E  0000      	NOP
0050  0000      	NOP
0052  0000      	NOP
0054  0000      	NOP
0056  0000      	NOP
0058  0000      	NOP
005A  0000      	NOP
005C  0000      	NOP
005E  0000      	NOP
0060  2E70      	DECFSZ delay_ms_00000_arg_del, F
0062  D7DD      	BRA	label2
0064  0012      	RETURN
0066            ; } delay_ms function end

	ORG 0x00000066
0066            delay_s_00000
0066            ; { delay_s ; function begin
0066            label4
0066  0EFA      	MOVLW 0xFA
0068  6E70      	MOVWF delay_ms_00000_arg_del
006A  EC0BF000  	CALL delay_ms_00000
006E  0EFA      	MOVLW 0xFA
0070  6E70      	MOVWF delay_ms_00000_arg_del
0072  EC0BF000  	CALL delay_ms_00000
0076  0EFA      	MOVLW 0xFA
0078  6E70      	MOVWF delay_ms_00000_arg_del
007A  EC0BF000  	CALL delay_ms_00000
007E  0EFA      	MOVLW 0xFA
0080  6E70      	MOVWF delay_ms_00000_arg_del
0082  EC0BF000  	CALL delay_ms_00000
0086  2E5B      	DECFSZ delay_s_00000_arg_del, F
0088  D7EE      	BRA	label4
008A  0012      	RETURN
008C            ; } delay_s function end

	ORG 0x0000008C
008C            FC_CAL_UAR_00074
008C            ; { FC_CAL_UART_Receive_1 ; function begin
008C  69D6      	SETF FC_CAL_UAR_00074_1_retVal, 1
008E  6BD7      	CLRF FC_CAL_UAR_00074_1_delay1, 1
0090  6BD8      	CLRF FC_CAL_UAR_00074_1_regcheck, 1
0092  6BD9      	CLRF FC_CAL_UAR_00074_1_bWaitForever, 1
0094  6BDA      	CLRF FC_CAL_UAR_00074_1_rxStatus, 1
0096  6BDD      	CLRF FC_CAL_UAR_00074_1_dummy, 1
0098  29D5      	INCF FC_CAL_UAR_00074_arg_nTimeout, W, 1
009A  E102      	BNZ	label5
009C  0E01      	MOVLW 0x01
009E  6FD9      	MOVWF FC_CAL_UAR_00074_1_bWaitForever, 1
00A0            label5
00A0  53DA      	MOVF FC_CAL_UAR_00074_1_rxStatus, F, 1
00A2  E124      	BNZ	label10
00A4  53D9      	MOVF FC_CAL_UAR_00074_1_bWaitForever, F, 1
00A6  E118      	BNZ	label9
00A8  53D5      	MOVF FC_CAL_UAR_00074_arg_nTimeout, F, 1
00AA  E103      	BNZ	label6
00AC  0E01      	MOVLW 0x01
00AE  6FDA      	MOVWF FC_CAL_UAR_00074_1_rxStatus, 1
00B0  D013      	BRA	label9
00B2            label6
00B2  6BDB      	CLRF FC_CAL_UAR_00074_1_delaycnt, 1
00B4  6BDC      	CLRF FC_CAL_UAR_00074_1_delaycnt+D'1', 1
00B6            label7
00B6  0E31      	MOVLW 0x31
00B8  5DDB      	SUBWF FC_CAL_UAR_00074_1_delaycnt, W, 1
00BA  E205      	BC	label8
00BC  67DC      	TSTFSZ FC_CAL_UAR_00074_1_delaycnt+D'1', 1
00BE  D003      	BRA	label8
00C0  4BDB      	INFSNZ FC_CAL_UAR_00074_1_delaycnt, F, 1
00C2  2BDC      	INCF FC_CAL_UAR_00074_1_delaycnt+D'1', F, 1
00C4  D7F8      	BRA	label7
00C6            label8
00C6  29D7      	INCF FC_CAL_UAR_00074_1_delay1, W, 1
00C8  6FD7      	MOVWF FC_CAL_UAR_00074_1_delay1, 1
00CA  0E64      	MOVLW 0x64
00CC  63D7      	CPFSEQ FC_CAL_UAR_00074_1_delay1, 1
00CE  D004      	BRA	label9
00D0  05D5      	DECF FC_CAL_UAR_00074_arg_nTimeout, W, 1
00D2  6FD5      	MOVWF FC_CAL_UAR_00074_arg_nTimeout, 1
00D4  0004      	CLRWDT
00D6  6BD7      	CLRF FC_CAL_UAR_00074_1_delay1, 1
00D8            label9
00D8  0E20      	MOVLW 0x20
00DA  149E      	ANDWF gbl_pir1, W
00DC  6FDE      	MOVWF CompTempVar2729, 1
00DE  51DE      	MOVF CompTempVar2729, W, 1
00E0  6FD8      	MOVWF FC_CAL_UAR_00074_1_regcheck, 1
00E2  53D8      	MOVF FC_CAL_UAR_00074_1_regcheck, F, 1
00E4  E0DD      	BZ	label5
00E6  0E02      	MOVLW 0x02
00E8  6FDA      	MOVWF FC_CAL_UAR_00074_1_rxStatus, 1
00EA  D7DA      	BRA	label5
00EC            label10
00EC  0E02      	MOVLW 0x02
00EE  63DA      	CPFSEQ FC_CAL_UAR_00074_1_rxStatus, 1
00F0  D018      	BRA	label13
00F2  0E04      	MOVLW 0x04
00F4  14AB      	ANDWF gbl_rcsta, W
00F6  6FDE      	MOVWF CompTempVar2730, 1
00F8  51DE      	MOVF CompTempVar2730, W, 1
00FA  6FD8      	MOVWF FC_CAL_UAR_00074_1_regcheck, 1
00FC  53D8      	MOVF FC_CAL_UAR_00074_1_regcheck, F, 1
00FE  E003      	BZ	label11
0100  50AE      	MOVF gbl_rcreg, W
0102  6FDD      	MOVWF FC_CAL_UAR_00074_1_dummy, 1
0104  D00E      	BRA	label13
0106            label11
0106  0E02      	MOVLW 0x02
0108  14AB      	ANDWF gbl_rcsta, W
010A  6FDE      	MOVWF CompTempVar2731, 1
010C  51DE      	MOVF CompTempVar2731, W, 1
010E  6FD8      	MOVWF FC_CAL_UAR_00074_1_regcheck, 1
0110  53D8      	MOVF FC_CAL_UAR_00074_1_regcheck, F, 1
0112  E003      	BZ	label12
0114  98AB      	BCF gbl_rcsta,4
0116  88AB      	BSF gbl_rcsta,4
0118  D004      	BRA	label13
011A            label12
011A  6BD6      	CLRF FC_CAL_UAR_00074_1_retVal, 1
011C  50AE      	MOVF gbl_rcreg, W
011E  11D6      	IORWF FC_CAL_UAR_00074_1_retVal, W, 1
0120  6FD6      	MOVWF FC_CAL_UAR_00074_1_retVal, 1
0122            label13
0122  51D6      	MOVF FC_CAL_UAR_00074_1_retVal, W, 1
0124  6FDE      	MOVWF CompTempVarRet2728, 1
0126  6BDF      	CLRF CompTempVarRet2728+D'1', 1
0128  0012      	RETURN
012A            ; } FC_CAL_UART_Receive_1 function end

	ORG 0x0000012A
012A            FCI_DELAYI_00038
012A            ; { FCI_DELAYINT_US ; function begin
012A            label14
012A  0EFF      	MOVLW 0xFF
012C  65AB      	CPFSGT FCI_DELAYI_00038_arg_Delay, 1
012E  67AC      	TSTFSZ FCI_DELAYI_00038_arg_Delay+D'1', 1
0130  D001      	BRA	label15
0132  D00C      	BRA	label16
0134            label15
0134  69AD      	SETF delay_us_00000_arg_del, 1
0136  EC06F000  	CALL delay_us_00000
013A  0EFF      	MOVLW 0xFF
013C  5DAB      	SUBWF FCI_DELAYI_00038_arg_Delay, W, 1
013E  6FAD      	MOVWF CompTempVar1836, 1
0140  59AB      	SUBWFB FCI_DELAYI_00038_arg_Delay, W, 1
0142  08FF      	SUBLW 0xFF
0144  5FAC      	SUBWF FCI_DELAYI_00038_arg_Delay+D'1', F, 1
0146  51AD      	MOVF CompTempVar1836, W, 1
0148  6FAB      	MOVWF FCI_DELAYI_00038_arg_Delay, 1
014A  D7EF      	BRA	label14
014C            label16
014C  0E00      	MOVLW 0x00
014E  65AB      	CPFSGT FCI_DELAYI_00038_arg_Delay, 1
0150  67AC      	TSTFSZ FCI_DELAYI_00038_arg_Delay+D'1', 1
0152  D001      	BRA	label17
0154  0012      	RETURN
0156            label17
0156  51AB      	MOVF FCI_DELAYI_00038_arg_Delay, W, 1
0158  6FAD      	MOVWF delay_us_00000_arg_del, 1
015A  EC06F000  	CALL delay_us_00000
015E  0012      	RETURN
0160            ; } FCI_DELAYINT_US function end

	ORG 0x00000160
0160            FC_CAL_UAR_00075
0160            ; { FC_CAL_UART_Send_1 ; function begin
0160            label18
0160  0E10      	MOVLW 0x10
0162  149E      	ANDWF gbl_pir1, W
0164  6FAA      	MOVWF CompTempVar2732, 1
0166  53AA      	MOVF CompTempVar2732, F, 1
0168  E0FB      	BZ	label18
016A  51A8      	MOVF FC_CAL_UAR_00075_arg_nChar, W, 1
016C  6EAD      	MOVWF gbl_txreg
016E  0012      	RETURN
0170            ; } FC_CAL_UART_Send_1 function end

	ORG 0x00000170
0170            FCI_GETLEN_0003E
0170            ; { FCI_GETLENGTH ; function begin
0170  6B99      	CLRF FCI_GETLEN_0003E_1_tmp, 1
0172            label19
0172  5198      	MOVF FCI_GETLEN_0003E_arg_iStr1_len, W, 1
0174  6199      	CPFSLT FCI_GETLEN_0003E_1_tmp, 1
0176  D009      	BRA	label20
0178  5197      	MOVF FCI_GETLEN_0003E_arg_sStr1+D'1', W, 1
017A  6EEA      	MOVWF FSR0H
017C  5196      	MOVF FCI_GETLEN_0003E_arg_sStr1, W, 1
017E  2599      	ADDWF FCI_GETLEN_0003E_1_tmp, W, 1
0180  6EE9      	MOVWF FSR0L
0182  52EF      	MOVF INDF0, F
0184  E002      	BZ	label20
0186  2B99      	INCF FCI_GETLEN_0003E_1_tmp, F, 1
0188  D7F4      	BRA	label19
018A            label20
018A  5199      	MOVF FCI_GETLEN_0003E_1_tmp, W, 1
018C  6F9A      	MOVWF CompTempVarRet1850, 1
018E  0012      	RETURN
0190            ; } FCI_GETLENGTH function end

	ORG 0x00000190
0190            FCD_0c851__0007B
0190            ; { FCD_0c851_Bluetooth2__StringReceive ; function begin
0190  0100      	MOVLB 0x00
0192  6BA8      	CLRF FCD_0c851__0007B_1_FCL_TOUT, 1
0194  6BA9      	CLRF FCD_0c851__0007B_1_FCL_LEN, 1
0196  505A      	MOVF gbl_FCV_0c851_Bluetooth2___00002, W
0198  6FA9      	MOVWF FCD_0c851__0007B_1_FCL_LEN, 1
019A  6A59      	CLRF gbl_FCV_0c851_Bluetooth2___00001
019C  6A5A      	CLRF gbl_FCV_0c851_Bluetooth2___00002
019E  6A58      	CLRF gbl_FCV_0c851_Bluetooth2__RX_IDX
01A0            label21
01A0  5259      	MOVF gbl_FCV_0c851_Bluetooth2___00001, F
01A2  E113      	BNZ	label23
01A4  0EFF      	MOVLW 0xFF
01A6  61A8      	CPFSLT FCD_0c851__0007B_1_FCL_TOUT, 1
01A8  D010      	BRA	label23
01AA  29A8      	INCF FCD_0c851__0007B_1_FCL_TOUT, W, 1
01AC  6FA8      	MOVWF FCD_0c851__0007B_1_FCL_TOUT, 1
01AE  505A      	MOVF gbl_FCV_0c851_Bluetooth2___00002, W
01B0  63A9      	CPFSEQ FCD_0c851__0007B_1_FCL_LEN, 1
01B2  625A      	CPFSEQ gbl_FCV_0c851_Bluetooth2___00002
01B4  D003      	BRA	label22
01B6  6BA8      	CLRF FCD_0c851__0007B_1_FCL_TOUT, 1
01B8  505A      	MOVF gbl_FCV_0c851_Bluetooth2___00002, W
01BA  6FA9      	MOVWF FCD_0c851__0007B_1_FCL_LEN, 1
01BC            label22
01BC  0EF4      	MOVLW 0xF4
01BE  6FAB      	MOVWF FCI_DELAYI_00038_arg_Delay, 1
01C0  0E01      	MOVLW 0x01
01C2  6FAC      	MOVWF FCI_DELAYI_00038_arg_Delay+D'1', 1
01C4  EC95F000  	CALL FCI_DELAYI_00038
01C8  D7EB      	BRA	label21
01CA            label23
01CA  29A8      	INCF FCD_0c851__0007B_1_FCL_TOUT, W, 1
01CC  E104      	BNZ	label24
01CE  6A59      	CLRF gbl_FCV_0c851_Bluetooth2___00001
01D0  6A5A      	CLRF gbl_FCV_0c851_Bluetooth2___00002
01D2  6BAA      	CLRF FCD_0c851__0007B_1_FCR_RETVAL, 1
01D4  D002      	BRA	label25
01D6            label24
01D6  0E01      	MOVLW 0x01
01D8  6FAA      	MOVWF FCD_0c851__0007B_1_FCR_RETVAL, 1
01DA            label25
01DA  51AA      	MOVF FCD_0c851__0007B_1_FCR_RETVAL, W, 1
01DC  6FAB      	MOVWF CompTempVarRet2742, 1
01DE  0012      	RETURN
01E0            ; } FCD_0c851_Bluetooth2__StringReceive function end

	ORG 0x000001E0
01E0            FCI_SHEAD_00000
01E0            ; { FCI_SHEAD ; function begin
01E0  6BA0      	CLRF FCI_SHEAD_00000_1_len, 1
01E2  519D      	MOVF FCI_SHEAD_00000_arg_sDst, W, 1
01E4  627D      	CPFSEQ FCI_SHEAD_00000_arg_sSrc2
01E6  D08C      	BRA	label37
01E8  519E      	MOVF FCI_SHEAD_00000_arg_sDst+D'1', W, 1
01EA  627E      	CPFSEQ FCI_SHEAD_00000_arg_sSrc2+D'1'
01EC  D089      	BRA	label37
01EE  6BA1      	CLRF FCI_SHEAD_00000_1_strt, 1
01F0            label26
01F0  507C      	MOVF FCI_SHEAD_00000_arg_iSrc1_len, W
01F2  61A1      	CPFSLT FCI_SHEAD_00000_1_strt, 1
01F4  D009      	BRA	label27
01F6  507B      	MOVF FCI_SHEAD_00000_arg_sSrc1+D'1', W
01F8  6EEA      	MOVWF FSR0H
01FA  507A      	MOVF FCI_SHEAD_00000_arg_sSrc1, W
01FC  25A1      	ADDWF FCI_SHEAD_00000_1_strt, W, 1
01FE  6EE9      	MOVWF FSR0L
0200  52EF      	MOVF INDF0, F
0202  E002      	BZ	label27
0204  2BA1      	INCF FCI_SHEAD_00000_1_strt, F, 1
0206  D7F4      	BRA	label26
0208            label27
0208  519F      	MOVF FCI_SHEAD_00000_arg_iDst_len, W, 1
020A  61A1      	CPFSLT FCI_SHEAD_00000_1_strt, 1
020C  D058      	BRA	label35
020E  6BA0      	CLRF FCI_SHEAD_00000_1_len, 1
0210            label28
0210  507F      	MOVF FCI_SHEAD_00000_arg_iSrc2_len, W
0212  61A0      	CPFSLT FCI_SHEAD_00000_1_len, 1
0214  D009      	BRA	label29
0216  507E      	MOVF FCI_SHEAD_00000_arg_sSrc2+D'1', W
0218  6EEA      	MOVWF FSR0H
021A  507D      	MOVF FCI_SHEAD_00000_arg_sSrc2, W
021C  25A0      	ADDWF FCI_SHEAD_00000_1_len, W, 1
021E  6EE9      	MOVWF FSR0L
0220  52EF      	MOVF INDF0, F
0222  E002      	BZ	label29
0224  2BA0      	INCF FCI_SHEAD_00000_1_len, F, 1
0226  D7F4      	BRA	label28
0228            label29
0228  51A1      	MOVF FCI_SHEAD_00000_1_strt, W, 1
022A  5D9F      	SUBWF FCI_SHEAD_00000_arg_iDst_len, W, 1
022C  6FA2      	MOVWF CompTempVar2023, 1
022E  51A0      	MOVF FCI_SHEAD_00000_1_len, W, 1
0230  61A2      	CPFSLT CompTempVar2023, 1
0232  D005      	BRA	label30
0234  51A1      	MOVF FCI_SHEAD_00000_1_strt, W, 1
0236  5D9F      	SUBWF FCI_SHEAD_00000_arg_iDst_len, W, 1
0238  6FA3      	MOVWF CompTempVar2029, 1
023A  51A3      	MOVF CompTempVar2029, W, 1
023C  6FA0      	MOVWF FCI_SHEAD_00000_1_len, 1
023E            label30
023E  51A0      	MOVF FCI_SHEAD_00000_1_len, W, 1
0240  25A1      	ADDWF FCI_SHEAD_00000_1_strt, W, 1
0242  6E7F      	MOVWF FCI_SHEAD_00000_arg_iSrc2_len
0244  51A0      	MOVF FCI_SHEAD_00000_1_len, W, 1
0246  6FA1      	MOVWF FCI_SHEAD_00000_1_strt, 1
0248            label31
0248  0E00      	MOVLW 0x00
024A  65A1      	CPFSGT FCI_SHEAD_00000_1_strt, 1
024C  D014      	BRA	label32
024E  07A1      	DECF FCI_SHEAD_00000_1_strt, F, 1
0250  067F      	DECF FCI_SHEAD_00000_arg_iSrc2_len, F
0252  507E      	MOVF FCI_SHEAD_00000_arg_sSrc2+D'1', W
0254  6EEA      	MOVWF FSR0H
0256  507D      	MOVF FCI_SHEAD_00000_arg_sSrc2, W
0258  6EE9      	MOVWF FSR0L
025A  51A1      	MOVF FCI_SHEAD_00000_1_strt, W, 1
025C  6FA3      	MOVWF CompTempVar2032, 1
025E  51A3      	MOVF CompTempVar2032, W, 1
0260  26E9      	ADDWF FSR0L, F
0262  50EF      	MOVF INDF0, W
0264  6FA4      	MOVWF CompTempVar2033, 1
0266  519E      	MOVF FCI_SHEAD_00000_arg_sDst+D'1', W, 1
0268  6EEA      	MOVWF FSR0H
026A  519D      	MOVF FCI_SHEAD_00000_arg_sDst, W, 1
026C  247F      	ADDWF FCI_SHEAD_00000_arg_iSrc2_len, W
026E  6EE9      	MOVWF FSR0L
0270  51A4      	MOVF CompTempVar2033, W, 1
0272  6EEF      	MOVWF INDF0
0274  D7E9      	BRA	label31
0276            label32
0276  6BA1      	CLRF FCI_SHEAD_00000_1_strt, 1
0278            label33
0278  507C      	MOVF FCI_SHEAD_00000_arg_iSrc1_len, W
027A  61A1      	CPFSLT FCI_SHEAD_00000_1_strt, 1
027C  D01D      	BRA	label34
027E  519F      	MOVF FCI_SHEAD_00000_arg_iDst_len, W, 1
0280  61A1      	CPFSLT FCI_SHEAD_00000_1_strt, 1
0282  D01A      	BRA	label34
0284  507B      	MOVF FCI_SHEAD_00000_arg_sSrc1+D'1', W
0286  6EEA      	MOVWF FSR0H
0288  507A      	MOVF FCI_SHEAD_00000_arg_sSrc1, W
028A  25A1      	ADDWF FCI_SHEAD_00000_1_strt, W, 1
028C  6EE9      	MOVWF FSR0L
028E  52EF      	MOVF INDF0, F
0290  E013      	BZ	label34
0292  507B      	MOVF FCI_SHEAD_00000_arg_sSrc1+D'1', W
0294  6EEA      	MOVWF FSR0H
0296  507A      	MOVF FCI_SHEAD_00000_arg_sSrc1, W
0298  6EE9      	MOVWF FSR0L
029A  51A1      	MOVF FCI_SHEAD_00000_1_strt, W, 1
029C  6FA3      	MOVWF CompTempVar2036, 1
029E  51A3      	MOVF CompTempVar2036, W, 1
02A0  26E9      	ADDWF FSR0L, F
02A2  50EF      	MOVF INDF0, W
02A4  6FA4      	MOVWF CompTempVar2037, 1
02A6  519E      	MOVF FCI_SHEAD_00000_arg_sDst+D'1', W, 1
02A8  6EEA      	MOVWF FSR0H
02AA  519D      	MOVF FCI_SHEAD_00000_arg_sDst, W, 1
02AC  25A1      	ADDWF FCI_SHEAD_00000_1_strt, W, 1
02AE  6EE9      	MOVWF FSR0L
02B0  51A4      	MOVF CompTempVar2037, W, 1
02B2  6EEF      	MOVWF INDF0
02B4  2BA1      	INCF FCI_SHEAD_00000_1_strt, F, 1
02B6  D7E0      	BRA	label33
02B8            label34
02B8  51A1      	MOVF FCI_SHEAD_00000_1_strt, W, 1
02BA  27A0      	ADDWF FCI_SHEAD_00000_1_len, F, 1
02BC  D075      	BRA	label42
02BE            label35
02BE  6BA0      	CLRF FCI_SHEAD_00000_1_len, 1
02C0            label36
02C0  507C      	MOVF FCI_SHEAD_00000_arg_iSrc1_len, W
02C2  61A0      	CPFSLT FCI_SHEAD_00000_1_len, 1
02C4  D071      	BRA	label42
02C6  519F      	MOVF FCI_SHEAD_00000_arg_iDst_len, W, 1
02C8  61A0      	CPFSLT FCI_SHEAD_00000_1_len, 1
02CA  D06E      	BRA	label42
02CC  507B      	MOVF FCI_SHEAD_00000_arg_sSrc1+D'1', W
02CE  6EEA      	MOVWF FSR0H
02D0  507A      	MOVF FCI_SHEAD_00000_arg_sSrc1, W
02D2  25A0      	ADDWF FCI_SHEAD_00000_1_len, W, 1
02D4  6EE9      	MOVWF FSR0L
02D6  52EF      	MOVF INDF0, F
02D8  E067      	BZ	label42
02DA  507B      	MOVF FCI_SHEAD_00000_arg_sSrc1+D'1', W
02DC  6EEA      	MOVWF FSR0H
02DE  507A      	MOVF FCI_SHEAD_00000_arg_sSrc1, W
02E0  6EE9      	MOVWF FSR0L
02E2  51A0      	MOVF FCI_SHEAD_00000_1_len, W, 1
02E4  6FA2      	MOVWF CompTempVar2044, 1
02E6  51A2      	MOVF CompTempVar2044, W, 1
02E8  26E9      	ADDWF FSR0L, F
02EA  50EF      	MOVF INDF0, W
02EC  6FA3      	MOVWF CompTempVar2045, 1
02EE  519E      	MOVF FCI_SHEAD_00000_arg_sDst+D'1', W, 1
02F0  6EEA      	MOVWF FSR0H
02F2  519D      	MOVF FCI_SHEAD_00000_arg_sDst, W, 1
02F4  25A0      	ADDWF FCI_SHEAD_00000_1_len, W, 1
02F6  6EE9      	MOVWF FSR0L
02F8  51A3      	MOVF CompTempVar2045, W, 1
02FA  6EEF      	MOVWF INDF0
02FC  2BA0      	INCF FCI_SHEAD_00000_1_len, F, 1
02FE  D7E0      	BRA	label36
0300            label37
0300  6BA0      	CLRF FCI_SHEAD_00000_1_len, 1
0302            label38
0302  507C      	MOVF FCI_SHEAD_00000_arg_iSrc1_len, W
0304  61A0      	CPFSLT FCI_SHEAD_00000_1_len, 1
0306  D01D      	BRA	label39
0308  519F      	MOVF FCI_SHEAD_00000_arg_iDst_len, W, 1
030A  61A0      	CPFSLT FCI_SHEAD_00000_1_len, 1
030C  D01A      	BRA	label39
030E  507B      	MOVF FCI_SHEAD_00000_arg_sSrc1+D'1', W
0310  6EEA      	MOVWF FSR0H
0312  507A      	MOVF FCI_SHEAD_00000_arg_sSrc1, W
0314  25A0      	ADDWF FCI_SHEAD_00000_1_len, W, 1
0316  6EE9      	MOVWF FSR0L
0318  52EF      	MOVF INDF0, F
031A  E013      	BZ	label39
031C  507B      	MOVF FCI_SHEAD_00000_arg_sSrc1+D'1', W
031E  6EEA      	MOVWF FSR0H
0320  507A      	MOVF FCI_SHEAD_00000_arg_sSrc1, W
0322  6EE9      	MOVWF FSR0L
0324  51A0      	MOVF FCI_SHEAD_00000_1_len, W, 1
0326  6FA2      	MOVWF CompTempVar2052, 1
0328  51A2      	MOVF CompTempVar2052, W, 1
032A  26E9      	ADDWF FSR0L, F
032C  50EF      	MOVF INDF0, W
032E  6FA3      	MOVWF CompTempVar2053, 1
0330  519E      	MOVF FCI_SHEAD_00000_arg_sDst+D'1', W, 1
0332  6EEA      	MOVWF FSR0H
0334  519D      	MOVF FCI_SHEAD_00000_arg_sDst, W, 1
0336  25A0      	ADDWF FCI_SHEAD_00000_1_len, W, 1
0338  6EE9      	MOVWF FSR0L
033A  51A3      	MOVF CompTempVar2053, W, 1
033C  6EEF      	MOVWF INDF0
033E  2BA0      	INCF FCI_SHEAD_00000_1_len, F, 1
0340  D7E0      	BRA	label38
0342            label39
0342  519F      	MOVF FCI_SHEAD_00000_arg_iDst_len, W, 1
0344  61A0      	CPFSLT FCI_SHEAD_00000_1_len, 1
0346  D030      	BRA	label42
0348  6BA3      	CLRF CompTempVar2059, 1
034A  51A0      	MOVF FCI_SHEAD_00000_1_len, W, 1
034C  259D      	ADDWF FCI_SHEAD_00000_arg_sDst, W, 1
034E  6FA2      	MOVWF CompTempVar2058, 1
0350  519E      	MOVF FCI_SHEAD_00000_arg_sDst+D'1', W, 1
0352  23A3      	ADDWFC CompTempVar2059, F, 1
0354  51A2      	MOVF CompTempVar2058, W, 1
0356  6E7A      	MOVWF FCI_SHEAD_00000_arg_sSrc1
0358  51A3      	MOVF CompTempVar2059, W, 1
035A  6E7B      	MOVWF FCI_SHEAD_00000_arg_sSrc1+D'1'
035C  51A0      	MOVF FCI_SHEAD_00000_1_len, W, 1
035E  5D9F      	SUBWF FCI_SHEAD_00000_arg_iDst_len, W, 1
0360  6E7C      	MOVWF FCI_SHEAD_00000_arg_iSrc1_len
0362  6BA1      	CLRF FCI_SHEAD_00000_1_strt, 1
0364            label40
0364  507F      	MOVF FCI_SHEAD_00000_arg_iSrc2_len, W
0366  61A1      	CPFSLT FCI_SHEAD_00000_1_strt, 1
0368  D01D      	BRA	label41
036A  507C      	MOVF FCI_SHEAD_00000_arg_iSrc1_len, W
036C  61A1      	CPFSLT FCI_SHEAD_00000_1_strt, 1
036E  D01A      	BRA	label41
0370  507E      	MOVF FCI_SHEAD_00000_arg_sSrc2+D'1', W
0372  6EEA      	MOVWF FSR0H
0374  507D      	MOVF FCI_SHEAD_00000_arg_sSrc2, W
0376  25A1      	ADDWF FCI_SHEAD_00000_1_strt, W, 1
0378  6EE9      	MOVWF FSR0L
037A  52EF      	MOVF INDF0, F
037C  E013      	BZ	label41
037E  507E      	MOVF FCI_SHEAD_00000_arg_sSrc2+D'1', W
0380  6EEA      	MOVWF FSR0H
0382  507D      	MOVF FCI_SHEAD_00000_arg_sSrc2, W
0384  6EE9      	MOVWF FSR0L
0386  51A1      	MOVF FCI_SHEAD_00000_1_strt, W, 1
0388  6FA2      	MOVWF CompTempVar2062, 1
038A  51A2      	MOVF CompTempVar2062, W, 1
038C  26E9      	ADDWF FSR0L, F
038E  50EF      	MOVF INDF0, W
0390  6FA3      	MOVWF CompTempVar2063, 1
0392  507B      	MOVF FCI_SHEAD_00000_arg_sSrc1+D'1', W
0394  6EEA      	MOVWF FSR0H
0396  507A      	MOVF FCI_SHEAD_00000_arg_sSrc1, W
0398  25A1      	ADDWF FCI_SHEAD_00000_1_strt, W, 1
039A  6EE9      	MOVWF FSR0L
039C  51A3      	MOVF CompTempVar2063, W, 1
039E  6EEF      	MOVWF INDF0
03A0  2BA1      	INCF FCI_SHEAD_00000_1_strt, F, 1
03A2  D7E0      	BRA	label40
03A4            label41
03A4  51A1      	MOVF FCI_SHEAD_00000_1_strt, W, 1
03A6  27A0      	ADDWF FCI_SHEAD_00000_1_len, F, 1
03A8            label42
03A8  519F      	MOVF FCI_SHEAD_00000_arg_iDst_len, W, 1
03AA  61A0      	CPFSLT FCI_SHEAD_00000_1_len, 1
03AC  0012      	RETURN
03AE  519E      	MOVF FCI_SHEAD_00000_arg_sDst+D'1', W, 1
03B0  6EEA      	MOVWF FSR0H
03B2  519D      	MOVF FCI_SHEAD_00000_arg_sDst, W, 1
03B4  25A0      	ADDWF FCI_SHEAD_00000_1_len, W, 1
03B6  6EE9      	MOVWF FSR0L
03B8  0E00      	MOVLW 0x00
03BA  6EEF      	MOVWF INDF0
03BC  0012      	RETURN
03BE            ; } FCI_SHEAD function end

	ORG 0x000003BE
03BE            FCD_0c851__00062
03BE            ; { FCD_0c851_Bluetooth2__SendCommand ; function begin
03BE  6A7F      	CLRF FCD_0c851__00062_1_FCL_IDX
03C0            label43
03C0  ECC8F000  	CALL FCD_0c851__0007B
03C4  51AB      	MOVF CompTempVarRet2742, W, 1
03C6  6F95      	MOVWF FCD_0c851__00062_1_FCR_RETVAL, 1
03C8  5395      	MOVF FCD_0c851__00062_1_FCR_RETVAL, F, 1
03CA  E1FA      	BNZ	label43
03CC  507A      	MOVF FCD_0c851__00062_arg_FCL_COMMAND, W
03CE  6F96      	MOVWF FCI_GETLEN_0003E_arg_sStr1, 1
03D0  507B      	MOVF FCD_0c851__00062_arg_FCL_COMMAND+D'1', W
03D2  6F97      	MOVWF FCI_GETLEN_0003E_arg_sStr1+D'1', 1
03D4  507C      	MOVF FCD_0c851__00062_arg_FCLsz_00063, W
03D6  6F98      	MOVWF FCI_GETLEN_0003E_arg_iStr1_len, 1
03D8  ECB8F000  	CALL FCI_GETLEN_0003E
03DC  519A      	MOVF CompTempVarRet1850, W, 1
03DE  6F94      	MOVWF FCD_0c851__00062_1_FCL_LEN, 1
03E0  5394      	MOVF FCD_0c851__00062_1_FCL_LEN, F, 1
03E2  E017      	BZ	label46
03E4            label44
03E4  5194      	MOVF FCD_0c851__00062_1_FCL_LEN, W, 1
03E6  607F      	CPFSLT FCD_0c851__00062_1_FCL_IDX
03E8  D00D      	BRA	label45
03EA  507B      	MOVF FCD_0c851__00062_arg_FCL_COMMAND+D'1', W
03EC  6EEA      	MOVWF FSR0H
03EE  507A      	MOVF FCD_0c851__00062_arg_FCL_COMMAND, W
03F0  247F      	ADDWF FCD_0c851__00062_1_FCL_IDX, W
03F2  6EE9      	MOVWF FSR0L
03F4  50EF      	MOVF INDF0, W
03F6  6FA8      	MOVWF FC_CAL_UAR_00075_arg_nChar, 1
03F8  6BA9      	CLRF FC_CAL_UAR_00075_arg_nChar+D'1', 1
03FA  ECB0F000  	CALL FC_CAL_UAR_00075
03FE  287F      	INCF FCD_0c851__00062_1_FCL_IDX, W
0400  6E7F      	MOVWF FCD_0c851__00062_1_FCL_IDX
0402  D7F0      	BRA	label44
0404            label45
0404  527E      	MOVF FCD_0c851__00062_arg_FCL_SENDCR, F
0406  E005      	BZ	label46
0408  0E0D      	MOVLW 0x0D
040A  6FA8      	MOVWF FC_CAL_UAR_00075_arg_nChar, 1
040C  6BA9      	CLRF FC_CAL_UAR_00075_arg_nChar+D'1', 1
040E  ECB0F000  	CALL FC_CAL_UAR_00075
0412            label46
0412  ECC8F000  	CALL FCD_0c851__0007B
0416  ECC8F000  	CALL FCD_0c851__0007B
041A  51AB      	MOVF CompTempVarRet2742, W, 1
041C  6F95      	MOVWF FCD_0c851__00062_1_FCR_RETVAL, 1
041E  5395      	MOVF FCD_0c851__00062_1_FCR_RETVAL, F, 1
0420  E102      	BNZ	label47
0422  6995      	SETF FCD_0c851__00062_1_FCR_RETVAL, 1
0424  D001      	BRA	label48
0426            label47
0426  6B95      	CLRF FCD_0c851__00062_1_FCR_RETVAL, 1
0428            label48
0428  5195      	MOVF FCD_0c851__00062_1_FCR_RETVAL, W, 1
042A  6F96      	MOVWF CompTempVarRet2696, 1
042C  0012      	RETURN
042E            ; } FCD_0c851_Bluetooth2__SendCommand function end

	ORG 0x0000042E
042E            FCD_04071__00066
042E            ; { FCD_04071_LCD__RawSend ; function begin
042E  6B82      	CLRF FCD_04071__00066_2_ptmp, 1
0430  9092      	BCF gbl_trisa,0
0432  5382      	MOVF FCD_04071__00066_2_ptmp, F, 1
0434  E004      	BZ	label49
0436  0E01      	MOVLW 0x01
0438  1089      	IORWF gbl_lata, W
043A  6E80      	MOVWF gbl_porta
043C  D003      	BRA	label50
043E            label49
043E  0EFE      	MOVLW 0xFE
0440  1489      	ANDWF gbl_lata, W
0442  6E80      	MOVWF gbl_porta
0444            label50
0444  6B82      	CLRF FCD_04071__00066_9_ptmp, 1
0446  9292      	BCF gbl_trisa,1
0448  5382      	MOVF FCD_04071__00066_9_ptmp, F, 1
044A  E004      	BZ	label51
044C  0E02      	MOVLW 0x02
044E  1089      	IORWF gbl_lata, W
0450  6E80      	MOVWF gbl_porta
0452  D003      	BRA	label52
0454            label51
0454  0EFD      	MOVLW 0xFD
0456  1489      	ANDWF gbl_lata, W
0458  6E80      	MOVWF gbl_porta
045A            label52
045A  6B82      	CLRF FCD_04071__00066_16_ptmp, 1
045C  9492      	BCF gbl_trisa,2
045E  5382      	MOVF FCD_04071__00066_16_ptmp, F, 1
0460  E004      	BZ	label53
0462  0E04      	MOVLW 0x04
0464  1089      	IORWF gbl_lata, W
0466  6E80      	MOVWF gbl_porta
0468  D003      	BRA	label54
046A            label53
046A  0EFB      	MOVLW 0xFB
046C  1489      	ANDWF gbl_lata, W
046E  6E80      	MOVWF gbl_porta
0470            label54
0470  6B82      	CLRF FCD_04071__00066_23_ptmp, 1
0472  9692      	BCF gbl_trisa,3
0474  5382      	MOVF FCD_04071__00066_23_ptmp, F, 1
0476  E004      	BZ	label55
0478  0E08      	MOVLW 0x08
047A  1089      	IORWF gbl_lata, W
047C  6E80      	MOVWF gbl_porta
047E  D003      	BRA	label56
0480            label55
0480  0EF7      	MOVLW 0xF7
0482  1489      	ANDWF gbl_lata, W
0484  6E80      	MOVWF gbl_porta
0486            label56
0486  6B82      	CLRF FCD_04071__00066_30_ptmp, 1
0488  9892      	BCF gbl_trisa,4
048A  5382      	MOVF FCD_04071__00066_30_ptmp, F, 1
048C  E004      	BZ	label57
048E  0E10      	MOVLW 0x10
0490  1089      	IORWF gbl_lata, W
0492  6E80      	MOVWF gbl_porta
0494  D003      	BRA	label58
0496            label57
0496  0EEF      	MOVLW 0xEF
0498  1489      	ANDWF gbl_lata, W
049A  6E80      	MOVWF gbl_porta
049C            label58
049C  6B82      	CLRF FCD_04071__00066_37_ptmp, 1
049E  9A92      	BCF gbl_trisa,5
04A0  5382      	MOVF FCD_04071__00066_37_ptmp, F, 1
04A2  E004      	BZ	label59
04A4  0E20      	MOVLW 0x20
04A6  1089      	IORWF gbl_lata, W
04A8  6E80      	MOVWF gbl_porta
04AA  D003      	BRA	label60
04AC            label59
04AC  0EDF      	MOVLW 0xDF
04AE  1489      	ANDWF gbl_lata, W
04B0  6E80      	MOVWF gbl_porta
04B2            label60
04B2  387F      	SWAPF FCD_04071__00066_arg_FCL_DATA, W
04B4  0B0F      	ANDLW 0x0F
04B6  6F81      	MOVWF FCD_04071__00066_1_FCL_NIBBLE, 1
04B8  0E01      	MOVLW 0x01
04BA  1581      	ANDWF FCD_04071__00066_1_FCL_NIBBLE, W, 1
04BC  6F82      	MOVWF FCD_04071__00066_46_ptmp, 1
04BE  9092      	BCF gbl_trisa,0
04C0  5382      	MOVF FCD_04071__00066_46_ptmp, F, 1
04C2  E004      	BZ	label61
04C4  0E01      	MOVLW 0x01
04C6  1089      	IORWF gbl_lata, W
04C8  6E80      	MOVWF gbl_porta
04CA  D003      	BRA	label62
04CC            label61
04CC  0EFE      	MOVLW 0xFE
04CE  1489      	ANDWF gbl_lata, W
04D0  6E80      	MOVWF gbl_porta
04D2            label62
04D2  5381      	MOVF FCD_04071__00066_1_FCL_NIBBLE, F, 1
04D4  90D8      	BCF STATUS,C
04D6  3381      	RRCF FCD_04071__00066_1_FCL_NIBBLE, F, 1
04D8  0E01      	MOVLW 0x01
04DA  1581      	ANDWF FCD_04071__00066_1_FCL_NIBBLE, W, 1
04DC  6F82      	MOVWF FCD_04071__00066_55_ptmp, 1
04DE  9292      	BCF gbl_trisa,1
04E0  5382      	MOVF FCD_04071__00066_55_ptmp, F, 1
04E2  E004      	BZ	label63
04E4  0E02      	MOVLW 0x02
04E6  1089      	IORWF gbl_lata, W
04E8  6E80      	MOVWF gbl_porta
04EA  D003      	BRA	label64
04EC            label63
04EC  0EFD      	MOVLW 0xFD
04EE  1489      	ANDWF gbl_lata, W
04F0  6E80      	MOVWF gbl_porta
04F2            label64
04F2  5381      	MOVF FCD_04071__00066_1_FCL_NIBBLE, F, 1
04F4  90D8      	BCF STATUS,C
04F6  3381      	RRCF FCD_04071__00066_1_FCL_NIBBLE, F, 1
04F8  0E01      	MOVLW 0x01
04FA  1581      	ANDWF FCD_04071__00066_1_FCL_NIBBLE, W, 1
04FC  6F82      	MOVWF FCD_04071__00066_64_ptmp, 1
04FE  9492      	BCF gbl_trisa,2
0500  5382      	MOVF FCD_04071__00066_64_ptmp, F, 1
0502  E004      	BZ	label65
0504  0E04      	MOVLW 0x04
0506  1089      	IORWF gbl_lata, W
0508  6E80      	MOVWF gbl_porta
050A  D003      	BRA	label66
050C            label65
050C  0EFB      	MOVLW 0xFB
050E  1489      	ANDWF gbl_lata, W
0510  6E80      	MOVWF gbl_porta
0512            label66
0512  5381      	MOVF FCD_04071__00066_1_FCL_NIBBLE, F, 1
0514  90D8      	BCF STATUS,C
0516  3381      	RRCF FCD_04071__00066_1_FCL_NIBBLE, F, 1
0518  0E01      	MOVLW 0x01
051A  1581      	ANDWF FCD_04071__00066_1_FCL_NIBBLE, W, 1
051C  6F82      	MOVWF FCD_04071__00066_73_ptmp, 1
051E  9692      	BCF gbl_trisa,3
0520  5382      	MOVF FCD_04071__00066_73_ptmp, F, 1
0522  E004      	BZ	label67
0524  0E08      	MOVLW 0x08
0526  1089      	IORWF gbl_lata, W
0528  6E80      	MOVWF gbl_porta
052A  D003      	BRA	label68
052C            label67
052C  0EF7      	MOVLW 0xF7
052E  1489      	ANDWF gbl_lata, W
0530  6E80      	MOVWF gbl_porta
0532            label68
0532  A180      	BTFSS FCD_04071__00066_arg_FCL_TYPE,0, 1
0534  D00C      	BRA	label70
0536  0E01      	MOVLW 0x01
0538  6F82      	MOVWF FCD_04071__00066_82_ptmp, 1
053A  9892      	BCF gbl_trisa,4
053C  5382      	MOVF FCD_04071__00066_82_ptmp, F, 1
053E  E004      	BZ	label69
0540  0E10      	MOVLW 0x10
0542  1089      	IORWF gbl_lata, W
0544  6E80      	MOVWF gbl_porta
0546  D003      	BRA	label70
0548            label69
0548  0EEF      	MOVLW 0xEF
054A  1489      	ANDWF gbl_lata, W
054C  6E80      	MOVWF gbl_porta
054E            label70
054E  0E64      	MOVLW 0x64
0550  6FAD      	MOVWF delay_us_00000_arg_del, 1
0552  EC06F000  	CALL delay_us_00000
0556  0E01      	MOVLW 0x01
0558  6F82      	MOVWF FCD_04071__00066_93_ptmp, 1
055A  9A92      	BCF gbl_trisa,5
055C  5382      	MOVF FCD_04071__00066_93_ptmp, F, 1
055E  E004      	BZ	label71
0560  0E20      	MOVLW 0x20
0562  1089      	IORWF gbl_lata, W
0564  6E80      	MOVWF gbl_porta
0566  D003      	BRA	label72
0568            label71
0568  0EDF      	MOVLW 0xDF
056A  1489      	ANDWF gbl_lata, W
056C  6E80      	MOVWF gbl_porta
056E            label72
056E  0E64      	MOVLW 0x64
0570  6FAD      	MOVWF delay_us_00000_arg_del, 1
0572  EC06F000  	CALL delay_us_00000
0576  6B82      	CLRF FCD_04071__00066_104_ptmp, 1
0578  9A92      	BCF gbl_trisa,5
057A  5382      	MOVF FCD_04071__00066_104_ptmp, F, 1
057C  E004      	BZ	label73
057E  0E20      	MOVLW 0x20
0580  1089      	IORWF gbl_lata, W
0582  6E80      	MOVWF gbl_porta
0584  D003      	BRA	label74
0586            label73
0586  0EDF      	MOVLW 0xDF
0588  1489      	ANDWF gbl_lata, W
058A  6E80      	MOVWF gbl_porta
058C            label74
058C  0E64      	MOVLW 0x64
058E  6FAD      	MOVWF delay_us_00000_arg_del, 1
0590  EC06F000  	CALL delay_us_00000
0594  6B82      	CLRF FCD_04071__00066_115_ptmp, 1
0596  9092      	BCF gbl_trisa,0
0598  5382      	MOVF FCD_04071__00066_115_ptmp, F, 1
059A  E004      	BZ	label75
059C  0E01      	MOVLW 0x01
059E  1089      	IORWF gbl_lata, W
05A0  6E80      	MOVWF gbl_porta
05A2  D003      	BRA	label76
05A4            label75
05A4  0EFE      	MOVLW 0xFE
05A6  1489      	ANDWF gbl_lata, W
05A8  6E80      	MOVWF gbl_porta
05AA            label76
05AA  6B82      	CLRF FCD_04071__00066_122_ptmp, 1
05AC  9292      	BCF gbl_trisa,1
05AE  5382      	MOVF FCD_04071__00066_122_ptmp, F, 1
05B0  E004      	BZ	label77
05B2  0E02      	MOVLW 0x02
05B4  1089      	IORWF gbl_lata, W
05B6  6E80      	MOVWF gbl_porta
05B8  D003      	BRA	label78
05BA            label77
05BA  0EFD      	MOVLW 0xFD
05BC  1489      	ANDWF gbl_lata, W
05BE  6E80      	MOVWF gbl_porta
05C0            label78
05C0  6B82      	CLRF FCD_04071__00066_129_ptmp, 1
05C2  9492      	BCF gbl_trisa,2
05C4  5382      	MOVF FCD_04071__00066_129_ptmp, F, 1
05C6  E004      	BZ	label79
05C8  0E04      	MOVLW 0x04
05CA  1089      	IORWF gbl_lata, W
05CC  6E80      	MOVWF gbl_porta
05CE  D003      	BRA	label80
05D0            label79
05D0  0EFB      	MOVLW 0xFB
05D2  1489      	ANDWF gbl_lata, W
05D4  6E80      	MOVWF gbl_porta
05D6            label80
05D6  6B82      	CLRF FCD_04071__00066_136_ptmp, 1
05D8  9692      	BCF gbl_trisa,3
05DA  5382      	MOVF FCD_04071__00066_136_ptmp, F, 1
05DC  E004      	BZ	label81
05DE  0E08      	MOVLW 0x08
05E0  1089      	IORWF gbl_lata, W
05E2  6E80      	MOVWF gbl_porta
05E4  D003      	BRA	label82
05E6            label81
05E6  0EF7      	MOVLW 0xF7
05E8  1489      	ANDWF gbl_lata, W
05EA  6E80      	MOVWF gbl_porta
05EC            label82
05EC  6B82      	CLRF FCD_04071__00066_143_ptmp, 1
05EE  9892      	BCF gbl_trisa,4
05F0  5382      	MOVF FCD_04071__00066_143_ptmp, F, 1
05F2  E004      	BZ	label83
05F4  0E10      	MOVLW 0x10
05F6  1089      	IORWF gbl_lata, W
05F8  6E80      	MOVWF gbl_porta
05FA  D003      	BRA	label84
05FC            label83
05FC  0EEF      	MOVLW 0xEF
05FE  1489      	ANDWF gbl_lata, W
0600  6E80      	MOVWF gbl_porta
0602            label84
0602  0E0F      	MOVLW 0x0F
0604  147F      	ANDWF FCD_04071__00066_arg_FCL_DATA, W
0606  6F82      	MOVWF CompTempVar2713, 1
0608  5182      	MOVF CompTempVar2713, W, 1
060A  6F81      	MOVWF FCD_04071__00066_1_FCL_NIBBLE, 1
060C  0E01      	MOVLW 0x01
060E  1581      	ANDWF FCD_04071__00066_1_FCL_NIBBLE, W, 1
0610  6F82      	MOVWF FCD_04071__00066_152_ptmp, 1
0612  9092      	BCF gbl_trisa,0
0614  5382      	MOVF FCD_04071__00066_152_ptmp, F, 1
0616  E004      	BZ	label85
0618  0E01      	MOVLW 0x01
061A  1089      	IORWF gbl_lata, W
061C  6E80      	MOVWF gbl_porta
061E  D003      	BRA	label86
0620            label85
0620  0EFE      	MOVLW 0xFE
0622  1489      	ANDWF gbl_lata, W
0624  6E80      	MOVWF gbl_porta
0626            label86
0626  5381      	MOVF FCD_04071__00066_1_FCL_NIBBLE, F, 1
0628  90D8      	BCF STATUS,C
062A  3381      	RRCF FCD_04071__00066_1_FCL_NIBBLE, F, 1
062C  0E01      	MOVLW 0x01
062E  1581      	ANDWF FCD_04071__00066_1_FCL_NIBBLE, W, 1
0630  6F82      	MOVWF FCD_04071__00066_161_ptmp, 1
0632  9292      	BCF gbl_trisa,1
0634  5382      	MOVF FCD_04071__00066_161_ptmp, F, 1
0636  E004      	BZ	label87
0638  0E02      	MOVLW 0x02
063A  1089      	IORWF gbl_lata, W
063C  6E80      	MOVWF gbl_porta
063E  D003      	BRA	label88
0640            label87
0640  0EFD      	MOVLW 0xFD
0642  1489      	ANDWF gbl_lata, W
0644  6E80      	MOVWF gbl_porta
0646            label88
0646  5381      	MOVF FCD_04071__00066_1_FCL_NIBBLE, F, 1
0648  90D8      	BCF STATUS,C
064A  3381      	RRCF FCD_04071__00066_1_FCL_NIBBLE, F, 1
064C  0E01      	MOVLW 0x01
064E  1581      	ANDWF FCD_04071__00066_1_FCL_NIBBLE, W, 1
0650  6F82      	MOVWF FCD_04071__00066_170_ptmp, 1
0652  9492      	BCF gbl_trisa,2
0654  5382      	MOVF FCD_04071__00066_170_ptmp, F, 1
0656  E004      	BZ	label89
0658  0E04      	MOVLW 0x04
065A  1089      	IORWF gbl_lata, W
065C  6E80      	MOVWF gbl_porta
065E  D003      	BRA	label90
0660            label89
0660  0EFB      	MOVLW 0xFB
0662  1489      	ANDWF gbl_lata, W
0664  6E80      	MOVWF gbl_porta
0666            label90
0666  5381      	MOVF FCD_04071__00066_1_FCL_NIBBLE, F, 1
0668  90D8      	BCF STATUS,C
066A  3381      	RRCF FCD_04071__00066_1_FCL_NIBBLE, F, 1
066C  0E01      	MOVLW 0x01
066E  1581      	ANDWF FCD_04071__00066_1_FCL_NIBBLE, W, 1
0670  6F82      	MOVWF FCD_04071__00066_179_ptmp, 1
0672  9692      	BCF gbl_trisa,3
0674  5382      	MOVF FCD_04071__00066_179_ptmp, F, 1
0676  E004      	BZ	label91
0678  0E08      	MOVLW 0x08
067A  1089      	IORWF gbl_lata, W
067C  6E80      	MOVWF gbl_porta
067E  D003      	BRA	label92
0680            label91
0680  0EF7      	MOVLW 0xF7
0682  1489      	ANDWF gbl_lata, W
0684  6E80      	MOVWF gbl_porta
0686            label92
0686  A180      	BTFSS FCD_04071__00066_arg_FCL_TYPE,0, 1
0688  D00C      	BRA	label94
068A  0E01      	MOVLW 0x01
068C  6F82      	MOVWF FCD_04071__00066_188_ptmp, 1
068E  9892      	BCF gbl_trisa,4
0690  5382      	MOVF FCD_04071__00066_188_ptmp, F, 1
0692  E004      	BZ	label93
0694  0E10      	MOVLW 0x10
0696  1089      	IORWF gbl_lata, W
0698  6E80      	MOVWF gbl_porta
069A  D003      	BRA	label94
069C            label93
069C  0EEF      	MOVLW 0xEF
069E  1489      	ANDWF gbl_lata, W
06A0  6E80      	MOVWF gbl_porta
06A2            label94
06A2  0E64      	MOVLW 0x64
06A4  6FAD      	MOVWF delay_us_00000_arg_del, 1
06A6  EC06F000  	CALL delay_us_00000
06AA  0E01      	MOVLW 0x01
06AC  6F82      	MOVWF FCD_04071__00066_199_ptmp, 1
06AE  9A92      	BCF gbl_trisa,5
06B0  5382      	MOVF FCD_04071__00066_199_ptmp, F, 1
06B2  E004      	BZ	label95
06B4  0E20      	MOVLW 0x20
06B6  1089      	IORWF gbl_lata, W
06B8  6E80      	MOVWF gbl_porta
06BA  D003      	BRA	label96
06BC            label95
06BC  0EDF      	MOVLW 0xDF
06BE  1489      	ANDWF gbl_lata, W
06C0  6E80      	MOVWF gbl_porta
06C2            label96
06C2  0E64      	MOVLW 0x64
06C4  6FAD      	MOVWF delay_us_00000_arg_del, 1
06C6  EC06F000  	CALL delay_us_00000
06CA  6B82      	CLRF FCD_04071__00066_210_ptmp, 1
06CC  9A92      	BCF gbl_trisa,5
06CE  5382      	MOVF FCD_04071__00066_210_ptmp, F, 1
06D0  E004      	BZ	label97
06D2  0E20      	MOVLW 0x20
06D4  1089      	IORWF gbl_lata, W
06D6  6E80      	MOVWF gbl_porta
06D8  D003      	BRA	label98
06DA            label97
06DA  0EDF      	MOVLW 0xDF
06DC  1489      	ANDWF gbl_lata, W
06DE  6E80      	MOVWF gbl_porta
06E0            label98
06E0  0E64      	MOVLW 0x64
06E2  6FAD      	MOVWF delay_us_00000_arg_del, 1
06E4  EC06F000  	CALL delay_us_00000
06E8  0012      	RETURN
06EA            ; } FCD_04071_LCD__RawSend function end

	ORG 0x000006EA
06EA            __mul_32_3_00009
06EA            ; { __mul_32_32 ; function begin
06EA  6B86      	CLRF CompTempVarRet414, 1
06EC  6B87      	CLRF CompTempVarRet414+D'1', 1
06EE  6B88      	CLRF CompTempVarRet414+D'2', 1
06F0  6B89      	CLRF CompTempVarRet414+D'3', 1
06F2  6B88      	CLRF CompTempVarRet414+D'2', 1
06F4  6B89      	CLRF CompTempVarRet414+D'3', 1
06F6  507A      	MOVF __mul_32_3_00009_arg_a, W
06F8  0380      	MULWF __mul_32_3_00009_arg_b, 1
06FA  50F3      	MOVF gbl_prodl, W
06FC  6F86      	MOVWF CompTempVarRet414, 1
06FE  50F4      	MOVF gbl_prodh, W
0700  6F87      	MOVWF CompTempVarRet414+D'1', 1
0702  507B      	MOVF __mul_32_3_00009_arg_a+D'1', W
0704  0380      	MULWF __mul_32_3_00009_arg_b, 1
0706  50F3      	MOVF gbl_prodl, W
0708  2787      	ADDWF CompTempVarRet414+D'1', F, 1
070A  50F4      	MOVF gbl_prodh, W
070C  2388      	ADDWFC CompTempVarRet414+D'2', F, 1
070E  B0D8      	BTFSC gbl_status,0
0710  2B89      	INCF CompTempVarRet414+D'3', F, 1
0712  507C      	MOVF __mul_32_3_00009_arg_a+D'2', W
0714  0380      	MULWF __mul_32_3_00009_arg_b, 1
0716  50F3      	MOVF gbl_prodl, W
0718  2788      	ADDWF CompTempVarRet414+D'2', F, 1
071A  50F4      	MOVF gbl_prodh, W
071C  2389      	ADDWFC CompTempVarRet414+D'3', F, 1
071E  507D      	MOVF __mul_32_3_00009_arg_a+D'3', W
0720  0380      	MULWF __mul_32_3_00009_arg_b, 1
0722  50F3      	MOVF gbl_prodl, W
0724  2789      	ADDWF CompTempVarRet414+D'3', F, 1
0726  507A      	MOVF __mul_32_3_00009_arg_a, W
0728  0381      	MULWF __mul_32_3_00009_arg_b+D'1', 1
072A  50F3      	MOVF gbl_prodl, W
072C  2787      	ADDWF CompTempVarRet414+D'1', F, 1
072E  50F4      	MOVF gbl_prodh, W
0730  2388      	ADDWFC CompTempVarRet414+D'2', F, 1
0732  B0D8      	BTFSC gbl_status,0
0734  2B89      	INCF CompTempVarRet414+D'3', F, 1
0736  507B      	MOVF __mul_32_3_00009_arg_a+D'1', W
0738  0381      	MULWF __mul_32_3_00009_arg_b+D'1', 1
073A  50F3      	MOVF gbl_prodl, W
073C  2788      	ADDWF CompTempVarRet414+D'2', F, 1
073E  50F4      	MOVF gbl_prodh, W
0740  2389      	ADDWFC CompTempVarRet414+D'3', F, 1
0742  507C      	MOVF __mul_32_3_00009_arg_a+D'2', W
0744  0381      	MULWF __mul_32_3_00009_arg_b+D'1', 1
0746  50F3      	MOVF gbl_prodl, W
0748  2789      	ADDWF CompTempVarRet414+D'3', F, 1
074A  507A      	MOVF __mul_32_3_00009_arg_a, W
074C  0382      	MULWF __mul_32_3_00009_arg_b+D'2', 1
074E  50F3      	MOVF gbl_prodl, W
0750  2788      	ADDWF CompTempVarRet414+D'2', F, 1
0752  50F4      	MOVF gbl_prodh, W
0754  2389      	ADDWFC CompTempVarRet414+D'3', F, 1
0756  507B      	MOVF __mul_32_3_00009_arg_a+D'1', W
0758  0382      	MULWF __mul_32_3_00009_arg_b+D'2', 1
075A  50F3      	MOVF gbl_prodl, W
075C  2789      	ADDWF CompTempVarRet414+D'3', F, 1
075E  507A      	MOVF __mul_32_3_00009_arg_a, W
0760  0383      	MULWF __mul_32_3_00009_arg_b+D'3', 1
0762  50F3      	MOVF gbl_prodl, W
0764  2789      	ADDWF CompTempVarRet414+D'3', F, 1
0766  0012      	RETURN
0768            ; } __mul_32_32 function end

	ORG 0x00000768
0768            __div_32_3_00004
0768            ; { __div_32_32 ; function begin
0768  6B84      	CLRF __div_32_3_00004_1_r, 1
076A  6B85      	CLRF __div_32_3_00004_1_r+D'1', 1
076C  6B86      	CLRF __div_32_3_00004_1_r+D'2', 1
076E  6B87      	CLRF __div_32_3_00004_1_r+D'3', 1
0770  6B88      	CLRF CompTempVarRet172, 1
0772  6B89      	CLRF CompTempVarRet172+D'1', 1
0774  6B8A      	CLRF CompTempVarRet172+D'2', 1
0776  6B8B      	CLRF CompTempVarRet172+D'3', 1
0778  6A7E      	CLRF __div_32_3_00004_1_i
077A            label99
077A  0E20      	MOVLW 0x20
077C  147E      	ANDWF __div_32_3_00004_1_i, W
077E  6E7F      	MOVWF CompTempVar174
0780  667F      	TSTFSZ CompTempVar174
0782  0012      	RETURN
0784  90D8      	BCF STATUS,C
0786  3788      	RLCF CompTempVarRet172, F, 1
0788  3789      	RLCF CompTempVarRet172+D'1', F, 1
078A  378A      	RLCF CompTempVarRet172+D'2', F, 1
078C  378B      	RLCF CompTempVarRet172+D'3', F, 1
078E  367A      	RLCF __div_32_3_00004_arg_a, F
0790  367B      	RLCF __div_32_3_00004_arg_a+D'1', F
0792  367C      	RLCF __div_32_3_00004_arg_a+D'2', F
0794  367D      	RLCF __div_32_3_00004_arg_a+D'3', F
0796  3784      	RLCF __div_32_3_00004_1_r, F, 1
0798  3785      	RLCF __div_32_3_00004_1_r+D'1', F, 1
079A  3786      	RLCF __div_32_3_00004_1_r+D'2', F, 1
079C  3787      	RLCF __div_32_3_00004_1_r+D'3', F, 1
079E  5183      	MOVF __div_32_3_00004_arg_b+D'3', W, 1
07A0  5D87      	SUBWF __div_32_3_00004_1_r+D'3', W, 1
07A2  E108      	BNZ	label100
07A4  5182      	MOVF __div_32_3_00004_arg_b+D'2', W, 1
07A6  5D86      	SUBWF __div_32_3_00004_1_r+D'2', W, 1
07A8  E105      	BNZ	label100
07AA  5181      	MOVF __div_32_3_00004_arg_b+D'1', W, 1
07AC  5D85      	SUBWF __div_32_3_00004_1_r+D'1', W, 1
07AE  E102      	BNZ	label100
07B0  5180      	MOVF __div_32_3_00004_arg_b, W, 1
07B2  5D84      	SUBWF __div_32_3_00004_1_r, W, 1
07B4            label100
07B4  E309      	BNC	label101
07B6  5180      	MOVF __div_32_3_00004_arg_b, W, 1
07B8  5F84      	SUBWF __div_32_3_00004_1_r, F, 1
07BA  5181      	MOVF __div_32_3_00004_arg_b+D'1', W, 1
07BC  5B85      	SUBWFB __div_32_3_00004_1_r+D'1', F, 1
07BE  5182      	MOVF __div_32_3_00004_arg_b+D'2', W, 1
07C0  5B86      	SUBWFB __div_32_3_00004_1_r+D'2', F, 1
07C2  5183      	MOVF __div_32_3_00004_arg_b+D'3', W, 1
07C4  5B87      	SUBWFB __div_32_3_00004_1_r+D'3', F, 1
07C6  8188      	BSF CompTempVarRet172,0, 1
07C8            label101
07C8  2A7E      	INCF __div_32_3_00004_1_i, F
07CA  D7D7      	BRA	label99
07CC            ; } __div_32_32 function end

	ORG 0x000007CC
07CC            FC_CAL_UAR_00076
07CC            ; { FC_CAL_UART_Init_1 ; function begin
07CC  84AC      	BSF gbl_txsta,2
07CE  0E7F      	MOVLW 0x7F
07D0  6EAF      	MOVWF gbl_spbrg
07D2  6AAB      	CLRF gbl_rcsta
07D4  8EAB      	BSF gbl_rcsta,7
07D6  8AAC      	BSF gbl_txsta,5
07D8  88AB      	BSF gbl_rcsta,4
07DA  8A9D      	BSF gbl_pie1,5
07DC  8CF2      	BSF gbl_intcon,6
07DE  8EF2      	BSF gbl_intcon,7
07E0  0012      	RETURN
07E2            ; } FC_CAL_UART_Init_1 function end

	ORG 0x000007E2
07E2            FCI_SCOPY_00000
07E2            ; { FCI_SCOPY ; function begin
07E2  0100      	MOVLB 0x00
07E4  6BD1      	CLRF FCI_SCOPY_00000_1_len, 1
07E6            label102
07E6  507C      	MOVF FCI_SCOPY_00000_arg_iSrc_len, W
07E8  61D1      	CPFSLT FCI_SCOPY_00000_1_len, 1
07EA  D01D      	BRA	label103
07EC  507F      	MOVF FCI_SCOPY_00000_arg_iDst_len, W
07EE  61D1      	CPFSLT FCI_SCOPY_00000_1_len, 1
07F0  D01A      	BRA	label103
07F2  5061      	MOVF FCI_SCOPY_00000_arg_sSrc+D'1', W
07F4  6EEA      	MOVWF FSR0H
07F6  5060      	MOVF FCI_SCOPY_00000_arg_sSrc, W
07F8  25D1      	ADDWF FCI_SCOPY_00000_1_len, W, 1
07FA  6EE9      	MOVWF FSR0L
07FC  52EF      	MOVF INDF0, F
07FE  E013      	BZ	label103
0800  5061      	MOVF FCI_SCOPY_00000_arg_sSrc+D'1', W
0802  6EEA      	MOVWF FSR0H
0804  5060      	MOVF FCI_SCOPY_00000_arg_sSrc, W
0806  6EE9      	MOVWF FSR0L
0808  51D1      	MOVF FCI_SCOPY_00000_1_len, W, 1
080A  6FD2      	MOVWF CompTempVar2071, 1
080C  51D2      	MOVF CompTempVar2071, W, 1
080E  26E9      	ADDWF FSR0L, F
0810  50EF      	MOVF INDF0, W
0812  6FD3      	MOVWF CompTempVar2072, 1
0814  507E      	MOVF FCI_SCOPY_00000_arg_sDst+D'1', W
0816  6EEA      	MOVWF FSR0H
0818  507D      	MOVF FCI_SCOPY_00000_arg_sDst, W
081A  25D1      	ADDWF FCI_SCOPY_00000_1_len, W, 1
081C  6EE9      	MOVWF FSR0L
081E  51D3      	MOVF CompTempVar2072, W, 1
0820  6EEF      	MOVWF INDF0
0822  2BD1      	INCF FCI_SCOPY_00000_1_len, F, 1
0824  D7E0      	BRA	label102
0826            label103
0826  507F      	MOVF FCI_SCOPY_00000_arg_iDst_len, W
0828  61D1      	CPFSLT FCI_SCOPY_00000_1_len, 1
082A  0012      	RETURN
082C  507E      	MOVF FCI_SCOPY_00000_arg_sDst+D'1', W
082E  6EEA      	MOVWF FSR0H
0830  507D      	MOVF FCI_SCOPY_00000_arg_sDst, W
0832  25D1      	ADDWF FCI_SCOPY_00000_1_len, W, 1
0834  6EE9      	MOVWF FSR0L
0836  0E00      	MOVLW 0x00
0838  6EEF      	MOVWF INDF0
083A  0012      	RETURN
083C            ; } FCI_SCOPY function end

	ORG 0x0000083C
083C            FCD_0c851__00084
083C            ; { FCD_0c851_Bluetooth2__RestoreFactorySettings ; function begin
083C  0E41      	MOVLW 0x41
083E  6E71      	MOVWF CompTempVar2764
0840  0E54      	MOVLW 0x54
0842  6E72      	MOVWF CompTempVar2764+D'1'
0844  0E26      	MOVLW 0x26
0846  6E73      	MOVWF CompTempVar2764+D'2'
0848  0E46      	MOVLW 0x46
084A  6E74      	MOVWF CompTempVar2764+D'3'
084C  0E2A      	MOVLW 0x2A
084E  6E75      	MOVWF CompTempVar2764+D'4'
0850  6A76      	CLRF CompTempVar2764+D'5'
0852  0E00      	MOVLW HIGH(CompTempVar2764+D'0')
0854  6E7B      	MOVWF FCD_0c851__00062_arg_FCL_COMMAND+D'1'
0856  0E71      	MOVLW LOW(CompTempVar2764+D'0')
0858  6E7A      	MOVWF FCD_0c851__00062_arg_FCL_COMMAND
085A  0E06      	MOVLW 0x06
085C  6E7C      	MOVWF FCD_0c851__00062_arg_FCLsz_00063
085E  6A7D      	CLRF FCD_0c851__00062_arg_FCLsz_00063+D'1'
0860  0E01      	MOVLW 0x01
0862  6E7E      	MOVWF FCD_0c851__00062_arg_FCL_SENDCR
0864  ECDFF001  	CALL FCD_0c851__00062
0868  5196      	MOVF CompTempVarRet2696, W, 1
086A  6E70      	MOVWF FCD_0c851__00084_1_FCR_RETVAL
086C  5070      	MOVF FCD_0c851__00084_1_FCR_RETVAL, W
086E  6E71      	MOVWF CompTempVarRet2763
0870  0012      	RETURN
0872            ; } FCD_0c851_Bluetooth2__RestoreFactorySettings function end

	ORG 0x00000872
0872            FCD_0c851__00081
0872            ; { FCD_0c851_Bluetooth2__SetMode ; function begin
0872  5270      	MOVF FCD_0c851__00081_arg_FCL_D_00082, F
0874  E041      	BZ	label105
0876  5271      	MOVF FCD_0c851__00081_arg_FCL_C_00083, F
0878  E020      	BZ	label104
087A  0E41      	MOVLW 0x41
087C  0100      	MOVLB 0x00
087E  6F80      	MOVWF CompTempVar2755, 1
0880  0E54      	MOVLW 0x54
0882  6F81      	MOVWF CompTempVar2755+D'1', 1
0884  0E53      	MOVLW 0x53
0886  6F82      	MOVWF CompTempVar2755+D'2', 1
0888  0E35      	MOVLW 0x35
088A  6F83      	MOVWF CompTempVar2755+D'3', 1
088C  0E31      	MOVLW 0x31
088E  6F84      	MOVWF CompTempVar2755+D'4', 1
0890  0E32      	MOVLW 0x32
0892  6F85      	MOVWF CompTempVar2755+D'5', 1
0894  0E3D      	MOVLW 0x3D
0896  6F86      	MOVWF CompTempVar2755+D'6', 1
0898  0E34      	MOVLW 0x34
089A  6F87      	MOVWF CompTempVar2755+D'7', 1
089C  6B88      	CLRF CompTempVar2755+D'8', 1
089E  0E00      	MOVLW HIGH(CompTempVar2755+D'0')
08A0  6E7B      	MOVWF FCD_0c851__00062_arg_FCL_COMMAND+D'1'
08A2  0E80      	MOVLW LOW(CompTempVar2755+D'0')
08A4  6E7A      	MOVWF FCD_0c851__00062_arg_FCL_COMMAND
08A6  0E09      	MOVLW 0x09
08A8  6E7C      	MOVWF FCD_0c851__00062_arg_FCLsz_00063
08AA  6A7D      	CLRF FCD_0c851__00062_arg_FCLsz_00063+D'1'
08AC  0E01      	MOVLW 0x01
08AE  6E7E      	MOVWF FCD_0c851__00062_arg_FCL_SENDCR
08B0  ECDFF001  	CALL FCD_0c851__00062
08B4  5196      	MOVF CompTempVarRet2696, W, 1
08B6  6E72      	MOVWF FCD_0c851__00081_1_FCR_RETVAL
08B8  D05F      	BRA	label107
08BA            label104
08BA  0E31      	MOVLW 0x31
08BC  0100      	MOVLB 0x00
08BE  6F84      	MOVWF CompTempVar2757+D'4', 1
08C0  0E32      	MOVLW 0x32
08C2  6F85      	MOVWF CompTempVar2757+D'5', 1
08C4  6F87      	MOVWF CompTempVar2757+D'7', 1
08C6  0E35      	MOVLW 0x35
08C8  6F83      	MOVWF CompTempVar2757+D'3', 1
08CA  0E3D      	MOVLW 0x3D
08CC  6F86      	MOVWF CompTempVar2757+D'6', 1
08CE  0E41      	MOVLW 0x41
08D0  6F80      	MOVWF CompTempVar2757, 1
08D2  0E53      	MOVLW 0x53
08D4  6F82      	MOVWF CompTempVar2757+D'2', 1
08D6  0E54      	MOVLW 0x54
08D8  6F81      	MOVWF CompTempVar2757+D'1', 1
08DA  6B88      	CLRF CompTempVar2757+D'8', 1
08DC  0E00      	MOVLW HIGH(CompTempVar2757+D'0')
08DE  6E7B      	MOVWF FCD_0c851__00062_arg_FCL_COMMAND+D'1'
08E0  0E80      	MOVLW LOW(CompTempVar2757+D'0')
08E2  6E7A      	MOVWF FCD_0c851__00062_arg_FCL_COMMAND
08E4  0E09      	MOVLW 0x09
08E6  6E7C      	MOVWF FCD_0c851__00062_arg_FCLsz_00063
08E8  6A7D      	CLRF FCD_0c851__00062_arg_FCLsz_00063+D'1'
08EA  0E01      	MOVLW 0x01
08EC  6E7E      	MOVWF FCD_0c851__00062_arg_FCL_SENDCR
08EE  ECDFF001  	CALL FCD_0c851__00062
08F2  5196      	MOVF CompTempVarRet2696, W, 1
08F4  6E72      	MOVWF FCD_0c851__00081_1_FCR_RETVAL
08F6  D040      	BRA	label107
08F8            label105
08F8  5271      	MOVF FCD_0c851__00081_arg_FCL_C_00083, F
08FA  E01F      	BZ	label106
08FC  0E31      	MOVLW 0x31
08FE  0100      	MOVLB 0x00
0900  6F84      	MOVWF CompTempVar2759+D'4', 1
0902  0E32      	MOVLW 0x32
0904  6F85      	MOVWF CompTempVar2759+D'5', 1
0906  6F87      	MOVWF CompTempVar2759+D'7', 1
0908  0E35      	MOVLW 0x35
090A  6F83      	MOVWF CompTempVar2759+D'3', 1
090C  0E3D      	MOVLW 0x3D
090E  6F86      	MOVWF CompTempVar2759+D'6', 1
0910  0E41      	MOVLW 0x41
0912  6F80      	MOVWF CompTempVar2759, 1
0914  0E53      	MOVLW 0x53
0916  6F82      	MOVWF CompTempVar2759+D'2', 1
0918  0E54      	MOVLW 0x54
091A  6F81      	MOVWF CompTempVar2759+D'1', 1
091C  6B88      	CLRF CompTempVar2759+D'8', 1
091E  0E00      	MOVLW HIGH(CompTempVar2759+D'0')
0920  6E7B      	MOVWF FCD_0c851__00062_arg_FCL_COMMAND+D'1'
0922  0E80      	MOVLW LOW(CompTempVar2759+D'0')
0924  6E7A      	MOVWF FCD_0c851__00062_arg_FCL_COMMAND
0926  0E09      	MOVLW 0x09
0928  6E7C      	MOVWF FCD_0c851__00062_arg_FCLsz_00063
092A  6A7D      	CLRF FCD_0c851__00062_arg_FCLsz_00063+D'1'
092C  0E03      	MOVLW 0x03
092E  6E7E      	MOVWF FCD_0c851__00062_arg_FCL_SENDCR
0930  ECDFF001  	CALL FCD_0c851__00062
0934  5196      	MOVF CompTempVarRet2696, W, 1
0936  6E72      	MOVWF FCD_0c851__00081_1_FCR_RETVAL
0938  D01F      	BRA	label107
093A            label106
093A  0E41      	MOVLW 0x41
093C  0100      	MOVLB 0x00
093E  6F80      	MOVWF CompTempVar2761, 1
0940  0E54      	MOVLW 0x54
0942  6F81      	MOVWF CompTempVar2761+D'1', 1
0944  0E53      	MOVLW 0x53
0946  6F82      	MOVWF CompTempVar2761+D'2', 1
0948  0E35      	MOVLW 0x35
094A  6F83      	MOVWF CompTempVar2761+D'3', 1
094C  0E31      	MOVLW 0x31
094E  6F84      	MOVWF CompTempVar2761+D'4', 1
0950  0E32      	MOVLW 0x32
0952  6F85      	MOVWF CompTempVar2761+D'5', 1
0954  0E3D      	MOVLW 0x3D
0956  6F86      	MOVWF CompTempVar2761+D'6', 1
0958  0E30      	MOVLW 0x30
095A  6F87      	MOVWF CompTempVar2761+D'7', 1
095C  6B88      	CLRF CompTempVar2761+D'8', 1
095E  0E00      	MOVLW HIGH(CompTempVar2761+D'0')
0960  6E7B      	MOVWF FCD_0c851__00062_arg_FCL_COMMAND+D'1'
0962  0E80      	MOVLW LOW(CompTempVar2761+D'0')
0964  6E7A      	MOVWF FCD_0c851__00062_arg_FCL_COMMAND
0966  0E09      	MOVLW 0x09
0968  6E7C      	MOVWF FCD_0c851__00062_arg_FCLsz_00063
096A  6A7D      	CLRF FCD_0c851__00062_arg_FCLsz_00063+D'1'
096C  0E01      	MOVLW 0x01
096E  6E7E      	MOVWF FCD_0c851__00062_arg_FCL_SENDCR
0970  ECDFF001  	CALL FCD_0c851__00062
0974  5196      	MOVF CompTempVarRet2696, W, 1
0976  6E72      	MOVWF FCD_0c851__00081_1_FCR_RETVAL
0978            label107
0978  5072      	MOVF FCD_0c851__00081_1_FCR_RETVAL, W
097A  6E73      	MOVWF CompTempVarRet2754
097C  0012      	RETURN
097E            ; } FCD_0c851_Bluetooth2__SetMode function end

	ORG 0x0000097E
097E            FCD_0c851__0007F
097E            ; { FCD_0c851_Bluetooth2__SaveSettings ; function begin
097E  0E41      	MOVLW 0x41
0980  6E71      	MOVWF CompTempVar2750
0982  0E54      	MOVLW 0x54
0984  6E72      	MOVWF CompTempVar2750+D'1'
0986  0E26      	MOVLW 0x26
0988  6E73      	MOVWF CompTempVar2750+D'2'
098A  0E57      	MOVLW 0x57
098C  6E74      	MOVWF CompTempVar2750+D'3'
098E  6A75      	CLRF CompTempVar2750+D'4'
0990  0E00      	MOVLW HIGH(CompTempVar2750+D'0')
0992  6E7B      	MOVWF FCD_0c851__00062_arg_FCL_COMMAND+D'1'
0994  0E71      	MOVLW LOW(CompTempVar2750+D'0')
0996  6E7A      	MOVWF FCD_0c851__00062_arg_FCL_COMMAND
0998  0E05      	MOVLW 0x05
099A  6E7C      	MOVWF FCD_0c851__00062_arg_FCLsz_00063
099C  6A7D      	CLRF FCD_0c851__00062_arg_FCLsz_00063+D'1'
099E  0E01      	MOVLW 0x01
09A0  6E7E      	MOVWF FCD_0c851__00062_arg_FCL_SENDCR
09A2  ECDFF001  	CALL FCD_0c851__00062
09A6  5196      	MOVF CompTempVarRet2696, W, 1
09A8  6E70      	MOVWF FCD_0c851__0007F_1_FCR_RETVAL
09AA  5270      	MOVF FCD_0c851__0007F_1_FCR_RETVAL, F
09AC  E114      	BNZ	label108
09AE  0E41      	MOVLW 0x41
09B0  6E71      	MOVWF CompTempVar2752
09B2  0E54      	MOVLW 0x54
09B4  6E72      	MOVWF CompTempVar2752+D'1'
09B6  0E5A      	MOVLW 0x5A
09B8  6E73      	MOVWF CompTempVar2752+D'2'
09BA  6A74      	CLRF CompTempVar2752+D'3'
09BC  0E00      	MOVLW HIGH(CompTempVar2752+D'0')
09BE  6E7B      	MOVWF FCD_0c851__00062_arg_FCL_COMMAND+D'1'
09C0  0E71      	MOVLW LOW(CompTempVar2752+D'0')
09C2  6E7A      	MOVWF FCD_0c851__00062_arg_FCL_COMMAND
09C4  0E04      	MOVLW 0x04
09C6  6E7C      	MOVWF FCD_0c851__00062_arg_FCLsz_00063
09C8  6A7D      	CLRF FCD_0c851__00062_arg_FCLsz_00063+D'1'
09CA  0E01      	MOVLW 0x01
09CC  6E7E      	MOVWF FCD_0c851__00062_arg_FCL_SENDCR
09CE  ECDFF001  	CALL FCD_0c851__00062
09D2  5196      	MOVF CompTempVarRet2696, W, 1
09D4  6E70      	MOVWF FCD_0c851__0007F_1_FCR_RETVAL
09D6            label108
09D6  5070      	MOVF FCD_0c851__0007F_1_FCR_RETVAL, W
09D8  6E71      	MOVWF CompTempVarRet2749
09DA  0012      	RETURN
09DC            ; } FCD_0c851_Bluetooth2__SaveSettings function end

	ORG 0x000009DC
09DC            FCD_0c851__00078
09DC            ; { FCD_0c851_Bluetooth2__SetPairKey ; function begin
09DC  0E22      	MOVLW 0x22
09DE  0100      	MOVLB 0x00
09E0  6F9B      	MOVWF CompTempVar2734+D'7', 1
09E2  0E2B      	MOVLW 0x2B
09E4  6F96      	MOVWF CompTempVar2734+D'2', 1
09E6  0E3D      	MOVLW 0x3D
09E8  6F9A      	MOVWF CompTempVar2734+D'6', 1
09EA  0E41      	MOVLW 0x41
09EC  6F94      	MOVWF CompTempVar2734, 1
09EE  0E42      	MOVLW 0x42
09F0  6F97      	MOVWF CompTempVar2734+D'3', 1
09F2  0E4B      	MOVLW 0x4B
09F4  6F99      	MOVWF CompTempVar2734+D'5', 1
09F6  0E54      	MOVLW 0x54
09F8  6F95      	MOVWF CompTempVar2734+D'1', 1
09FA  6F98      	MOVWF CompTempVar2734+D'4', 1
09FC  6B9C      	CLRF CompTempVar2734+D'8', 1
09FE  0E00      	MOVLW HIGH(CompTempVar2734+D'0')
0A00  6E7B      	MOVWF FCI_SHEAD_00000_arg_sSrc1+D'1'
0A02  0E94      	MOVLW LOW(CompTempVar2734+D'0')
0A04  6E7A      	MOVWF FCI_SHEAD_00000_arg_sSrc1
0A06  0E09      	MOVLW 0x09
0A08  6E7C      	MOVWF FCI_SHEAD_00000_arg_iSrc1_len
0A0A  5070      	MOVF FCD_0c851__00078_arg_FCL_PAIRKEY, W
0A0C  6E7D      	MOVWF FCI_SHEAD_00000_arg_sSrc2
0A0E  5071      	MOVF FCD_0c851__00078_arg_FCL_PAIRKEY+D'1', W
0A10  6E7E      	MOVWF FCI_SHEAD_00000_arg_sSrc2+D'1'
0A12  5077      	MOVF FCD_0c851__00078_arg_FCLsz_00079, W
0A14  6E7F      	MOVWF FCI_SHEAD_00000_arg_iSrc2_len
0A16  0E00      	MOVLW HIGH(FCD_0c851__00078_1_FCL_COM_0007A+D'0')
0A18  6F9E      	MOVWF FCI_SHEAD_00000_arg_sDst+D'1', 1
0A1A  0E80      	MOVLW LOW(FCD_0c851__00078_1_FCL_COM_0007A+D'0')
0A1C  6F9D      	MOVWF FCI_SHEAD_00000_arg_sDst, 1
0A1E  0E14      	MOVLW 0x14
0A20  6F9F      	MOVWF FCI_SHEAD_00000_arg_iDst_len, 1
0A22  ECF0F000  	CALL FCI_SHEAD_00000
0A26  0E00      	MOVLW HIGH(FCD_0c851__00078_1_FCL_COM_0007A+D'0')
0A28  6E7B      	MOVWF FCI_SHEAD_00000_arg_sSrc1+D'1'
0A2A  0E80      	MOVLW LOW(FCD_0c851__00078_1_FCL_COM_0007A+D'0')
0A2C  6E7A      	MOVWF FCI_SHEAD_00000_arg_sSrc1
0A2E  0E14      	MOVLW 0x14
0A30  6E7C      	MOVWF FCI_SHEAD_00000_arg_iSrc1_len
0A32  0E22      	MOVLW 0x22
0A34  6F94      	MOVWF CompTempVar2737, 1
0A36  6B95      	CLRF CompTempVar2737+D'1', 1
0A38  0E00      	MOVLW HIGH(CompTempVar2737+D'0')
0A3A  6E7E      	MOVWF FCI_SHEAD_00000_arg_sSrc2+D'1'
0A3C  0E94      	MOVLW LOW(CompTempVar2737+D'0')
0A3E  6E7D      	MOVWF FCI_SHEAD_00000_arg_sSrc2
0A40  0E02      	MOVLW 0x02
0A42  6E7F      	MOVWF FCI_SHEAD_00000_arg_iSrc2_len
0A44  0E00      	MOVLW HIGH(FCD_0c851__00078_1_FCL_COM_0007A+D'0')
0A46  6F9E      	MOVWF FCI_SHEAD_00000_arg_sDst+D'1', 1
0A48  0E80      	MOVLW LOW(FCD_0c851__00078_1_FCL_COM_0007A+D'0')
0A4A  6F9D      	MOVWF FCI_SHEAD_00000_arg_sDst, 1
0A4C  0E14      	MOVLW 0x14
0A4E  6F9F      	MOVWF FCI_SHEAD_00000_arg_iDst_len, 1
0A50  ECF0F000  	CALL FCI_SHEAD_00000
0A54  0E00      	MOVLW HIGH(FCD_0c851__00078_1_FCL_COM_0007A+D'0')
0A56  6E7B      	MOVWF FCD_0c851__00062_arg_FCL_COMMAND+D'1'
0A58  0E80      	MOVLW LOW(FCD_0c851__00078_1_FCL_COM_0007A+D'0')
0A5A  6E7A      	MOVWF FCD_0c851__00062_arg_FCL_COMMAND
0A5C  0E14      	MOVLW 0x14
0A5E  6E7C      	MOVWF FCD_0c851__00062_arg_FCLsz_00063
0A60  6A7D      	CLRF FCD_0c851__00062_arg_FCLsz_00063+D'1'
0A62  0E01      	MOVLW 0x01
0A64  6E7E      	MOVWF FCD_0c851__00062_arg_FCL_SENDCR
0A66  ECDFF001  	CALL FCD_0c851__00062
0A6A  5196      	MOVF CompTempVarRet2696, W, 1
0A6C  6E79      	MOVWF FCD_0c851__00078_1_FCR_RETVAL
0A6E  5079      	MOVF FCD_0c851__00078_1_FCR_RETVAL, W
0A70  6E7A      	MOVWF CompTempVarRet2733
0A72  0012      	RETURN
0A74            ; } FCD_0c851_Bluetooth2__SetPairKey function end

	ORG 0x00000A74
0A74            FCD_04071__00061
0A74            ; { FCD_04071_LCD__Clear ; function begin
0A74  0E01      	MOVLW 0x01
0A76  6E7F      	MOVWF FCD_04071__00066_arg_FCL_DATA
0A78  0100      	MOVLB 0x00
0A7A  9180      	BCF FCD_04071__00066_arg_FCL_TYPE,0, 1
0A7C  EC17F002  	CALL FCD_04071__00066
0A80  0E02      	MOVLW 0x02
0A82  6E70      	MOVWF delay_ms_00000_arg_del
0A84  EC0BF000  	CALL delay_ms_00000
0A88  0E02      	MOVLW 0x02
0A8A  6E7F      	MOVWF FCD_04071__00066_arg_FCL_DATA
0A8C  9180      	BCF FCD_04071__00066_arg_FCL_TYPE,0, 1
0A8E  EC17F002  	CALL FCD_04071__00066
0A92  0E02      	MOVLW 0x02
0A94  6E70      	MOVWF delay_ms_00000_arg_del
0A96  EC0BF000  	CALL delay_ms_00000
0A9A  0012      	RETURN
0A9C            ; } FCD_04071_LCD__Clear function end

	ORG 0x00000A9C
0A9C            FCM_SET_AS_00058
0A9C            ; { FCM_SET_ASCII_CHARATERS ; function begin
0A9C  0101      	MOVLB 0x01
0A9E  6B30      	CLRF gbl_FCV_ASCII+D'48', 1
0AA0  0E01      	MOVLW 0x01
0AA2  6F31      	MOVWF gbl_FCV_ASCII+D'49', 1
0AA4  0E02      	MOVLW 0x02
0AA6  6F32      	MOVWF gbl_FCV_ASCII+D'50', 1
0AA8  0E03      	MOVLW 0x03
0AAA  6F33      	MOVWF gbl_FCV_ASCII+D'51', 1
0AAC  0E04      	MOVLW 0x04
0AAE  6F34      	MOVWF gbl_FCV_ASCII+D'52', 1
0AB0  0E05      	MOVLW 0x05
0AB2  6F35      	MOVWF gbl_FCV_ASCII+D'53', 1
0AB4  0E06      	MOVLW 0x06
0AB6  6F36      	MOVWF gbl_FCV_ASCII+D'54', 1
0AB8  0E07      	MOVLW 0x07
0ABA  6F37      	MOVWF gbl_FCV_ASCII+D'55', 1
0ABC  0E08      	MOVLW 0x08
0ABE  6F38      	MOVWF gbl_FCV_ASCII+D'56', 1
0AC0  0E09      	MOVLW 0x09
0AC2  6F39      	MOVWF gbl_FCV_ASCII+D'57', 1
0AC4  0E0A      	MOVLW 0x0A
0AC6  6F3A      	MOVWF gbl_FCV_ASCII+D'58', 1
0AC8  0012      	RETURN
0ACA            ; } FCM_SET_ASCII_CHARATERS function end

	ORG 0x00000ACA
0ACA            FCI_TOSTRI_00042
0ACA            ; { FCI_TOSTRING ; function begin
0ACA  5067      	MOVF FCI_TOSTRI_00042_arg_iSrc1, W
0ACC  6E6F      	MOVWF FCI_TOSTRI_00042_1_iSrc
0ACE  5068      	MOVF FCI_TOSTRI_00042_arg_iSrc1+D'1', W
0AD0  6E70      	MOVWF FCI_TOSTRI_00042_1_iSrc+D'1'
0AD2  5069      	MOVF FCI_TOSTRI_00042_arg_iSrc1+D'2', W
0AD4  6E71      	MOVWF FCI_TOSTRI_00042_1_iSrc+D'2'
0AD6  506A      	MOVF FCI_TOSTRI_00042_arg_iSrc1+D'3', W
0AD8  6E72      	MOVWF FCI_TOSTRI_00042_1_iSrc+D'3'
0ADA  6A73      	CLRF FCI_TOSTRI_00042_1_top
0ADC  0ECA      	MOVLW 0xCA
0ADE  6E74      	MOVWF FCI_TOSTRI_00042_1_top+D'1'
0AE0  0E9A      	MOVLW 0x9A
0AE2  6E75      	MOVWF FCI_TOSTRI_00042_1_top+D'2'
0AE4  0E3B      	MOVLW 0x3B
0AE6  6E76      	MOVWF FCI_TOSTRI_00042_1_top+D'3'
0AE8  6A77      	CLRF FCI_TOSTRI_00042_1_idx
0AEA  526D      	MOVF FCI_TOSTRI_00042_arg_iDst_len, F
0AEC  E105      	BNZ	label109
0AEE  506B      	MOVF FCI_TOSTRI_00042_arg_sDst, W
0AF0  6E78      	MOVWF CompTempVarRet1863
0AF2  506C      	MOVF FCI_TOSTRI_00042_arg_sDst+D'1', W
0AF4  6E79      	MOVWF CompTempVarRet1863+D'1'
0AF6  0012      	RETURN
0AF8            label109
0AF8  AE72      	BTFSS FCI_TOSTRI_00042_1_iSrc+D'3',7
0AFA  D014      	BRA	label110
0AFC  506C      	MOVF FCI_TOSTRI_00042_arg_sDst+D'1', W
0AFE  6EEA      	MOVWF FSR0H
0B00  506B      	MOVF FCI_TOSTRI_00042_arg_sDst, W
0B02  6EE9      	MOVWF FSR0L
0B04  6A7A      	CLRF CompTempVar1865
0B06  507A      	MOVF CompTempVar1865, W
0B08  26E9      	ADDWF FSR0L, F
0B0A  0E2D      	MOVLW 0x2D
0B0C  6EEF      	MOVWF INDF0
0B0E  2A77      	INCF FCI_TOSTRI_00042_1_idx, F
0B10  1E6F      	COMF FCI_TOSTRI_00042_1_iSrc, F
0B12  1E70      	COMF FCI_TOSTRI_00042_1_iSrc+D'1', F
0B14  1E71      	COMF FCI_TOSTRI_00042_1_iSrc+D'2', F
0B16  1E72      	COMF FCI_TOSTRI_00042_1_iSrc+D'3', F
0B18  3E6F      	INCFSZ FCI_TOSTRI_00042_1_iSrc, F
0B1A  D004      	BRA	label110
0B1C  3E70      	INCFSZ FCI_TOSTRI_00042_1_iSrc+D'1', F
0B1E  D002      	BRA	label110
0B20  4A71      	INFSNZ FCI_TOSTRI_00042_1_iSrc+D'2', F
0B22  2A72      	INCF FCI_TOSTRI_00042_1_iSrc+D'3', F
0B24            label110
0B24  6A6E      	CLRF FCI_TOSTRI_00042_1_tmp1
0B26  506F      	MOVF FCI_TOSTRI_00042_1_iSrc, W
0B28  1070      	IORWF FCI_TOSTRI_00042_1_iSrc+D'1', W
0B2A  1071      	IORWF FCI_TOSTRI_00042_1_iSrc+D'2', W
0B2C  1072      	IORWF FCI_TOSTRI_00042_1_iSrc+D'3', W
0B2E  0BFF      	ANDLW 0xFF
0B30  E106      	BNZ	label111
0B32  0E01      	MOVLW 0x01
0B34  6E6E      	MOVWF FCI_TOSTRI_00042_1_tmp1
0B36  6E73      	MOVWF FCI_TOSTRI_00042_1_top
0B38  6A74      	CLRF FCI_TOSTRI_00042_1_top+D'1'
0B3A  6A75      	CLRF FCI_TOSTRI_00042_1_top+D'2'
0B3C  6A76      	CLRF FCI_TOSTRI_00042_1_top+D'3'
0B3E            label111
0B3E  506D      	MOVF FCI_TOSTRI_00042_arg_iDst_len, W
0B40  6077      	CPFSLT FCI_TOSTRI_00042_1_idx
0B42  D074      	BRA	label116
0B44  5076      	MOVF FCI_TOSTRI_00042_1_top+D'3', W
0B46  0800      	SUBLW 0x00
0B48  E108      	BNZ	label112
0B4A  5075      	MOVF FCI_TOSTRI_00042_1_top+D'2', W
0B4C  0800      	SUBLW 0x00
0B4E  E105      	BNZ	label112
0B50  5074      	MOVF FCI_TOSTRI_00042_1_top+D'1', W
0B52  0800      	SUBLW 0x00
0B54  E102      	BNZ	label112
0B56  5073      	MOVF FCI_TOSTRI_00042_1_top, W
0B58  0800      	SUBLW 0x00
0B5A            label112
0B5A  E268      	BC	label116
0B5C  5076      	MOVF FCI_TOSTRI_00042_1_top+D'3', W
0B5E  5C72      	SUBWF FCI_TOSTRI_00042_1_iSrc+D'3', W
0B60  E108      	BNZ	label113
0B62  5075      	MOVF FCI_TOSTRI_00042_1_top+D'2', W
0B64  5C71      	SUBWF FCI_TOSTRI_00042_1_iSrc+D'2', W
0B66  E105      	BNZ	label113
0B68  5074      	MOVF FCI_TOSTRI_00042_1_top+D'1', W
0B6A  5C70      	SUBWF FCI_TOSTRI_00042_1_iSrc+D'1', W
0B6C  E102      	BNZ	label113
0B6E  5073      	MOVF FCI_TOSTRI_00042_1_top, W
0B70  5C6F      	SUBWF FCI_TOSTRI_00042_1_iSrc, W
0B72            label113
0B72  E202      	BC	label114
0B74  526E      	MOVF FCI_TOSTRI_00042_1_tmp1, F
0B76  E041      	BZ	label115
0B78            label114
0B78  506F      	MOVF FCI_TOSTRI_00042_1_iSrc, W
0B7A  6E7A      	MOVWF __div_32_3_00004_arg_a
0B7C  5070      	MOVF FCI_TOSTRI_00042_1_iSrc+D'1', W
0B7E  6E7B      	MOVWF __div_32_3_00004_arg_a+D'1'
0B80  5071      	MOVF FCI_TOSTRI_00042_1_iSrc+D'2', W
0B82  6E7C      	MOVWF __div_32_3_00004_arg_a+D'2'
0B84  5072      	MOVF FCI_TOSTRI_00042_1_iSrc+D'3', W
0B86  6E7D      	MOVWF __div_32_3_00004_arg_a+D'3'
0B88  5073      	MOVF FCI_TOSTRI_00042_1_top, W
0B8A  0100      	MOVLB 0x00
0B8C  6F80      	MOVWF __div_32_3_00004_arg_b, 1
0B8E  5074      	MOVF FCI_TOSTRI_00042_1_top+D'1', W
0B90  6F81      	MOVWF __div_32_3_00004_arg_b+D'1', 1
0B92  5075      	MOVF FCI_TOSTRI_00042_1_top+D'2', W
0B94  6F82      	MOVWF __div_32_3_00004_arg_b+D'2', 1
0B96  5076      	MOVF FCI_TOSTRI_00042_1_top+D'3', W
0B98  6F83      	MOVWF __div_32_3_00004_arg_b+D'3', 1
0B9A  ECB4F003  	CALL __div_32_3_00004
0B9E  5188      	MOVF CompTempVarRet172, W, 1
0BA0  6E6E      	MOVWF FCI_TOSTRI_00042_1_tmp1
0BA2  506E      	MOVF FCI_TOSTRI_00042_1_tmp1, W
0BA4  0F30      	ADDLW 0x30
0BA6  6E7A      	MOVWF CompTempVar1871
0BA8  506C      	MOVF FCI_TOSTRI_00042_arg_sDst+D'1', W
0BAA  6EEA      	MOVWF FSR0H
0BAC  506B      	MOVF FCI_TOSTRI_00042_arg_sDst, W
0BAE  2477      	ADDWF FCI_TOSTRI_00042_1_idx, W
0BB0  6EE9      	MOVWF FSR0L
0BB2  507A      	MOVF CompTempVar1871, W
0BB4  6EEF      	MOVWF INDF0
0BB6  2A77      	INCF FCI_TOSTRI_00042_1_idx, F
0BB8  506E      	MOVF FCI_TOSTRI_00042_1_tmp1, W
0BBA  6E7A      	MOVWF __mul_32_3_00009_arg_a
0BBC  6A7B      	CLRF __mul_32_3_00009_arg_a+D'1'
0BBE  6A7C      	CLRF __mul_32_3_00009_arg_a+D'2'
0BC0  6A7D      	CLRF __mul_32_3_00009_arg_a+D'3'
0BC2  5073      	MOVF FCI_TOSTRI_00042_1_top, W
0BC4  6F80      	MOVWF __mul_32_3_00009_arg_b, 1
0BC6  5074      	MOVF FCI_TOSTRI_00042_1_top+D'1', W
0BC8  6F81      	MOVWF __mul_32_3_00009_arg_b+D'1', 1
0BCA  5075      	MOVF FCI_TOSTRI_00042_1_top+D'2', W
0BCC  6F82      	MOVWF __mul_32_3_00009_arg_b+D'2', 1
0BCE  5076      	MOVF FCI_TOSTRI_00042_1_top+D'3', W
0BD0  6F83      	MOVWF __mul_32_3_00009_arg_b+D'3', 1
0BD2  EC75F003  	CALL __mul_32_3_00009
0BD6  5186      	MOVF CompTempVarRet414, W, 1
0BD8  6E7E      	MOVWF CompTempVar1872
0BDA  5187      	MOVF CompTempVarRet414+D'1', W, 1
0BDC  6E7F      	MOVWF CompTempVar1873
0BDE  5188      	MOVF CompTempVarRet414+D'2', W, 1
0BE0  6F84      	MOVWF CompTempVar1874, 1
0BE2  5189      	MOVF CompTempVarRet414+D'3', W, 1
0BE4  6F85      	MOVWF CompTempVar1875, 1
0BE6  507E      	MOVF CompTempVar1872, W
0BE8  5E6F      	SUBWF FCI_TOSTRI_00042_1_iSrc, F
0BEA  507F      	MOVF CompTempVar1873, W
0BEC  5A70      	SUBWFB FCI_TOSTRI_00042_1_iSrc+D'1', F
0BEE  5184      	MOVF CompTempVar1874, W, 1
0BF0  5A71      	SUBWFB FCI_TOSTRI_00042_1_iSrc+D'2', F
0BF2  5185      	MOVF CompTempVar1875, W, 1
0BF4  5A72      	SUBWFB FCI_TOSTRI_00042_1_iSrc+D'3', F
0BF6  0E01      	MOVLW 0x01
0BF8  6E6E      	MOVWF FCI_TOSTRI_00042_1_tmp1
0BFA            label115
0BFA  5073      	MOVF FCI_TOSTRI_00042_1_top, W
0BFC  6E7A      	MOVWF __div_32_3_00004_arg_a
0BFE  5074      	MOVF FCI_TOSTRI_00042_1_top+D'1', W
0C00  6E7B      	MOVWF __div_32_3_00004_arg_a+D'1'
0C02  5075      	MOVF FCI_TOSTRI_00042_1_top+D'2', W
0C04  6E7C      	MOVWF __div_32_3_00004_arg_a+D'2'
0C06  5076      	MOVF FCI_TOSTRI_00042_1_top+D'3', W
0C08  6E7D      	MOVWF __div_32_3_00004_arg_a+D'3'
0C0A  0E0A      	MOVLW 0x0A
0C0C  0100      	MOVLB 0x00
0C0E  6F80      	MOVWF __div_32_3_00004_arg_b, 1
0C10  6B81      	CLRF __div_32_3_00004_arg_b+D'1', 1
0C12  6B82      	CLRF __div_32_3_00004_arg_b+D'2', 1
0C14  6B83      	CLRF __div_32_3_00004_arg_b+D'3', 1
0C16  ECB4F003  	CALL __div_32_3_00004
0C1A  5188      	MOVF CompTempVarRet172, W, 1
0C1C  6E73      	MOVWF FCI_TOSTRI_00042_1_top
0C1E  5189      	MOVF CompTempVarRet172+D'1', W, 1
0C20  6E74      	MOVWF FCI_TOSTRI_00042_1_top+D'1'
0C22  518A      	MOVF CompTempVarRet172+D'2', W, 1
0C24  6E75      	MOVWF FCI_TOSTRI_00042_1_top+D'2'
0C26  518B      	MOVF CompTempVarRet172+D'3', W, 1
0C28  6E76      	MOVWF FCI_TOSTRI_00042_1_top+D'3'
0C2A  D789      	BRA	label111
0C2C            label116
0C2C  506D      	MOVF FCI_TOSTRI_00042_arg_iDst_len, W
0C2E  6077      	CPFSLT FCI_TOSTRI_00042_1_idx
0C30  D007      	BRA	label117
0C32  506C      	MOVF FCI_TOSTRI_00042_arg_sDst+D'1', W
0C34  6EEA      	MOVWF FSR0H
0C36  506B      	MOVF FCI_TOSTRI_00042_arg_sDst, W
0C38  2477      	ADDWF FCI_TOSTRI_00042_1_idx, W
0C3A  6EE9      	MOVWF FSR0L
0C3C  0E00      	MOVLW 0x00
0C3E  6EEF      	MOVWF INDF0
0C40            label117
0C40  506B      	MOVF FCI_TOSTRI_00042_arg_sDst, W
0C42  6E78      	MOVWF CompTempVarRet1863
0C44  506C      	MOVF FCI_TOSTRI_00042_arg_sDst+D'1', W
0C46  6E79      	MOVWF CompTempVarRet1863+D'1'
0C48  0012      	RETURN
0C4A            ; } FCI_TOSTRING function end

	ORG 0x00000C4A
0C4A            FCD_0c851__00054
0C4A            ; { FCD_0c851_Bluetooth2__SendScript ; function begin
0C4A  6A5C      	CLRF FCD_0c851__00054_1_FCL_I
0C4C  685D      	SETF FCD_0c851__00054_1_FCL_CH
0C4E  6A5E      	CLRF FCD_0c851__00054_1_FCL_LEN
0C50  0E01      	MOVLW 0x01
0C52  605B      	CPFSLT FCD_0c851__00054_arg_FCL_IDX
0C54  D001      	BRA	label118
0C56  D003      	BRA	label119
0C58            label118
0C58  0E02      	MOVLW 0x02
0C5A  645B      	CPFSGT FCD_0c851__00054_arg_FCL_IDX
0C5C  D002      	BRA	label120
0C5E            label119
0C5E  685F      	SETF FCD_0c851__00054_1_FCR_RETVAL
0C60  D0E1      	BRA	label132
0C62            label120
0C62  045B      	DECF FCD_0c851__00054_arg_FCL_IDX, W
0C64  E00C      	BZ	label123
0C66  0E02      	MOVLW 0x02
0C68  625B      	CPFSEQ FCD_0c851__00054_arg_FCL_IDX
0C6A  D001      	BRA	label121
0C6C  D04F      	BRA	label124
0C6E            label121
0C6E  0E03      	MOVLW 0x03
0C70  625B      	CPFSEQ FCD_0c851__00054_arg_FCL_IDX
0C72  D001      	BRA	label122
0C74  D082      	BRA	label125
0C76            label122
0C76  0E04      	MOVLW 0x04
0C78  625B      	CPFSEQ FCD_0c851__00054_arg_FCL_IDX
0C7A  D09F      	BRA	label127
0C7C  D08E      	BRA	label126
0C7E            label123
0C7E  0E0A      	MOVLW 0x0A
0C80  0100      	MOVLB 0x00
0C82  6FAF      	MOVWF CompTempVar2655+D'7', 1
0C84  6FB4      	MOVWF CompTempVar2655+D'12', 1
0C86  6FBE      	MOVWF CompTempVar2655+D'22', 1
0C88  6FC8      	MOVWF CompTempVar2655+D'32', 1
0C8A  0E0D      	MOVLW 0x0D
0C8C  6FAE      	MOVWF CompTempVar2655+D'6', 1
0C8E  6FB3      	MOVWF CompTempVar2655+D'11', 1
0C90  6FBD      	MOVWF CompTempVar2655+D'21', 1
0C92  6FC7      	MOVWF CompTempVar2655+D'31', 1
0C94  0E30      	MOVLW 0x30
0C96  6FAB      	MOVWF CompTempVar2655+D'3', 1
0C98  6FCD      	MOVWF CompTempVar2655+D'37', 1
0C9A  0E31      	MOVLW 0x31
0C9C  6FAD      	MOVWF CompTempVar2655+D'5', 1
0C9E  6FB9      	MOVWF CompTempVar2655+D'17', 1
0CA0  6FC6      	MOVWF CompTempVar2655+D'30', 1
0CA2  0E32      	MOVLW 0x32
0CA4  6FBA      	MOVWF CompTempVar2655+D'18', 1
0CA6  6FCE      	MOVWF CompTempVar2655+D'38', 1
0CA8  0E33      	MOVLW 0x33
0CAA  6FC3      	MOVWF CompTempVar2655+D'27', 1
0CAC  0E35      	MOVLW 0x35
0CAE  6FB8      	MOVWF CompTempVar2655+D'16', 1
0CB0  6FC2      	MOVWF CompTempVar2655+D'26', 1
0CB2  6FCC      	MOVWF CompTempVar2655+D'36', 1
0CB4  0E36      	MOVLW 0x36
0CB6  6FC4      	MOVWF CompTempVar2655+D'28', 1
0CB8  0E37      	MOVLW 0x37
0CBA  6FBC      	MOVWF CompTempVar2655+D'20', 1
0CBC  0E3D      	MOVLW 0x3D
0CBE  6FAC      	MOVWF CompTempVar2655+D'4', 1
0CC0  6FBB      	MOVWF CompTempVar2655+D'19', 1
0CC2  6FC5      	MOVWF CompTempVar2655+D'29', 1
0CC4  6FCF      	MOVWF CompTempVar2655+D'39', 1
0CC6  0E41      	MOVLW 0x41
0CC8  6FA8      	MOVWF CompTempVar2655, 1
0CCA  6FB0      	MOVWF CompTempVar2655+D'8', 1
0CCC  6FB5      	MOVWF CompTempVar2655+D'13', 1
0CCE  6FBF      	MOVWF CompTempVar2655+D'23', 1
0CD0  6FC9      	MOVWF CompTempVar2655+D'33', 1
0CD2  0E52      	MOVLW 0x52
0CD4  6FB2      	MOVWF CompTempVar2655+D'10', 1
0CD6  0E53      	MOVLW 0x53
0CD8  6FAA      	MOVWF CompTempVar2655+D'2', 1
0CDA  6FB7      	MOVWF CompTempVar2655+D'15', 1
0CDC  6FC1      	MOVWF CompTempVar2655+D'25', 1
0CDE  6FCB      	MOVWF CompTempVar2655+D'35', 1
0CE0  0E54      	MOVLW 0x54
0CE2  6FA9      	MOVWF CompTempVar2655+D'1', 1
0CE4  6FB1      	MOVWF CompTempVar2655+D'9', 1
0CE6  6FB6      	MOVWF CompTempVar2655+D'14', 1
0CE8  6FC0      	MOVWF CompTempVar2655+D'24', 1
0CEA  6FCA      	MOVWF CompTempVar2655+D'34', 1
0CEC  6BD0      	CLRF CompTempVar2655+D'40', 1
0CEE  0E00      	MOVLW HIGH(CompTempVar2655+D'0')
0CF0  6E61      	MOVWF FCI_SCOPY_00000_arg_sSrc+D'1'
0CF2  0EA8      	MOVLW LOW(CompTempVar2655+D'0')
0CF4  6E60      	MOVWF FCI_SCOPY_00000_arg_sSrc
0CF6  0E29      	MOVLW 0x29
0CF8  6E7C      	MOVWF FCI_SCOPY_00000_arg_iSrc_len
0CFA  0E00      	MOVLW HIGH(FCD_0c851__00054_1_FCL_SCR_00055+D'0')
0CFC  6E7E      	MOVWF FCI_SCOPY_00000_arg_sDst+D'1'
0CFE  0E80      	MOVLW LOW(FCD_0c851__00054_1_FCL_SCR_00055+D'0')
0D00  6E7D      	MOVWF FCI_SCOPY_00000_arg_sDst
0D02  0E28      	MOVLW 0x28
0D04  6E7F      	MOVWF FCI_SCOPY_00000_arg_iDst_len
0D06  ECF1F003  	CALL FCI_SCOPY_00000
0D0A  D059      	BRA	label128
0D0C            label124
0D0C  0E0A      	MOVLW 0x0A
0D0E  6E6B      	MOVWF CompTempVar2658+D'9'
0D10  6E70      	MOVWF CompTempVar2658+D'14'
0D12  6E76      	MOVWF CompTempVar2658+D'20'
0D14  0E0D      	MOVLW 0x0D
0D16  6E6A      	MOVWF CompTempVar2658+D'8'
0D18  6E6F      	MOVWF CompTempVar2658+D'13'
0D1A  6E75      	MOVWF CompTempVar2658+D'19'
0D1C  0E26      	MOVLW 0x26
0D1E  6E73      	MOVWF CompTempVar2658+D'17'
0D20  0E30      	MOVLW 0x30
0D22  6E7A      	MOVWF CompTempVar2658+D'24'
0D24  0E31      	MOVLW 0x31
0D26  6E67      	MOVWF CompTempVar2658+D'5'
0D28  0E32      	MOVLW 0x32
0D2A  6E69      	MOVWF CompTempVar2658+D'7'
0D2C  0E33      	MOVLW 0x33
0D2E  6E66      	MOVWF CompTempVar2658+D'4'
0D30  0E35      	MOVLW 0x35
0D32  6E65      	MOVWF CompTempVar2658+D'3'
0D34  0E3D      	MOVLW 0x3D
0D36  6E68      	MOVWF CompTempVar2658+D'6'
0D38  0E41      	MOVLW 0x41
0D3A  6E62      	MOVWF CompTempVar2658
0D3C  6E6C      	MOVWF CompTempVar2658+D'10'
0D3E  6E6E      	MOVWF CompTempVar2658+D'12'
0D40  6E71      	MOVWF CompTempVar2658+D'15'
0D42  6E77      	MOVWF CompTempVar2658+D'21'
0D44  0E53      	MOVLW 0x53
0D46  6E64      	MOVWF CompTempVar2658+D'2'
0D48  0E54      	MOVLW 0x54
0D4A  6E63      	MOVWF CompTempVar2658+D'1'
0D4C  6E6D      	MOVWF CompTempVar2658+D'11'
0D4E  6E72      	MOVWF CompTempVar2658+D'16'
0D50  6E78      	MOVWF CompTempVar2658+D'22'
0D52  0E57      	MOVLW 0x57
0D54  6E74      	MOVWF CompTempVar2658+D'18'
0D56  0E5A      	MOVLW 0x5A
0D58  6E79      	MOVWF CompTempVar2658+D'23'
0D5A  6A7B      	CLRF CompTempVar2658+D'25'
0D5C  0E00      	MOVLW HIGH(CompTempVar2658+D'0')
0D5E  6E61      	MOVWF FCI_SCOPY_00000_arg_sSrc+D'1'
0D60  0E62      	MOVLW LOW(CompTempVar2658+D'0')
0D62  6E60      	MOVWF FCI_SCOPY_00000_arg_sSrc
0D64  0E1A      	MOVLW 0x1A
0D66  6E7C      	MOVWF FCI_SCOPY_00000_arg_iSrc_len
0D68  0E00      	MOVLW HIGH(FCD_0c851__00054_1_FCL_SCR_00055+D'0')
0D6A  6E7E      	MOVWF FCI_SCOPY_00000_arg_sDst+D'1'
0D6C  0E80      	MOVLW LOW(FCD_0c851__00054_1_FCL_SCR_00055+D'0')
0D6E  6E7D      	MOVWF FCI_SCOPY_00000_arg_sDst
0D70  0E28      	MOVLW 0x28
0D72  6E7F      	MOVWF FCI_SCOPY_00000_arg_iDst_len
0D74  ECF1F003  	CALL FCI_SCOPY_00000
0D78  D022      	BRA	label128
0D7A            label125
0D7A  6A62      	CLRF CompTempVar2661
0D7C  0E00      	MOVLW HIGH(CompTempVar2661+D'0')
0D7E  6E61      	MOVWF FCI_SCOPY_00000_arg_sSrc+D'1'
0D80  0E62      	MOVLW LOW(CompTempVar2661+D'0')
0D82  6E60      	MOVWF FCI_SCOPY_00000_arg_sSrc
0D84  0E01      	MOVLW 0x01
0D86  6E7C      	MOVWF FCI_SCOPY_00000_arg_iSrc_len
0D88  0E00      	MOVLW HIGH(FCD_0c851__00054_1_FCL_SCR_00055+D'0')
0D8A  6E7E      	MOVWF FCI_SCOPY_00000_arg_sDst+D'1'
0D8C  0E80      	MOVLW LOW(FCD_0c851__00054_1_FCL_SCR_00055+D'0')
0D8E  6E7D      	MOVWF FCI_SCOPY_00000_arg_sDst
0D90  0E28      	MOVLW 0x28
0D92  6E7F      	MOVWF FCI_SCOPY_00000_arg_iDst_len
0D94  ECF1F003  	CALL FCI_SCOPY_00000
0D98  D012      	BRA	label128
0D9A            label126
0D9A  6A62      	CLRF CompTempVar2664
0D9C  0E00      	MOVLW HIGH(CompTempVar2664+D'0')
0D9E  6E61      	MOVWF FCI_SCOPY_00000_arg_sSrc+D'1'
0DA0  0E62      	MOVLW LOW(CompTempVar2664+D'0')
0DA2  6E60      	MOVWF FCI_SCOPY_00000_arg_sSrc
0DA4  0E01      	MOVLW 0x01
0DA6  6E7C      	MOVWF FCI_SCOPY_00000_arg_iSrc_len
0DA8  0E00      	MOVLW HIGH(FCD_0c851__00054_1_FCL_SCR_00055+D'0')
0DAA  6E7E      	MOVWF FCI_SCOPY_00000_arg_sDst+D'1'
0DAC  0E80      	MOVLW LOW(FCD_0c851__00054_1_FCL_SCR_00055+D'0')
0DAE  6E7D      	MOVWF FCI_SCOPY_00000_arg_sDst
0DB0  0E28      	MOVLW 0x28
0DB2  6E7F      	MOVWF FCI_SCOPY_00000_arg_iDst_len
0DB4  ECF1F003  	CALL FCI_SCOPY_00000
0DB8  D002      	BRA	label128
0DBA            label127
0DBA  685F      	SETF FCD_0c851__00054_1_FCR_RETVAL
0DBC  D033      	BRA	label132
0DBE            label128
0DBE  0E00      	MOVLW 0x00
0DC0  645D      	CPFSGT FCD_0c851__00054_1_FCL_CH
0DC2  D022      	BRA	label131
0DC4  EE00F080  	LFSR 0x00, FCD_0c851__00054_1_FCL_SCR_00055
0DC8  50E9      	MOVF FSR0L, W
0DCA  505C      	MOVF FCD_0c851__00054_1_FCL_I, W
0DCC  26E9      	ADDWF FSR0L, F
0DCE  50EF      	MOVF INDF0, W
0DD0  6E5D      	MOVWF FCD_0c851__00054_1_FCL_CH
0DD2  0E00      	MOVLW 0x00
0DD4  645D      	CPFSGT FCD_0c851__00054_1_FCL_CH
0DD6  D015      	BRA	label130
0DD8  0E0A      	MOVLW 0x0A
0DDA  625D      	CPFSEQ FCD_0c851__00054_1_FCL_CH
0DDC  D001      	BRA	label129
0DDE  D011      	BRA	label130
0DE0            label129
0DE0  505D      	MOVF FCD_0c851__00054_1_FCL_CH, W
0DE2  6FA8      	MOVWF FC_CAL_UAR_00075_arg_nChar, 1
0DE4  6BA9      	CLRF FC_CAL_UAR_00075_arg_nChar+D'1', 1
0DE6  ECB0F000  	CALL FC_CAL_UAR_00075
0DEA  285E      	INCF FCD_0c851__00054_1_FCL_LEN, W
0DEC  6E5E      	MOVWF FCD_0c851__00054_1_FCL_LEN
0DEE  0E0D      	MOVLW 0x0D
0DF0  625D      	CPFSEQ FCD_0c851__00054_1_FCL_CH
0DF2  D007      	BRA	label130
0DF4  ECC8F000  	CALL FCD_0c851__0007B
0DF8  ECC8F000  	CALL FCD_0c851__0007B
0DFC  51AB      	MOVF CompTempVarRet2742, W, 1
0DFE  6E5F      	MOVWF FCD_0c851__00054_1_FCR_RETVAL
0E00  6A5E      	CLRF FCD_0c851__00054_1_FCL_LEN
0E02            label130
0E02  285C      	INCF FCD_0c851__00054_1_FCL_I, W
0E04  6E5C      	MOVWF FCD_0c851__00054_1_FCL_I
0E06  D7DB      	BRA	label128
0E08            label131
0E08  0E00      	MOVLW 0x00
0E0A  645E      	CPFSGT FCD_0c851__00054_1_FCL_LEN
0E0C  D00B      	BRA	label132
0E0E  0E0D      	MOVLW 0x0D
0E10  6FA8      	MOVWF FC_CAL_UAR_00075_arg_nChar, 1
0E12  6BA9      	CLRF FC_CAL_UAR_00075_arg_nChar+D'1', 1
0E14  ECB0F000  	CALL FC_CAL_UAR_00075
0E18  ECC8F000  	CALL FCD_0c851__0007B
0E1C  ECC8F000  	CALL FCD_0c851__0007B
0E20  51AB      	MOVF CompTempVarRet2742, W, 1
0E22  6E5F      	MOVWF FCD_0c851__00054_1_FCR_RETVAL
0E24            label132
0E24  505F      	MOVF FCD_0c851__00054_1_FCR_RETVAL, W
0E26  6E60      	MOVWF CompTempVarRet2654
0E28  0012      	RETURN
0E2A            ; } FCD_0c851_Bluetooth2__SendScript function end

	ORG 0x00000E2A
0E2A            FCD_0c851__00052
0E2A            ; { FCD_0c851_Bluetooth2__Initialise ; function begin
0E2A  6A70      	CLRF FCD_0c851__00052_2_ptmp
0E2C  9293      	BCF gbl_trisb,1
0E2E  5270      	MOVF FCD_0c851__00052_2_ptmp, F
0E30  E004      	BZ	label133
0E32  0E02      	MOVLW 0x02
0E34  108A      	IORWF gbl_latb, W
0E36  6E81      	MOVWF gbl_portb
0E38  D003      	BRA	label134
0E3A            label133
0E3A  0EFD      	MOVLW 0xFD
0E3C  148A      	ANDWF gbl_latb, W
0E3E  6E81      	MOVWF gbl_portb
0E40            label134
0E40  0E64      	MOVLW 0x64
0E42  6E70      	MOVWF delay_ms_00000_arg_del
0E44  EC0BF000  	CALL delay_ms_00000
0E48  0E01      	MOVLW 0x01
0E4A  6E70      	MOVWF FCD_0c851__00052_13_ptmp
0E4C  9293      	BCF gbl_trisb,1
0E4E  5270      	MOVF FCD_0c851__00052_13_ptmp, F
0E50  E004      	BZ	label135
0E52  0E02      	MOVLW 0x02
0E54  108A      	IORWF gbl_latb, W
0E56  6E81      	MOVWF gbl_portb
0E58  D003      	BRA	label136
0E5A            label135
0E5A  0EFD      	MOVLW 0xFD
0E5C  148A      	ANDWF gbl_latb, W
0E5E  6E81      	MOVWF gbl_portb
0E60            label136
0E60  6A6F      	CLRF FCD_0c851__00052_1_FCR_RETVAL
0E62  ECE6F003  	CALL FC_CAL_UAR_00076
0E66  0E0A      	MOVLW 0x0A
0E68  6E70      	MOVWF delay_ms_00000_arg_del
0E6A  EC0BF000  	CALL delay_ms_00000
0E6E  ECC8F000  	CALL FCD_0c851__0007B
0E72  EC1EF004  	CALL FCD_0c851__00084
0E76  0E22      	MOVLW 0x22
0E78  6F87      	MOVWF CompTempVar2642+D'7', 1
0E7A  0E2B      	MOVLW 0x2B
0E7C  6F82      	MOVWF CompTempVar2642+D'2', 1
0E7E  0E3D      	MOVLW 0x3D
0E80  6F86      	MOVWF CompTempVar2642+D'6', 1
0E82  0E41      	MOVLW 0x41
0E84  6F80      	MOVWF CompTempVar2642, 1
0E86  0E42      	MOVLW 0x42
0E88  6F83      	MOVWF CompTempVar2642+D'3', 1
0E8A  0E4E      	MOVLW 0x4E
0E8C  6F85      	MOVWF CompTempVar2642+D'5', 1
0E8E  0E54      	MOVLW 0x54
0E90  6F81      	MOVWF CompTempVar2642+D'1', 1
0E92  6F84      	MOVWF CompTempVar2642+D'4', 1
0E94  6B88      	CLRF CompTempVar2642+D'8', 1
0E96  0E00      	MOVLW HIGH(CompTempVar2642+D'0')
0E98  6E7B      	MOVWF FCI_SHEAD_00000_arg_sSrc1+D'1'
0E9A  0E80      	MOVLW LOW(CompTempVar2642+D'0')
0E9C  6E7A      	MOVWF FCI_SHEAD_00000_arg_sSrc1
0E9E  0E09      	MOVLW 0x09
0EA0  6E7C      	MOVWF FCI_SHEAD_00000_arg_iSrc1_len
0EA2  0E6C      	MOVLW 0x6C
0EA4  6F89      	MOVWF CompTempVar2643, 1
0EA6  6F8C      	MOVWF CompTempVar2643+D'3', 1
0EA8  0E6F      	MOVLW 0x6F
0EAA  6F8A      	MOVWF CompTempVar2643+D'1', 1
0EAC  6F8B      	MOVWF CompTempVar2643+D'2', 1
0EAE  6B8D      	CLRF CompTempVar2643+D'4', 1
0EB0  0E00      	MOVLW HIGH(CompTempVar2643+D'0')
0EB2  6E7E      	MOVWF FCI_SHEAD_00000_arg_sSrc2+D'1'
0EB4  0E89      	MOVLW LOW(CompTempVar2643+D'0')
0EB6  6E7D      	MOVWF FCI_SHEAD_00000_arg_sSrc2
0EB8  0E05      	MOVLW 0x05
0EBA  6E7F      	MOVWF FCI_SHEAD_00000_arg_iSrc2_len
0EBC  0E00      	MOVLW HIGH(FCD_0c851__00052_1_FCL_CMDSTR+D'0')
0EBE  6F9E      	MOVWF FCI_SHEAD_00000_arg_sDst+D'1', 1
0EC0  0E5B      	MOVLW LOW(FCD_0c851__00052_1_FCL_CMDSTR+D'0')
0EC2  6F9D      	MOVWF FCI_SHEAD_00000_arg_sDst, 1
0EC4  0E14      	MOVLW 0x14
0EC6  6F9F      	MOVWF FCI_SHEAD_00000_arg_iDst_len, 1
0EC8  ECF0F000  	CALL FCI_SHEAD_00000
0ECC  0E00      	MOVLW HIGH(FCD_0c851__00052_1_FCL_CMDSTR+D'0')
0ECE  6E7B      	MOVWF FCI_SHEAD_00000_arg_sSrc1+D'1'
0ED0  0E5B      	MOVLW LOW(FCD_0c851__00052_1_FCL_CMDSTR+D'0')
0ED2  6E7A      	MOVWF FCI_SHEAD_00000_arg_sSrc1
0ED4  0E14      	MOVLW 0x14
0ED6  6E7C      	MOVWF FCI_SHEAD_00000_arg_iSrc1_len
0ED8  0E22      	MOVLW 0x22
0EDA  6E71      	MOVWF CompTempVar2647
0EDC  6A72      	CLRF CompTempVar2647+D'1'
0EDE  0E00      	MOVLW HIGH(CompTempVar2647+D'0')
0EE0  6E7E      	MOVWF FCI_SHEAD_00000_arg_sSrc2+D'1'
0EE2  0E71      	MOVLW LOW(CompTempVar2647+D'0')
0EE4  6E7D      	MOVWF FCI_SHEAD_00000_arg_sSrc2
0EE6  0E02      	MOVLW 0x02
0EE8  6E7F      	MOVWF FCI_SHEAD_00000_arg_iSrc2_len
0EEA  0E00      	MOVLW HIGH(FCD_0c851__00052_1_FCL_CMDSTR+D'0')
0EEC  6F9E      	MOVWF FCI_SHEAD_00000_arg_sDst+D'1', 1
0EEE  0E5B      	MOVLW LOW(FCD_0c851__00052_1_FCL_CMDSTR+D'0')
0EF0  6F9D      	MOVWF FCI_SHEAD_00000_arg_sDst, 1
0EF2  0E14      	MOVLW 0x14
0EF4  6F9F      	MOVWF FCI_SHEAD_00000_arg_iDst_len, 1
0EF6  ECF0F000  	CALL FCI_SHEAD_00000
0EFA  0E00      	MOVLW HIGH(FCD_0c851__00052_1_FCL_CMDSTR+D'0')
0EFC  6E7B      	MOVWF FCD_0c851__00062_arg_FCL_COMMAND+D'1'
0EFE  0E5B      	MOVLW LOW(FCD_0c851__00052_1_FCL_CMDSTR+D'0')
0F00  6E7A      	MOVWF FCD_0c851__00062_arg_FCL_COMMAND
0F02  0E14      	MOVLW 0x14
0F04  6E7C      	MOVWF FCD_0c851__00062_arg_FCLsz_00063
0F06  6A7D      	CLRF FCD_0c851__00062_arg_FCLsz_00063+D'1'
0F08  0E01      	MOVLW 0x01
0F0A  6E7E      	MOVWF FCD_0c851__00062_arg_FCL_SENDCR
0F0C  ECDFF001  	CALL FCD_0c851__00062
0F10  0E31      	MOVLW 0x31
0F12  6E72      	MOVWF CompTempVar2652
0F14  0E33      	MOVLW 0x33
0F16  6E73      	MOVWF CompTempVar2652+D'1'
0F18  0E37      	MOVLW 0x37
0F1A  6E74      	MOVWF CompTempVar2652+D'2'
0F1C  0E39      	MOVLW 0x39
0F1E  6E75      	MOVWF CompTempVar2652+D'3'
0F20  6A76      	CLRF CompTempVar2652+D'4'
0F22  0E00      	MOVLW HIGH(CompTempVar2652+D'0')
0F24  6E71      	MOVWF FCD_0c851__00078_arg_FCL_PAIRKEY+D'1'
0F26  0E72      	MOVLW LOW(CompTempVar2652+D'0')
0F28  6E70      	MOVWF FCD_0c851__00078_arg_FCL_PAIRKEY
0F2A  0E05      	MOVLW 0x05
0F2C  6E77      	MOVWF FCD_0c851__00078_arg_FCLsz_00079
0F2E  6A78      	CLRF FCD_0c851__00078_arg_FCLsz_00079+D'1'
0F30  ECEEF004  	CALL FCD_0c851__00078
0F34  0E01      	MOVLW 0x01
0F36  6E70      	MOVWF FCD_0c851__00081_arg_FCL_D_00082
0F38  6E71      	MOVWF FCD_0c851__00081_arg_FCL_C_00083
0F3A  EC39F004  	CALL FCD_0c851__00081
0F3E  ECBFF004  	CALL FCD_0c851__0007F
0F42  5071      	MOVF CompTempVarRet2749, W
0F44  6E6F      	MOVWF FCD_0c851__00052_1_FCR_RETVAL
0F46  506F      	MOVF FCD_0c851__00052_1_FCR_RETVAL, W
0F48  6E70      	MOVWF CompTempVarRet2641
0F4A  0012      	RETURN
0F4C            ; } FCD_0c851_Bluetooth2__Initialise function end

	ORG 0x00000F4C
0F4C            FCD_04071__00057
0F4C            ; { FCD_04071_LCD__Cursor ; function begin
0F4C  525C      	MOVF FCD_04071__00057_arg_FCL_Y, F
0F4E  E103      	BNZ	label137
0F50  0E80      	MOVLW 0x80
0F52  6E5C      	MOVWF FCD_04071__00057_arg_FCL_Y
0F54  D002      	BRA	label138
0F56            label137
0F56  0EC0      	MOVLW 0xC0
0F58  6E5C      	MOVWF FCD_04071__00057_arg_FCL_Y
0F5A            label138
0F5A  505B      	MOVF FCD_04071__00057_arg_FCL_X, W
0F5C  245C      	ADDWF FCD_04071__00057_arg_FCL_Y, W
0F5E  6E7F      	MOVWF FCD_04071__00066_arg_FCL_DATA
0F60  0100      	MOVLB 0x00
0F62  9180      	BCF FCD_04071__00066_arg_FCL_TYPE,0, 1
0F64  EC17F002  	CALL FCD_04071__00066
0F68  0E02      	MOVLW 0x02
0F6A  6E70      	MOVWF delay_ms_00000_arg_del
0F6C  EC0BF000  	CALL delay_ms_00000
0F70  0012      	RETURN
0F72            ; } FCD_04071_LCD__Cursor function end

	ORG 0x00000F72
0F72            FCD_04071__00056
0F72            ; { FCD_04071_LCD__PrintString ; function begin
0F72  6A7D      	CLRF FCD_04071__00056_1_FCL_IDX
0F74  5067      	MOVF FCD_04071__00056_arg_FCL_TEXT, W
0F76  0100      	MOVLB 0x00
0F78  6F96      	MOVWF FCI_GETLEN_0003E_arg_sStr1, 1
0F7A  5068      	MOVF FCD_04071__00056_arg_FCL_TEXT+D'1', W
0F7C  6F97      	MOVWF FCI_GETLEN_0003E_arg_sStr1+D'1', 1
0F7E  507B      	MOVF FCD_04071__00056_arg_FCLsz_TEXT, W
0F80  6F98      	MOVWF FCI_GETLEN_0003E_arg_iStr1_len, 1
0F82  ECB8F000  	CALL FCI_GETLEN_0003E
0F86  519A      	MOVF CompTempVarRet1850, W, 1
0F88  6E7E      	MOVWF FCD_04071__00056_1_FCL_COUNT
0F8A            label139
0F8A  507E      	MOVF FCD_04071__00056_1_FCL_COUNT, W
0F8C  607D      	CPFSLT FCD_04071__00056_1_FCL_IDX
0F8E  0012      	RETURN
0F90  5068      	MOVF FCD_04071__00056_arg_FCL_TEXT+D'1', W
0F92  6EEA      	MOVWF FSR0H
0F94  5067      	MOVF FCD_04071__00056_arg_FCL_TEXT, W
0F96  247D      	ADDWF FCD_04071__00056_1_FCL_IDX, W
0F98  6EE9      	MOVWF FSR0L
0F9A  50EF      	MOVF INDF0, W
0F9C  6E7F      	MOVWF FCD_04071__00066_arg_FCL_DATA
0F9E  8180      	BSF FCD_04071__00066_arg_FCL_TYPE,0, 1
0FA0  EC17F002  	CALL FCD_04071__00066
0FA4  287D      	INCF FCD_04071__00056_1_FCL_IDX, W
0FA6  6E7D      	MOVWF FCD_04071__00056_1_FCL_IDX
0FA8  D7F0      	BRA	label139
0FAA            ; } FCD_04071_LCD__PrintString function end

	ORG 0x00000FAA
0FAA            FCD_04071__00053
0FAA            ; { FCD_04071_LCD__Start ; function begin
0FAA  6A5B      	CLRF FCD_04071__00053_2_ptmp
0FAC  9092      	BCF gbl_trisa,0
0FAE  525B      	MOVF FCD_04071__00053_2_ptmp, F
0FB0  E004      	BZ	label140
0FB2  0E01      	MOVLW 0x01
0FB4  1089      	IORWF gbl_lata, W
0FB6  6E80      	MOVWF gbl_porta
0FB8  D003      	BRA	label141
0FBA            label140
0FBA  0EFE      	MOVLW 0xFE
0FBC  1489      	ANDWF gbl_lata, W
0FBE  6E80      	MOVWF gbl_porta
0FC0            label141
0FC0  6A5B      	CLRF FCD_04071__00053_9_ptmp
0FC2  9292      	BCF gbl_trisa,1
0FC4  525B      	MOVF FCD_04071__00053_9_ptmp, F
0FC6  E004      	BZ	label142
0FC8  0E02      	MOVLW 0x02
0FCA  1089      	IORWF gbl_lata, W
0FCC  6E80      	MOVWF gbl_porta
0FCE  D003      	BRA	label143
0FD0            label142
0FD0  0EFD      	MOVLW 0xFD
0FD2  1489      	ANDWF gbl_lata, W
0FD4  6E80      	MOVWF gbl_porta
0FD6            label143
0FD6  6A5B      	CLRF FCD_04071__00053_16_ptmp
0FD8  9492      	BCF gbl_trisa,2
0FDA  525B      	MOVF FCD_04071__00053_16_ptmp, F
0FDC  E004      	BZ	label144
0FDE  0E04      	MOVLW 0x04
0FE0  1089      	IORWF gbl_lata, W
0FE2  6E80      	MOVWF gbl_porta
0FE4  D003      	BRA	label145
0FE6            label144
0FE6  0EFB      	MOVLW 0xFB
0FE8  1489      	ANDWF gbl_lata, W
0FEA  6E80      	MOVWF gbl_porta
0FEC            label145
0FEC  6A5B      	CLRF FCD_04071__00053_23_ptmp
0FEE  9692      	BCF gbl_trisa,3
0FF0  525B      	MOVF FCD_04071__00053_23_ptmp, F
0FF2  E004      	BZ	label146
0FF4  0E08      	MOVLW 0x08
0FF6  1089      	IORWF gbl_lata, W
0FF8  6E80      	MOVWF gbl_porta
0FFA  D003      	BRA	label147
0FFC            label146
0FFC  0EF7      	MOVLW 0xF7
0FFE  1489      	ANDWF gbl_lata, W
1000  6E80      	MOVWF gbl_porta
1002            label147
1002  6A5B      	CLRF FCD_04071__00053_30_ptmp
1004  9892      	BCF gbl_trisa,4
1006  525B      	MOVF FCD_04071__00053_30_ptmp, F
1008  E004      	BZ	label148
100A  0E10      	MOVLW 0x10
100C  1089      	IORWF gbl_lata, W
100E  6E80      	MOVWF gbl_porta
1010  D003      	BRA	label149
1012            label148
1012  0EEF      	MOVLW 0xEF
1014  1489      	ANDWF gbl_lata, W
1016  6E80      	MOVWF gbl_porta
1018            label149
1018  6A5B      	CLRF FCD_04071__00053_37_ptmp
101A  9A92      	BCF gbl_trisa,5
101C  525B      	MOVF FCD_04071__00053_37_ptmp, F
101E  E004      	BZ	label150
1020  0E20      	MOVLW 0x20
1022  1089      	IORWF gbl_lata, W
1024  6E80      	MOVWF gbl_porta
1026  D003      	BRA	label151
1028            label150
1028  0EDF      	MOVLW 0xDF
102A  1489      	ANDWF gbl_lata, W
102C  6E80      	MOVWF gbl_porta
102E            label151
102E  0E0C      	MOVLW 0x0C
1030  6E70      	MOVWF delay_ms_00000_arg_del
1032  EC0BF000  	CALL delay_ms_00000
1036  0E33      	MOVLW 0x33
1038  6E7F      	MOVWF FCD_04071__00066_arg_FCL_DATA
103A  0100      	MOVLB 0x00
103C  9180      	BCF FCD_04071__00066_arg_FCL_TYPE,0, 1
103E  EC17F002  	CALL FCD_04071__00066
1042  0E02      	MOVLW 0x02
1044  6E70      	MOVWF delay_ms_00000_arg_del
1046  EC0BF000  	CALL delay_ms_00000
104A  0E33      	MOVLW 0x33
104C  6E7F      	MOVWF FCD_04071__00066_arg_FCL_DATA
104E  9180      	BCF FCD_04071__00066_arg_FCL_TYPE,0, 1
1050  EC17F002  	CALL FCD_04071__00066
1054  0E02      	MOVLW 0x02
1056  6E70      	MOVWF delay_ms_00000_arg_del
1058  EC0BF000  	CALL delay_ms_00000
105C  0E32      	MOVLW 0x32
105E  6E7F      	MOVWF FCD_04071__00066_arg_FCL_DATA
1060  9180      	BCF FCD_04071__00066_arg_FCL_TYPE,0, 1
1062  EC17F002  	CALL FCD_04071__00066
1066  0E02      	MOVLW 0x02
1068  6E70      	MOVWF delay_ms_00000_arg_del
106A  EC0BF000  	CALL delay_ms_00000
106E  0E2C      	MOVLW 0x2C
1070  6E7F      	MOVWF FCD_04071__00066_arg_FCL_DATA
1072  9180      	BCF FCD_04071__00066_arg_FCL_TYPE,0, 1
1074  EC17F002  	CALL FCD_04071__00066
1078  0E02      	MOVLW 0x02
107A  6E70      	MOVWF delay_ms_00000_arg_del
107C  EC0BF000  	CALL delay_ms_00000
1080  0E06      	MOVLW 0x06
1082  6E7F      	MOVWF FCD_04071__00066_arg_FCL_DATA
1084  9180      	BCF FCD_04071__00066_arg_FCL_TYPE,0, 1
1086  EC17F002  	CALL FCD_04071__00066
108A  0E02      	MOVLW 0x02
108C  6E70      	MOVWF delay_ms_00000_arg_del
108E  EC0BF000  	CALL delay_ms_00000
1092  0E0C      	MOVLW 0x0C
1094  6E7F      	MOVWF FCD_04071__00066_arg_FCL_DATA
1096  9180      	BCF FCD_04071__00066_arg_FCL_TYPE,0, 1
1098  EC17F002  	CALL FCD_04071__00066
109C  0E02      	MOVLW 0x02
109E  6E70      	MOVWF delay_ms_00000_arg_del
10A0  EC0BF000  	CALL delay_ms_00000
10A4  0E01      	MOVLW 0x01
10A6  6E7F      	MOVWF FCD_04071__00066_arg_FCL_DATA
10A8  9180      	BCF FCD_04071__00066_arg_FCL_TYPE,0, 1
10AA  EC17F002  	CALL FCD_04071__00066
10AE  0E02      	MOVLW 0x02
10B0  6E70      	MOVWF delay_ms_00000_arg_del
10B2  EC0BF000  	CALL delay_ms_00000
10B6  0E02      	MOVLW 0x02
10B8  6E7F      	MOVWF FCD_04071__00066_arg_FCL_DATA
10BA  9180      	BCF FCD_04071__00066_arg_FCL_TYPE,0, 1
10BC  EC17F002  	CALL FCD_04071__00066
10C0  0E02      	MOVLW 0x02
10C2  6E70      	MOVWF delay_ms_00000_arg_del
10C4  EC0BF000  	CALL delay_ms_00000
10C8  EC3AF005  	CALL FCD_04071__00061
10CC  0012      	RETURN
10CE            ; } FCD_04071_LCD__Start function end

	ORG 0x000010CE
10CE            FCM_INITIA_00051
10CE            ; { FCM_INITIALISATION ; function begin
10CE  EC15F007  	CALL FCD_0c851__00052
10D2  ECD5F007  	CALL FCD_04071__00053
10D6  0E01      	MOVLW 0x01
10D8  6E5B      	MOVWF delay_s_00000_arg_del
10DA  EC33F000  	CALL delay_s_00000
10DE  0E01      	MOVLW 0x01
10E0  6E5B      	MOVWF FCD_0c851__00054_arg_FCL_IDX
10E2  EC25F006  	CALL FCD_0c851__00054
10E6  0E02      	MOVLW 0x02
10E8  6E5B      	MOVWF FCD_0c851__00054_arg_FCL_IDX
10EA  EC25F006  	CALL FCD_0c851__00054
10EE  0E2E      	MOVLW 0x2E
10F0  6E77      	MOVWF CompTempVar2637+D'14'
10F2  6E78      	MOVWF CompTempVar2637+D'15'
10F4  6E79      	MOVWF CompTempVar2637+D'16'
10F6  0E49      	MOVLW 0x49
10F8  6E69      	MOVWF CompTempVar2637
10FA  0E61      	MOVLW 0x61
10FC  6E6E      	MOVWF CompTempVar2637+D'5'
10FE  6E72      	MOVWF CompTempVar2637+D'9'
1100  0E69      	MOVLW 0x69
1102  6E6B      	MOVWF CompTempVar2637+D'2'
1104  6E6D      	MOVWF CompTempVar2637+D'4'
1106  6E70      	MOVWF CompTempVar2637+D'7'
1108  6E74      	MOVWF CompTempVar2637+D'11'
110A  0E6C      	MOVLW 0x6C
110C  6E6F      	MOVWF CompTempVar2637+D'6'
110E  0E6E      	MOVLW 0x6E
1110  6E6A      	MOVWF CompTempVar2637+D'1'
1112  6E76      	MOVWF CompTempVar2637+D'13'
1114  0E6F      	MOVLW 0x6F
1116  6E75      	MOVWF CompTempVar2637+D'12'
1118  0E73      	MOVLW 0x73
111A  6E71      	MOVWF CompTempVar2637+D'8'
111C  0E74      	MOVLW 0x74
111E  6E6C      	MOVWF CompTempVar2637+D'3'
1120  6E73      	MOVWF CompTempVar2637+D'10'
1122  6A7A      	CLRF CompTempVar2637+D'17'
1124  0E00      	MOVLW HIGH(CompTempVar2637+D'0')
1126  6E68      	MOVWF FCD_04071__00056_arg_FCL_TEXT+D'1'
1128  0E69      	MOVLW LOW(CompTempVar2637+D'0')
112A  6E67      	MOVWF FCD_04071__00056_arg_FCL_TEXT
112C  0E12      	MOVLW 0x12
112E  6E7B      	MOVWF FCD_04071__00056_arg_FCLsz_TEXT
1130  6A7C      	CLRF FCD_04071__00056_arg_FCLsz_TEXT+D'1'
1132  ECB9F007  	CALL FCD_04071__00056
1136  6A5B      	CLRF FCD_04071__00057_arg_FCL_X
1138  0E01      	MOVLW 0x01
113A  6E5C      	MOVWF FCD_04071__00057_arg_FCL_Y
113C  ECA6F007  	CALL FCD_04071__00057
1140  0E50      	MOVLW 0x50
1142  6E69      	MOVWF CompTempVar2639
1144  0E6C      	MOVLW 0x6C
1146  6E6A      	MOVWF CompTempVar2639+D'1'
1148  0E61      	MOVLW 0x61
114A  6E6B      	MOVWF CompTempVar2639+D'2'
114C  0E79      	MOVLW 0x79
114E  6E6C      	MOVWF CompTempVar2639+D'3'
1150  0E65      	MOVLW 0x65
1152  6E6D      	MOVWF CompTempVar2639+D'4'
1154  0E72      	MOVLW 0x72
1156  6E6E      	MOVWF CompTempVar2639+D'5'
1158  0E20      	MOVLW 0x20
115A  6E6F      	MOVWF CompTempVar2639+D'6'
115C  0E28      	MOVLW 0x28
115E  6E70      	MOVWF CompTempVar2639+D'7'
1160  0E31      	MOVLW 0x31
1162  6E71      	MOVWF CompTempVar2639+D'8'
1164  0E29      	MOVLW 0x29
1166  6E72      	MOVWF CompTempVar2639+D'9'
1168  6A73      	CLRF CompTempVar2639+D'10'
116A  0E00      	MOVLW HIGH(CompTempVar2639+D'0')
116C  6E68      	MOVWF FCD_04071__00056_arg_FCL_TEXT+D'1'
116E  0E69      	MOVLW LOW(CompTempVar2639+D'0')
1170  6E67      	MOVWF FCD_04071__00056_arg_FCL_TEXT
1172  0E0B      	MOVLW 0x0B
1174  6E7B      	MOVWF FCD_04071__00056_arg_FCLsz_TEXT
1176  6A7C      	CLRF FCD_04071__00056_arg_FCLsz_TEXT+D'1'
1178  ECB9F007  	CALL FCD_04071__00056
117C  EC4EF005  	CALL FCM_SET_AS_00058
1180  EF07F009  	GOTO	label158
1184            ; } FCM_INITIALISATION function end

	ORG 0x00001184
1184            FCD_0c851__00065
1184            ; { FCD_0c851_Bluetooth2__ReceiveByte ; function begin
1184  6A5C      	CLRF FCD_0c851__00065_1_FCL_COUNT
1186  6A59      	CLRF gbl_FCV_0c851_Bluetooth2___00001
1188            label152
1188  505A      	MOVF gbl_FCV_0c851_Bluetooth2___00002, W
118A  6058      	CPFSLT gbl_FCV_0c851_Bluetooth2__RX_IDX
118C  D00A      	BRA	label153
118E  EE00F005  	LFSR 0x00, gbl_FCV_0c851_Bluetooth2___00000
1192  50E9      	MOVF FSR0L, W
1194  5058      	MOVF gbl_FCV_0c851_Bluetooth2__RX_IDX, W
1196  26E9      	ADDWF FSR0L, F
1198  50EF      	MOVF INDF0, W
119A  6E5D      	MOVWF FCD_0c851__00065_1_FCR_RETVAL
119C  2858      	INCF gbl_FCV_0c851_Bluetooth2__RX_IDX, W
119E  6E58      	MOVWF gbl_FCV_0c851_Bluetooth2__RX_IDX
11A0  D012      	BRA	label156
11A2            label153
11A2  0E32      	MOVLW 0x32
11A4  605A      	CPFSLT gbl_FCV_0c851_Bluetooth2___00002
11A6  D00C      	BRA	label155
11A8  525B      	MOVF FCD_0c851__00065_arg_FCL_TIMEOUT, F
11AA  E003      	BZ	label154
11AC  505B      	MOVF FCD_0c851__00065_arg_FCL_TIMEOUT, W
11AE  605C      	CPFSLT FCD_0c851__00065_1_FCL_COUNT
11B0  D007      	BRA	label155
11B2            label154
11B2  0E01      	MOVLW 0x01
11B4  6E70      	MOVWF delay_ms_00000_arg_del
11B6  EC0BF000  	CALL delay_ms_00000
11BA  285C      	INCF FCD_0c851__00065_1_FCL_COUNT, W
11BC  6E5C      	MOVWF FCD_0c851__00065_1_FCL_COUNT
11BE  D7E4      	BRA	label152
11C0            label155
11C0  6A58      	CLRF gbl_FCV_0c851_Bluetooth2__RX_IDX
11C2  6A5A      	CLRF gbl_FCV_0c851_Bluetooth2___00002
11C4  685D      	SETF FCD_0c851__00065_1_FCR_RETVAL
11C6            label156
11C6  505D      	MOVF FCD_0c851__00065_1_FCR_RETVAL, W
11C8  6E5E      	MOVWF CompTempVarRet2703
11CA  0012      	RETURN
11CC            ; } FCD_0c851_Bluetooth2__ReceiveByte function end

	ORG 0x000011CC
11CC            FCD_04071__00064
11CC            ; { FCD_04071_LCD__PrintNumber ; function begin
11CC  505B      	MOVF FCD_04071__00064_arg_FCL_NUMBER, W
11CE  6E67      	MOVWF FCI_TOSTRI_00042_arg_iSrc1
11D0  505C      	MOVF FCD_04071__00064_arg_FCL_NUMBER+D'1', W
11D2  6E68      	MOVWF FCI_TOSTRI_00042_arg_iSrc1+D'1'
11D4  6A69      	CLRF FCI_TOSTRI_00042_arg_iSrc1+D'2'
11D6  6A6A      	CLRF FCI_TOSTRI_00042_arg_iSrc1+D'3'
11D8  AE5C      	BTFSS FCD_04071__00064_arg_FCL_NUMBER+D'1',7
11DA  D002      	BRA	label157
11DC  0669      	DECF FCI_TOSTRI_00042_arg_iSrc1+D'2', F
11DE  066A      	DECF FCI_TOSTRI_00042_arg_iSrc1+D'3', F
11E0            label157
11E0  0E00      	MOVLW HIGH(FCD_04071__00064_1_FCL_S+D'0')
11E2  6E6C      	MOVWF FCI_TOSTRI_00042_arg_sDst+D'1'
11E4  0E5D      	MOVLW LOW(FCD_04071__00064_1_FCL_S+D'0')
11E6  6E6B      	MOVWF FCI_TOSTRI_00042_arg_sDst
11E8  0E0A      	MOVLW 0x0A
11EA  6E6D      	MOVWF FCI_TOSTRI_00042_arg_iDst_len
11EC  EC65F005  	CALL FCI_TOSTRI_00042
11F0  0E00      	MOVLW HIGH(FCD_04071__00064_1_FCL_S+D'0')
11F2  6E68      	MOVWF FCD_04071__00056_arg_FCL_TEXT+D'1'
11F4  0E5D      	MOVLW LOW(FCD_04071__00064_1_FCL_S+D'0')
11F6  6E67      	MOVWF FCD_04071__00056_arg_FCL_TEXT
11F8  0E0A      	MOVLW 0x0A
11FA  6E7B      	MOVWF FCD_04071__00056_arg_FCLsz_TEXT
11FC  6A7C      	CLRF FCD_04071__00056_arg_FCLsz_TEXT+D'1'
11FE  ECB9F007  	CALL FCD_04071__00056
1202  0012      	RETURN
1204            ; } FCD_04071_LCD__PrintNumber function end

	ORG 0x00001204
1204            main
1204            ; { main ; function begin
1204  0E0F      	MOVLW 0x0F
1206  6EC1      	MOVWF gbl_adcon1
1208  0E99      	MOVLW 0x99
120A  EF67F008  	GOTO	FCM_INITIA_00051
120E            label158
120E  6A5B      	CLRF FCD_0c851__00065_arg_FCL_TIMEOUT
1210  ECC2F008  	CALL FCD_0c851__00065
1214  505E      	MOVF CompTempVarRet2703, W
1216  6E56      	MOVWF gbl_FCV_OCTET
1218  5056      	MOVF gbl_FCV_OCTET, W
121A  6E5B      	MOVWF FCD_04071__00064_arg_FCL_NUMBER
121C  6A5C      	CLRF FCD_04071__00064_arg_FCL_NUMBER+D'1'
121E  ECE6F008  	CALL FCD_04071__00064
1222  0EFA      	MOVLW 0xFA
1224  6E70      	MOVWF delay_ms_00000_arg_del
1226  EC0BF000  	CALL delay_ms_00000
122A  EC3AF005  	CALL FCD_04071__00061
122E  D7EF      	BRA	label158
1230            ; } main function end

	ORG 0x00001230
1230            _startup
1230  0ED5      	MOVLW 0xD5
1232  6E37      	MOVWF gbl_14_LSR
1234  0EC4      	MOVLW 0xC4
1236  6E38      	MOVWF gbl_14_LSR+D'1'
1238  0EBB      	MOVLW 0xBB
123A  6E39      	MOVWF gbl_14_LSR+D'2'
123C  0EDC      	MOVLW 0xDC
123E  6E3A      	MOVWF gbl_14_LSR+D'3'
1240  6A3B      	CLRF gbl_15_gbl_aSig
1242  6A3C      	CLRF gbl_15_gbl_aSig+D'1'
1244  6A3D      	CLRF gbl_15_gbl_aSig+D'2'
1246  6A3E      	CLRF gbl_15_gbl_aSig+D'3'
1248  6A3F      	CLRF gbl_15_gbl_bSig
124A  6A40      	CLRF gbl_15_gbl_bSig+D'1'
124C  6A41      	CLRF gbl_15_gbl_bSig+D'2'
124E  6A42      	CLRF gbl_15_gbl_bSig+D'3'
1250  6A43      	CLRF gbl_15_gbl_zSig
1252  6A44      	CLRF gbl_15_gbl_zSig+D'1'
1254  6A45      	CLRF gbl_15_gbl_zSig+D'2'
1256  6A46      	CLRF gbl_15_gbl_zSig+D'3'
1258  6A50      	CLRF gbl_15_gbl_aExp
125A  6A51      	CLRF gbl_15_gbl_bExp
125C  6A4B      	CLRF gbl_15_gbl_zExp
125E  6A4C      	CLRF gbl_15_gbl_zExp+D'1'
1260  6A52      	CLRF gbl_15_gbl_aSign
1262  6A53      	CLRF gbl_15_gbl_bSign
1264  6A54      	CLRF gbl_15_gbl_zSign
1266  6A55      	CLRF gbl_15_gbl_zSigZero
1268  6A47      	CLRF gbl_15_gbl_ret
126A  6A48      	CLRF gbl_15_gbl_ret+D'1'
126C  6A49      	CLRF gbl_15_gbl_ret+D'2'
126E  6A4A      	CLRF gbl_15_gbl_ret+D'3'
1270  6A4E      	CLRF gbl_float_rounding_mode
1272  6A4F      	CLRF gbl_float_exception_flags
1274  6A4D      	CLRF gbl_float_detect_tininess
1276  0EA5      	MOVLW 0xA5
1278  6E57      	MOVWF gbl_FCV_BT_STATE
127A  6A58      	CLRF gbl_FCV_0c851_Bluetooth2__RX_IDX
127C  6A59      	CLRF gbl_FCV_0c851_Bluetooth2___00001
127E  6A5A      	CLRF gbl_FCV_0c851_Bluetooth2___00002
1280  EF02F009  	GOTO	main
	ORG 0x00001284
1284            interrupt
1284            ; { interrupt ; function begin
1284  CFEAF001  	MOVFF FSR0H,  Int1Context
1288  CFE9F002  	MOVFF FSR0L,  Int1Context+D'1'
128C  CFF4F003  	MOVFF PRODH,  Int1Context+D'2'
1290  CFF3F004  	MOVFF PRODL,  Int1Context+D'3'
1294  0E20      	MOVLW 0x20
1296  149E      	ANDWF gbl_pir1, W
1298  0100      	MOVLB 0x00
129A  6FD6      	MOVWF CompTempVar2767, 1
129C  0E20      	MOVLW 0x20
129E  149D      	ANDWF gbl_pie1, W
12A0  6FD5      	MOVWF CompTempVar2766, 1
12A2  6BD4      	CLRF interrupt_1_FCL_BT_IN, 1
12A4  53D5      	MOVF CompTempVar2766, F, 1
12A6  A4D8      	BTFSS STATUS,Z
12A8  53D6      	MOVF CompTempVar2767, F, 1
12AA  A4D8      	BTFSS STATUS,Z
12AC  2BD4      	INCF interrupt_1_FCL_BT_IN, F, 1
12AE  53D4      	MOVF interrupt_1_FCL_BT_IN, F, 1
12B0  E022      	BZ	label162
12B2  0E01      	MOVLW 0x01
12B4  6FD5      	MOVWF FC_CAL_UAR_00074_arg_nTimeout, 1
12B6  EC46F000  	CALL FC_CAL_UAR_00074
12BA  51DE      	MOVF CompTempVarRet2728, W, 1
12BC  6FD4      	MOVWF interrupt_1_FCL_BT_IN, 1
12BE  5259      	MOVF gbl_FCV_0c851_Bluetooth2___00001, F
12C0  E119      	BNZ	label161
12C2  0E32      	MOVLW 0x32
12C4  605A      	CPFSLT gbl_FCV_0c851_Bluetooth2___00002
12C6  D016      	BRA	label161
12C8  0E0A      	MOVLW 0x0A
12CA  63D4      	CPFSEQ interrupt_1_FCL_BT_IN, 1
12CC  D00A      	BRA	label160
12CE  0E01      	MOVLW 0x01
12D0  6E59      	MOVWF gbl_FCV_0c851_Bluetooth2___00001
12D2  EE00F005  	LFSR 0x00, gbl_FCV_0c851_Bluetooth2___00000
12D6  50E9      	MOVF FSR0L, W
12D8  505A      	MOVF gbl_FCV_0c851_Bluetooth2___00002, W
12DA  26E9      	ADDWF FSR0L, F
12DC  0E00      	MOVLW 0x00
12DE  6EEF      	MOVWF INDF0
12E0  D009      	BRA	label161
12E2            label160
12E2  EE00F005  	LFSR 0x00, gbl_FCV_0c851_Bluetooth2___00000
12E6  50E9      	MOVF FSR0L, W
12E8  505A      	MOVF gbl_FCV_0c851_Bluetooth2___00002, W
12EA  26E9      	ADDWF FSR0L, F
12EC  51D4      	MOVF interrupt_1_FCL_BT_IN, W, 1
12EE  6EEF      	MOVWF INDF0
12F0  285A      	INCF gbl_FCV_0c851_Bluetooth2___00002, W
12F2  6E5A      	MOVWF gbl_FCV_0c851_Bluetooth2___00002
12F4            label161
12F4  9A9E      	BCF gbl_pir1,5
12F6            label162
12F6  C004FFF3  	MOVFF Int1Context+D'3',  PRODL
12FA  C003FFF4  	MOVFF Int1Context+D'2',  PRODH
12FE  C002FFE9  	MOVFF Int1Context+D'1',  FSR0L
1302  C001FFEA  	MOVFF Int1Context,  FSR0H
1306  0011      	RETFIE 1
1308            ; } interrupt function end

	ORG 0x00300000
300000  32FF      	DW 0x32FF
300002  FEF9      	DW 0xFEF9
300004  78FF      	DW 0x78FF
300006  FFBA      	DW 0xFFBA
300008  FFFF      	DW 0xFFFF
30000A  FFFF      	DW 0xFFFF
30000C  FFFF      	DW 0xFFFF
