;/////////////////////////////////////////////////////////////////////////////////
;// Code Generator: BoostC Compiler - http://www.sourceboost.com
;// Version       : 7.20
;// License Type  : Pro License
;// Limitations   : PIC18 max code size:Unlimited, max RAM banks:Unlimited
;/////////////////////////////////////////////////////////////////////////////////

	ORG 0x00000000
0000  EF9CF002  	GOTO	_startup
	ORG 0x00000008
0008  EFC2F002  	GOTO	interrupt
	ORG 0x0000000C
000C            delay_us_00000
000C            ; { delay_us ; function begin
000C            label1
000C  0000      	NOP
000E  0000      	NOP
0010  2E3F      	DECFSZ delay_us_00000_arg_del, F
0012  D7FC      	BRA	label1
0014  0012      	RETURN
0016            ; } delay_us function end

	ORG 0x00000016
0016            delay_ms_00000
0016            ; { delay_ms ; function begin
0016  5227      	MOVF delay_ms_00000_arg_del, F
0018  0000      	NOP
001A  E101      	BNZ	label2
001C  0012      	RETURN
001E            label2
001E  0EF5      	MOVLW 0xF5
0020            label3
0020  0000      	NOP
0022  0000      	NOP
0024  0000      	NOP
0026  0000      	NOP
0028  0000      	NOP
002A  0000      	NOP
002C  0000      	NOP
002E  0000      	NOP
0030  0000      	NOP
0032  0000      	NOP
0034  0000      	NOP
0036  0000      	NOP
0038  0000      	NOP
003A  0000      	NOP
003C  0000      	NOP
003E  0000      	NOP
0040  0FFF      	ADDLW 0xFF
0042  A4D8      	BTFSS STATUS,Z
0044  D7ED      	BRA	label3
0046  0000      	NOP
0048  0000      	NOP
004A  0000      	NOP
004C  0000      	NOP
004E  0000      	NOP
0050  0000      	NOP
0052  0000      	NOP
0054  0000      	NOP
0056  0000      	NOP
0058  0000      	NOP
005A  0000      	NOP
005C  0000      	NOP
005E  0000      	NOP
0060  2E27      	DECFSZ delay_ms_00000_arg_del, F
0062  D7DD      	BRA	label2
0064  0012      	RETURN
0066            ; } delay_ms function end

	ORG 0x00000066
0066            FCD_04071__00058
0066            ; { FCD_04071_LCD__RawSend ; function begin
0066  6A3F      	CLRF FCD_04071__00058_2_ptmp
0068  9092      	BCF gbl_trisa,0
006A  523F      	MOVF FCD_04071__00058_2_ptmp, F
006C  E004      	BZ	label4
006E  0E01      	MOVLW 0x01
0070  1089      	IORWF gbl_lata, W
0072  6E80      	MOVWF gbl_porta
0074  D003      	BRA	label5
0076            label4
0076  0EFE      	MOVLW 0xFE
0078  1489      	ANDWF gbl_lata, W
007A  6E80      	MOVWF gbl_porta
007C            label5
007C  6A3F      	CLRF FCD_04071__00058_9_ptmp
007E  9292      	BCF gbl_trisa,1
0080  523F      	MOVF FCD_04071__00058_9_ptmp, F
0082  E004      	BZ	label6
0084  0E02      	MOVLW 0x02
0086  1089      	IORWF gbl_lata, W
0088  6E80      	MOVWF gbl_porta
008A  D003      	BRA	label7
008C            label6
008C  0EFD      	MOVLW 0xFD
008E  1489      	ANDWF gbl_lata, W
0090  6E80      	MOVWF gbl_porta
0092            label7
0092  6A3F      	CLRF FCD_04071__00058_16_ptmp
0094  9492      	BCF gbl_trisa,2
0096  523F      	MOVF FCD_04071__00058_16_ptmp, F
0098  E004      	BZ	label8
009A  0E04      	MOVLW 0x04
009C  1089      	IORWF gbl_lata, W
009E  6E80      	MOVWF gbl_porta
00A0  D003      	BRA	label9
00A2            label8
00A2  0EFB      	MOVLW 0xFB
00A4  1489      	ANDWF gbl_lata, W
00A6  6E80      	MOVWF gbl_porta
00A8            label9
00A8  6A3F      	CLRF FCD_04071__00058_23_ptmp
00AA  9692      	BCF gbl_trisa,3
00AC  523F      	MOVF FCD_04071__00058_23_ptmp, F
00AE  E004      	BZ	label10
00B0  0E08      	MOVLW 0x08
00B2  1089      	IORWF gbl_lata, W
00B4  6E80      	MOVWF gbl_porta
00B6  D003      	BRA	label11
00B8            label10
00B8  0EF7      	MOVLW 0xF7
00BA  1489      	ANDWF gbl_lata, W
00BC  6E80      	MOVWF gbl_porta
00BE            label11
00BE  6A3F      	CLRF FCD_04071__00058_30_ptmp
00C0  9892      	BCF gbl_trisa,4
00C2  523F      	MOVF FCD_04071__00058_30_ptmp, F
00C4  E004      	BZ	label12
00C6  0E10      	MOVLW 0x10
00C8  1089      	IORWF gbl_lata, W
00CA  6E80      	MOVWF gbl_porta
00CC  D003      	BRA	label13
00CE            label12
00CE  0EEF      	MOVLW 0xEF
00D0  1489      	ANDWF gbl_lata, W
00D2  6E80      	MOVWF gbl_porta
00D4            label13
00D4  6A3F      	CLRF FCD_04071__00058_37_ptmp
00D6  9A92      	BCF gbl_trisa,5
00D8  523F      	MOVF FCD_04071__00058_37_ptmp, F
00DA  E004      	BZ	label14
00DC  0E20      	MOVLW 0x20
00DE  1089      	IORWF gbl_lata, W
00E0  6E80      	MOVWF gbl_porta
00E2  D003      	BRA	label15
00E4            label14
00E4  0EDF      	MOVLW 0xDF
00E6  1489      	ANDWF gbl_lata, W
00E8  6E80      	MOVWF gbl_porta
00EA            label15
00EA  383C      	SWAPF FCD_04071__00058_arg_FCL_DATA, W
00EC  0B0F      	ANDLW 0x0F
00EE  6E3E      	MOVWF FCD_04071__00058_1_FCL_NIBBLE
00F0  0E01      	MOVLW 0x01
00F2  143E      	ANDWF FCD_04071__00058_1_FCL_NIBBLE, W
00F4  6E3F      	MOVWF FCD_04071__00058_46_ptmp
00F6  9092      	BCF gbl_trisa,0
00F8  523F      	MOVF FCD_04071__00058_46_ptmp, F
00FA  E004      	BZ	label16
00FC  0E01      	MOVLW 0x01
00FE  1089      	IORWF gbl_lata, W
0100  6E80      	MOVWF gbl_porta
0102  D003      	BRA	label17
0104            label16
0104  0EFE      	MOVLW 0xFE
0106  1489      	ANDWF gbl_lata, W
0108  6E80      	MOVWF gbl_porta
010A            label17
010A  523E      	MOVF FCD_04071__00058_1_FCL_NIBBLE, F
010C  90D8      	BCF STATUS,C
010E  323E      	RRCF FCD_04071__00058_1_FCL_NIBBLE, F
0110  0E01      	MOVLW 0x01
0112  143E      	ANDWF FCD_04071__00058_1_FCL_NIBBLE, W
0114  6E3F      	MOVWF FCD_04071__00058_55_ptmp
0116  9292      	BCF gbl_trisa,1
0118  523F      	MOVF FCD_04071__00058_55_ptmp, F
011A  E004      	BZ	label18
011C  0E02      	MOVLW 0x02
011E  1089      	IORWF gbl_lata, W
0120  6E80      	MOVWF gbl_porta
0122  D003      	BRA	label19
0124            label18
0124  0EFD      	MOVLW 0xFD
0126  1489      	ANDWF gbl_lata, W
0128  6E80      	MOVWF gbl_porta
012A            label19
012A  523E      	MOVF FCD_04071__00058_1_FCL_NIBBLE, F
012C  90D8      	BCF STATUS,C
012E  323E      	RRCF FCD_04071__00058_1_FCL_NIBBLE, F
0130  0E01      	MOVLW 0x01
0132  143E      	ANDWF FCD_04071__00058_1_FCL_NIBBLE, W
0134  6E3F      	MOVWF FCD_04071__00058_64_ptmp
0136  9492      	BCF gbl_trisa,2
0138  523F      	MOVF FCD_04071__00058_64_ptmp, F
013A  E004      	BZ	label20
013C  0E04      	MOVLW 0x04
013E  1089      	IORWF gbl_lata, W
0140  6E80      	MOVWF gbl_porta
0142  D003      	BRA	label21
0144            label20
0144  0EFB      	MOVLW 0xFB
0146  1489      	ANDWF gbl_lata, W
0148  6E80      	MOVWF gbl_porta
014A            label21
014A  523E      	MOVF FCD_04071__00058_1_FCL_NIBBLE, F
014C  90D8      	BCF STATUS,C
014E  323E      	RRCF FCD_04071__00058_1_FCL_NIBBLE, F
0150  0E01      	MOVLW 0x01
0152  143E      	ANDWF FCD_04071__00058_1_FCL_NIBBLE, W
0154  6E3F      	MOVWF FCD_04071__00058_73_ptmp
0156  9692      	BCF gbl_trisa,3
0158  523F      	MOVF FCD_04071__00058_73_ptmp, F
015A  E004      	BZ	label22
015C  0E08      	MOVLW 0x08
015E  1089      	IORWF gbl_lata, W
0160  6E80      	MOVWF gbl_porta
0162  D003      	BRA	label23
0164            label22
0164  0EF7      	MOVLW 0xF7
0166  1489      	ANDWF gbl_lata, W
0168  6E80      	MOVWF gbl_porta
016A            label23
016A  A03D      	BTFSS FCD_04071__00058_arg_FCL_TYPE,0
016C  D00C      	BRA	label25
016E  0E01      	MOVLW 0x01
0170  6E3F      	MOVWF FCD_04071__00058_82_ptmp
0172  9892      	BCF gbl_trisa,4
0174  523F      	MOVF FCD_04071__00058_82_ptmp, F
0176  E004      	BZ	label24
0178  0E10      	MOVLW 0x10
017A  1089      	IORWF gbl_lata, W
017C  6E80      	MOVWF gbl_porta
017E  D003      	BRA	label25
0180            label24
0180  0EEF      	MOVLW 0xEF
0182  1489      	ANDWF gbl_lata, W
0184  6E80      	MOVWF gbl_porta
0186            label25
0186  0E64      	MOVLW 0x64
0188  6E3F      	MOVWF delay_us_00000_arg_del
018A  EC06F000  	CALL delay_us_00000
018E  0E01      	MOVLW 0x01
0190  6E3F      	MOVWF FCD_04071__00058_93_ptmp
0192  9A92      	BCF gbl_trisa,5
0194  523F      	MOVF FCD_04071__00058_93_ptmp, F
0196  E004      	BZ	label26
0198  0E20      	MOVLW 0x20
019A  1089      	IORWF gbl_lata, W
019C  6E80      	MOVWF gbl_porta
019E  D003      	BRA	label27
01A0            label26
01A0  0EDF      	MOVLW 0xDF
01A2  1489      	ANDWF gbl_lata, W
01A4  6E80      	MOVWF gbl_porta
01A6            label27
01A6  0E64      	MOVLW 0x64
01A8  6E3F      	MOVWF delay_us_00000_arg_del
01AA  EC06F000  	CALL delay_us_00000
01AE  6A3F      	CLRF FCD_04071__00058_104_ptmp
01B0  9A92      	BCF gbl_trisa,5
01B2  523F      	MOVF FCD_04071__00058_104_ptmp, F
01B4  E004      	BZ	label28
01B6  0E20      	MOVLW 0x20
01B8  1089      	IORWF gbl_lata, W
01BA  6E80      	MOVWF gbl_porta
01BC  D003      	BRA	label29
01BE            label28
01BE  0EDF      	MOVLW 0xDF
01C0  1489      	ANDWF gbl_lata, W
01C2  6E80      	MOVWF gbl_porta
01C4            label29
01C4  0E64      	MOVLW 0x64
01C6  6E3F      	MOVWF delay_us_00000_arg_del
01C8  EC06F000  	CALL delay_us_00000
01CC  6A3F      	CLRF FCD_04071__00058_115_ptmp
01CE  9092      	BCF gbl_trisa,0
01D0  523F      	MOVF FCD_04071__00058_115_ptmp, F
01D2  E004      	BZ	label30
01D4  0E01      	MOVLW 0x01
01D6  1089      	IORWF gbl_lata, W
01D8  6E80      	MOVWF gbl_porta
01DA  D003      	BRA	label31
01DC            label30
01DC  0EFE      	MOVLW 0xFE
01DE  1489      	ANDWF gbl_lata, W
01E0  6E80      	MOVWF gbl_porta
01E2            label31
01E2  6A3F      	CLRF FCD_04071__00058_122_ptmp
01E4  9292      	BCF gbl_trisa,1
01E6  523F      	MOVF FCD_04071__00058_122_ptmp, F
01E8  E004      	BZ	label32
01EA  0E02      	MOVLW 0x02
01EC  1089      	IORWF gbl_lata, W
01EE  6E80      	MOVWF gbl_porta
01F0  D003      	BRA	label33
01F2            label32
01F2  0EFD      	MOVLW 0xFD
01F4  1489      	ANDWF gbl_lata, W
01F6  6E80      	MOVWF gbl_porta
01F8            label33
01F8  6A3F      	CLRF FCD_04071__00058_129_ptmp
01FA  9492      	BCF gbl_trisa,2
01FC  523F      	MOVF FCD_04071__00058_129_ptmp, F
01FE  E004      	BZ	label34
0200  0E04      	MOVLW 0x04
0202  1089      	IORWF gbl_lata, W
0204  6E80      	MOVWF gbl_porta
0206  D003      	BRA	label35
0208            label34
0208  0EFB      	MOVLW 0xFB
020A  1489      	ANDWF gbl_lata, W
020C  6E80      	MOVWF gbl_porta
020E            label35
020E  6A3F      	CLRF FCD_04071__00058_136_ptmp
0210  9692      	BCF gbl_trisa,3
0212  523F      	MOVF FCD_04071__00058_136_ptmp, F
0214  E004      	BZ	label36
0216  0E08      	MOVLW 0x08
0218  1089      	IORWF gbl_lata, W
021A  6E80      	MOVWF gbl_porta
021C  D003      	BRA	label37
021E            label36
021E  0EF7      	MOVLW 0xF7
0220  1489      	ANDWF gbl_lata, W
0222  6E80      	MOVWF gbl_porta
0224            label37
0224  6A3F      	CLRF FCD_04071__00058_143_ptmp
0226  9892      	BCF gbl_trisa,4
0228  523F      	MOVF FCD_04071__00058_143_ptmp, F
022A  E004      	BZ	label38
022C  0E10      	MOVLW 0x10
022E  1089      	IORWF gbl_lata, W
0230  6E80      	MOVWF gbl_porta
0232  D003      	BRA	label39
0234            label38
0234  0EEF      	MOVLW 0xEF
0236  1489      	ANDWF gbl_lata, W
0238  6E80      	MOVWF gbl_porta
023A            label39
023A  0E0F      	MOVLW 0x0F
023C  143C      	ANDWF FCD_04071__00058_arg_FCL_DATA, W
023E  6E3F      	MOVWF CompTempVar2650
0240  503F      	MOVF CompTempVar2650, W
0242  6E3E      	MOVWF FCD_04071__00058_1_FCL_NIBBLE
0244  0E01      	MOVLW 0x01
0246  143E      	ANDWF FCD_04071__00058_1_FCL_NIBBLE, W
0248  6E3F      	MOVWF FCD_04071__00058_152_ptmp
024A  9092      	BCF gbl_trisa,0
024C  523F      	MOVF FCD_04071__00058_152_ptmp, F
024E  E004      	BZ	label40
0250  0E01      	MOVLW 0x01
0252  1089      	IORWF gbl_lata, W
0254  6E80      	MOVWF gbl_porta
0256  D003      	BRA	label41
0258            label40
0258  0EFE      	MOVLW 0xFE
025A  1489      	ANDWF gbl_lata, W
025C  6E80      	MOVWF gbl_porta
025E            label41
025E  523E      	MOVF FCD_04071__00058_1_FCL_NIBBLE, F
0260  90D8      	BCF STATUS,C
0262  323E      	RRCF FCD_04071__00058_1_FCL_NIBBLE, F
0264  0E01      	MOVLW 0x01
0266  143E      	ANDWF FCD_04071__00058_1_FCL_NIBBLE, W
0268  6E3F      	MOVWF FCD_04071__00058_161_ptmp
026A  9292      	BCF gbl_trisa,1
026C  523F      	MOVF FCD_04071__00058_161_ptmp, F
026E  E004      	BZ	label42
0270  0E02      	MOVLW 0x02
0272  1089      	IORWF gbl_lata, W
0274  6E80      	MOVWF gbl_porta
0276  D003      	BRA	label43
0278            label42
0278  0EFD      	MOVLW 0xFD
027A  1489      	ANDWF gbl_lata, W
027C  6E80      	MOVWF gbl_porta
027E            label43
027E  523E      	MOVF FCD_04071__00058_1_FCL_NIBBLE, F
0280  90D8      	BCF STATUS,C
0282  323E      	RRCF FCD_04071__00058_1_FCL_NIBBLE, F
0284  0E01      	MOVLW 0x01
0286  143E      	ANDWF FCD_04071__00058_1_FCL_NIBBLE, W
0288  6E3F      	MOVWF FCD_04071__00058_170_ptmp
028A  9492      	BCF gbl_trisa,2
028C  523F      	MOVF FCD_04071__00058_170_ptmp, F
028E  E004      	BZ	label44
0290  0E04      	MOVLW 0x04
0292  1089      	IORWF gbl_lata, W
0294  6E80      	MOVWF gbl_porta
0296  D003      	BRA	label45
0298            label44
0298  0EFB      	MOVLW 0xFB
029A  1489      	ANDWF gbl_lata, W
029C  6E80      	MOVWF gbl_porta
029E            label45
029E  523E      	MOVF FCD_04071__00058_1_FCL_NIBBLE, F
02A0  90D8      	BCF STATUS,C
02A2  323E      	RRCF FCD_04071__00058_1_FCL_NIBBLE, F
02A4  0E01      	MOVLW 0x01
02A6  143E      	ANDWF FCD_04071__00058_1_FCL_NIBBLE, W
02A8  6E3F      	MOVWF FCD_04071__00058_179_ptmp
02AA  9692      	BCF gbl_trisa,3
02AC  523F      	MOVF FCD_04071__00058_179_ptmp, F
02AE  E004      	BZ	label46
02B0  0E08      	MOVLW 0x08
02B2  1089      	IORWF gbl_lata, W
02B4  6E80      	MOVWF gbl_porta
02B6  D003      	BRA	label47
02B8            label46
02B8  0EF7      	MOVLW 0xF7
02BA  1489      	ANDWF gbl_lata, W
02BC  6E80      	MOVWF gbl_porta
02BE            label47
02BE  A03D      	BTFSS FCD_04071__00058_arg_FCL_TYPE,0
02C0  D00C      	BRA	label49
02C2  0E01      	MOVLW 0x01
02C4  6E3F      	MOVWF FCD_04071__00058_188_ptmp
02C6  9892      	BCF gbl_trisa,4
02C8  523F      	MOVF FCD_04071__00058_188_ptmp, F
02CA  E004      	BZ	label48
02CC  0E10      	MOVLW 0x10
02CE  1089      	IORWF gbl_lata, W
02D0  6E80      	MOVWF gbl_porta
02D2  D003      	BRA	label49
02D4            label48
02D4  0EEF      	MOVLW 0xEF
02D6  1489      	ANDWF gbl_lata, W
02D8  6E80      	MOVWF gbl_porta
02DA            label49
02DA  0E64      	MOVLW 0x64
02DC  6E3F      	MOVWF delay_us_00000_arg_del
02DE  EC06F000  	CALL delay_us_00000
02E2  0E01      	MOVLW 0x01
02E4  6E3F      	MOVWF FCD_04071__00058_199_ptmp
02E6  9A92      	BCF gbl_trisa,5
02E8  523F      	MOVF FCD_04071__00058_199_ptmp, F
02EA  E004      	BZ	label50
02EC  0E20      	MOVLW 0x20
02EE  1089      	IORWF gbl_lata, W
02F0  6E80      	MOVWF gbl_porta
02F2  D003      	BRA	label51
02F4            label50
02F4  0EDF      	MOVLW 0xDF
02F6  1489      	ANDWF gbl_lata, W
02F8  6E80      	MOVWF gbl_porta
02FA            label51
02FA  0E64      	MOVLW 0x64
02FC  6E3F      	MOVWF delay_us_00000_arg_del
02FE  EC06F000  	CALL delay_us_00000
0302  6A3F      	CLRF FCD_04071__00058_210_ptmp
0304  9A92      	BCF gbl_trisa,5
0306  523F      	MOVF FCD_04071__00058_210_ptmp, F
0308  E004      	BZ	label52
030A  0E20      	MOVLW 0x20
030C  1089      	IORWF gbl_lata, W
030E  6E80      	MOVWF gbl_porta
0310  D003      	BRA	label53
0312            label52
0312  0EDF      	MOVLW 0xDF
0314  1489      	ANDWF gbl_lata, W
0316  6E80      	MOVWF gbl_porta
0318            label53
0318  0E64      	MOVLW 0x64
031A  6E3F      	MOVWF delay_us_00000_arg_del
031C  EC06F000  	CALL delay_us_00000
0320  0012      	RETURN
0322            ; } FCD_04071_LCD__RawSend function end

	ORG 0x00000322
0322            FC_CAL_UAR_00069
0322            ; { FC_CAL_UART_Init_1 ; function begin
0322  84AC      	BSF gbl_txsta,2
0324  0E7F      	MOVLW 0x7F
0326  6EAF      	MOVWF gbl_spbrg
0328  6AAB      	CLRF gbl_rcsta
032A  8EAB      	BSF gbl_rcsta,7
032C  8AAC      	BSF gbl_txsta,5
032E  88AB      	BSF gbl_rcsta,4
0330  9A9D      	BCF gbl_pie1,5
0332  0012      	RETURN
0334            ; } FC_CAL_UART_Init_1 function end

	ORG 0x00000334
0334            FCI_GETLEN_00040
0334            ; { FCI_GETLENGTH ; function begin
0334  6A3F      	CLRF FCI_GETLEN_00040_1_tmp
0336            label54
0336  503E      	MOVF FCI_GETLEN_00040_arg_iStr1_len, W
0338  603F      	CPFSLT FCI_GETLEN_00040_1_tmp
033A  D009      	BRA	label55
033C  503D      	MOVF FCI_GETLEN_00040_arg_sStr1+D'1', W
033E  6EEA      	MOVWF FSR0H
0340  503C      	MOVF FCI_GETLEN_00040_arg_sStr1, W
0342  243F      	ADDWF FCI_GETLEN_00040_1_tmp, W
0344  6EE9      	MOVWF FSR0L
0346  52EF      	MOVF INDF0, F
0348  E002      	BZ	label55
034A  2A3F      	INCF FCI_GETLEN_00040_1_tmp, F
034C  D7F4      	BRA	label54
034E            label55
034E  503F      	MOVF FCI_GETLEN_00040_1_tmp, W
0350  6E40      	MOVWF CompTempVarRet1850
0352  0012      	RETURN
0354            ; } FCI_GETLENGTH function end

	ORG 0x00000354
0354            FCD_04071__00053
0354            ; { FCD_04071_LCD__Clear ; function begin
0354  0E01      	MOVLW 0x01
0356  6E3C      	MOVWF FCD_04071__00058_arg_FCL_DATA
0358  903D      	BCF FCD_04071__00058_arg_FCL_TYPE,0
035A  EC33F000  	CALL FCD_04071__00058
035E  0E02      	MOVLW 0x02
0360  6E27      	MOVWF delay_ms_00000_arg_del
0362  EC0BF000  	CALL delay_ms_00000
0366  0E02      	MOVLW 0x02
0368  6E3C      	MOVWF FCD_04071__00058_arg_FCL_DATA
036A  903D      	BCF FCD_04071__00058_arg_FCL_TYPE,0
036C  EC33F000  	CALL FCD_04071__00058
0370  0E02      	MOVLW 0x02
0372  6E27      	MOVWF delay_ms_00000_arg_del
0374  EC0BF000  	CALL delay_ms_00000
0378  0012      	RETURN
037A            ; } FCD_04071_LCD__Clear function end

	ORG 0x0000037A
037A            FCD_05181__00051
037A            ; { FCD_05181_Bluetooth1__Initialise ; function begin
037A  6A26      	CLRF gbl_FCV_05181_Bluetooth1___00002
037C  6A25      	CLRF gbl_FCV_05181_Bluetooth1___00000
037E  EC91F001  	CALL FC_CAL_UAR_00069
0382  0012      	RETURN
0384            ; } FCD_05181_Bluetooth1__Initialise function end

	ORG 0x00000384
0384            FCD_04071__00054
0384            ; { FCD_04071_LCD__PrintString ; function begin
0384  6A3A      	CLRF FCD_04071__00054_1_FCL_IDX
0386  5027      	MOVF FCD_04071__00054_arg_FCL_TEXT, W
0388  6E3C      	MOVWF FCI_GETLEN_00040_arg_sStr1
038A  5028      	MOVF FCD_04071__00054_arg_FCL_TEXT+D'1', W
038C  6E3D      	MOVWF FCI_GETLEN_00040_arg_sStr1+D'1'
038E  5038      	MOVF FCD_04071__00054_arg_FCLsz_TEXT, W
0390  6E3E      	MOVWF FCI_GETLEN_00040_arg_iStr1_len
0392  EC9AF001  	CALL FCI_GETLEN_00040
0396  5040      	MOVF CompTempVarRet1850, W
0398  6E3B      	MOVWF FCD_04071__00054_1_FCL_COUNT
039A            label56
039A  503B      	MOVF FCD_04071__00054_1_FCL_COUNT, W
039C  603A      	CPFSLT FCD_04071__00054_1_FCL_IDX
039E  0012      	RETURN
03A0  5028      	MOVF FCD_04071__00054_arg_FCL_TEXT+D'1', W
03A2  6EEA      	MOVWF FSR0H
03A4  5027      	MOVF FCD_04071__00054_arg_FCL_TEXT, W
03A6  243A      	ADDWF FCD_04071__00054_1_FCL_IDX, W
03A8  6EE9      	MOVWF FSR0L
03AA  50EF      	MOVF INDF0, W
03AC  6E3C      	MOVWF FCD_04071__00058_arg_FCL_DATA
03AE  803D      	BSF FCD_04071__00058_arg_FCL_TYPE,0
03B0  EC33F000  	CALL FCD_04071__00058
03B4  283A      	INCF FCD_04071__00054_1_FCL_IDX, W
03B6  6E3A      	MOVWF FCD_04071__00054_1_FCL_IDX
03B8  D7F0      	BRA	label56
03BA            ; } FCD_04071_LCD__PrintString function end

	ORG 0x000003BA
03BA            FCD_04071__00052
03BA            ; { FCD_04071_LCD__Start ; function begin
03BA  6A27      	CLRF FCD_04071__00052_2_ptmp
03BC  9092      	BCF gbl_trisa,0
03BE  5227      	MOVF FCD_04071__00052_2_ptmp, F
03C0  E004      	BZ	label57
03C2  0E01      	MOVLW 0x01
03C4  1089      	IORWF gbl_lata, W
03C6  6E80      	MOVWF gbl_porta
03C8  D003      	BRA	label58
03CA            label57
03CA  0EFE      	MOVLW 0xFE
03CC  1489      	ANDWF gbl_lata, W
03CE  6E80      	MOVWF gbl_porta
03D0            label58
03D0  6A27      	CLRF FCD_04071__00052_9_ptmp
03D2  9292      	BCF gbl_trisa,1
03D4  5227      	MOVF FCD_04071__00052_9_ptmp, F
03D6  E004      	BZ	label59
03D8  0E02      	MOVLW 0x02
03DA  1089      	IORWF gbl_lata, W
03DC  6E80      	MOVWF gbl_porta
03DE  D003      	BRA	label60
03E0            label59
03E0  0EFD      	MOVLW 0xFD
03E2  1489      	ANDWF gbl_lata, W
03E4  6E80      	MOVWF gbl_porta
03E6            label60
03E6  6A27      	CLRF FCD_04071__00052_16_ptmp
03E8  9492      	BCF gbl_trisa,2
03EA  5227      	MOVF FCD_04071__00052_16_ptmp, F
03EC  E004      	BZ	label61
03EE  0E04      	MOVLW 0x04
03F0  1089      	IORWF gbl_lata, W
03F2  6E80      	MOVWF gbl_porta
03F4  D003      	BRA	label62
03F6            label61
03F6  0EFB      	MOVLW 0xFB
03F8  1489      	ANDWF gbl_lata, W
03FA  6E80      	MOVWF gbl_porta
03FC            label62
03FC  6A27      	CLRF FCD_04071__00052_23_ptmp
03FE  9692      	BCF gbl_trisa,3
0400  5227      	MOVF FCD_04071__00052_23_ptmp, F
0402  E004      	BZ	label63
0404  0E08      	MOVLW 0x08
0406  1089      	IORWF gbl_lata, W
0408  6E80      	MOVWF gbl_porta
040A  D003      	BRA	label64
040C            label63
040C  0EF7      	MOVLW 0xF7
040E  1489      	ANDWF gbl_lata, W
0410  6E80      	MOVWF gbl_porta
0412            label64
0412  6A27      	CLRF FCD_04071__00052_30_ptmp
0414  9892      	BCF gbl_trisa,4
0416  5227      	MOVF FCD_04071__00052_30_ptmp, F
0418  E004      	BZ	label65
041A  0E10      	MOVLW 0x10
041C  1089      	IORWF gbl_lata, W
041E  6E80      	MOVWF gbl_porta
0420  D003      	BRA	label66
0422            label65
0422  0EEF      	MOVLW 0xEF
0424  1489      	ANDWF gbl_lata, W
0426  6E80      	MOVWF gbl_porta
0428            label66
0428  6A27      	CLRF FCD_04071__00052_37_ptmp
042A  9A92      	BCF gbl_trisa,5
042C  5227      	MOVF FCD_04071__00052_37_ptmp, F
042E  E004      	BZ	label67
0430  0E20      	MOVLW 0x20
0432  1089      	IORWF gbl_lata, W
0434  6E80      	MOVWF gbl_porta
0436  D003      	BRA	label68
0438            label67
0438  0EDF      	MOVLW 0xDF
043A  1489      	ANDWF gbl_lata, W
043C  6E80      	MOVWF gbl_porta
043E            label68
043E  0E0C      	MOVLW 0x0C
0440  6E27      	MOVWF delay_ms_00000_arg_del
0442  EC0BF000  	CALL delay_ms_00000
0446  0E33      	MOVLW 0x33
0448  6E3C      	MOVWF FCD_04071__00058_arg_FCL_DATA
044A  903D      	BCF FCD_04071__00058_arg_FCL_TYPE,0
044C  EC33F000  	CALL FCD_04071__00058
0450  0E02      	MOVLW 0x02
0452  6E27      	MOVWF delay_ms_00000_arg_del
0454  EC0BF000  	CALL delay_ms_00000
0458  0E33      	MOVLW 0x33
045A  6E3C      	MOVWF FCD_04071__00058_arg_FCL_DATA
045C  903D      	BCF FCD_04071__00058_arg_FCL_TYPE,0
045E  EC33F000  	CALL FCD_04071__00058
0462  0E02      	MOVLW 0x02
0464  6E27      	MOVWF delay_ms_00000_arg_del
0466  EC0BF000  	CALL delay_ms_00000
046A  0E32      	MOVLW 0x32
046C  6E3C      	MOVWF FCD_04071__00058_arg_FCL_DATA
046E  903D      	BCF FCD_04071__00058_arg_FCL_TYPE,0
0470  EC33F000  	CALL FCD_04071__00058
0474  0E02      	MOVLW 0x02
0476  6E27      	MOVWF delay_ms_00000_arg_del
0478  EC0BF000  	CALL delay_ms_00000
047C  0E2C      	MOVLW 0x2C
047E  6E3C      	MOVWF FCD_04071__00058_arg_FCL_DATA
0480  903D      	BCF FCD_04071__00058_arg_FCL_TYPE,0
0482  EC33F000  	CALL FCD_04071__00058
0486  0E02      	MOVLW 0x02
0488  6E27      	MOVWF delay_ms_00000_arg_del
048A  EC0BF000  	CALL delay_ms_00000
048E  0E06      	MOVLW 0x06
0490  6E3C      	MOVWF FCD_04071__00058_arg_FCL_DATA
0492  903D      	BCF FCD_04071__00058_arg_FCL_TYPE,0
0494  EC33F000  	CALL FCD_04071__00058
0498  0E02      	MOVLW 0x02
049A  6E27      	MOVWF delay_ms_00000_arg_del
049C  EC0BF000  	CALL delay_ms_00000
04A0  0E0C      	MOVLW 0x0C
04A2  6E3C      	MOVWF FCD_04071__00058_arg_FCL_DATA
04A4  903D      	BCF FCD_04071__00058_arg_FCL_TYPE,0
04A6  EC33F000  	CALL FCD_04071__00058
04AA  0E02      	MOVLW 0x02
04AC  6E27      	MOVWF delay_ms_00000_arg_del
04AE  EC0BF000  	CALL delay_ms_00000
04B2  0E01      	MOVLW 0x01
04B4  6E3C      	MOVWF FCD_04071__00058_arg_FCL_DATA
04B6  903D      	BCF FCD_04071__00058_arg_FCL_TYPE,0
04B8  EC33F000  	CALL FCD_04071__00058
04BC  0E02      	MOVLW 0x02
04BE  6E27      	MOVWF delay_ms_00000_arg_del
04C0  EC0BF000  	CALL delay_ms_00000
04C4  0E02      	MOVLW 0x02
04C6  6E3C      	MOVWF FCD_04071__00058_arg_FCL_DATA
04C8  903D      	BCF FCD_04071__00058_arg_FCL_TYPE,0
04CA  EC33F000  	CALL FCD_04071__00058
04CE  0E02      	MOVLW 0x02
04D0  6E27      	MOVWF delay_ms_00000_arg_del
04D2  EC0BF000  	CALL delay_ms_00000
04D6  ECAAF001  	CALL FCD_04071__00053
04DA  0012      	RETURN
04DC            ; } FCD_04071_LCD__Start function end

	ORG 0x000004DC
04DC            FCM_INITIA_00050
04DC            ; { FCM_INITIALISATION ; function begin
04DC  ECBDF001  	CALL FCD_05181__00051
04E0  ECDDF001  	CALL FCD_04071__00052
04E4  ECAAF001  	CALL FCD_04071__00053
04E8  0E20      	MOVLW 0x20
04EA  6E31      	MOVWF CompTempVar2633+D'8'
04EC  0E2E      	MOVLW 0x2E
04EE  6E36      	MOVWF CompTempVar2633+D'13'
04F0  0E49      	MOVLW 0x49
04F2  6E29      	MOVWF CompTempVar2633
04F4  0E61      	MOVLW 0x61
04F6  6E2E      	MOVWF CompTempVar2633+D'5'
04F8  0E63      	MOVLW 0x63
04FA  6E32      	MOVWF CompTempVar2633+D'9'
04FC  0E65      	MOVLW 0x65
04FE  6E30      	MOVWF CompTempVar2633+D'7'
0500  0E69      	MOVLW 0x69
0502  6E2B      	MOVWF CompTempVar2633+D'2'
0504  6E2D      	MOVWF CompTempVar2633+D'4'
0506  0E6E      	MOVLW 0x6E
0508  6E2A      	MOVWF CompTempVar2633+D'1'
050A  6E34      	MOVWF CompTempVar2633+D'11'
050C  6E35      	MOVWF CompTempVar2633+D'12'
050E  0E6F      	MOVLW 0x6F
0510  6E33      	MOVWF CompTempVar2633+D'10'
0512  0E74      	MOVLW 0x74
0514  6E2C      	MOVWF CompTempVar2633+D'3'
0516  6E2F      	MOVWF CompTempVar2633+D'6'
0518  6A37      	CLRF CompTempVar2633+D'14'
051A  0E00      	MOVLW HIGH(CompTempVar2633+D'0')
051C  6E28      	MOVWF FCD_04071__00054_arg_FCL_TEXT+D'1'
051E  0E29      	MOVLW LOW(CompTempVar2633+D'0')
0520  6E27      	MOVWF FCD_04071__00054_arg_FCL_TEXT
0522  0E0F      	MOVLW 0x0F
0524  6E38      	MOVWF FCD_04071__00054_arg_FCLsz_TEXT
0526  6A39      	CLRF FCD_04071__00054_arg_FCLsz_TEXT+D'1'
0528  ECC2F001  	CALL FCD_04071__00054
052C  0012      	RETURN
052E            ; } FCM_INITIALISATION function end

	ORG 0x0000052E
052E            main
052E            ; { main ; function begin
052E  0E0F      	MOVLW 0x0F
0530  6EC1      	MOVWF gbl_adcon1
0532  EC6EF002  	CALL FCM_INITIA_00050
0536            label69
0536  D7FF      	BRA	label69
0538            ; } main function end

	ORG 0x00000538
0538            _startup
0538  0ED5      	MOVLW 0xD5
053A  6E05      	MOVWF gbl_14_LSR
053C  0EC4      	MOVLW 0xC4
053E  6E06      	MOVWF gbl_14_LSR+D'1'
0540  0EBB      	MOVLW 0xBB
0542  6E07      	MOVWF gbl_14_LSR+D'2'
0544  0EDC      	MOVLW 0xDC
0546  6E08      	MOVWF gbl_14_LSR+D'3'
0548  6A09      	CLRF gbl_15_gbl_aSig
054A  6A0A      	CLRF gbl_15_gbl_aSig+D'1'
054C  6A0B      	CLRF gbl_15_gbl_aSig+D'2'
054E  6A0C      	CLRF gbl_15_gbl_aSig+D'3'
0550  6A0D      	CLRF gbl_15_gbl_bSig
0552  6A0E      	CLRF gbl_15_gbl_bSig+D'1'
0554  6A0F      	CLRF gbl_15_gbl_bSig+D'2'
0556  6A10      	CLRF gbl_15_gbl_bSig+D'3'
0558  6A11      	CLRF gbl_15_gbl_zSig
055A  6A12      	CLRF gbl_15_gbl_zSig+D'1'
055C  6A13      	CLRF gbl_15_gbl_zSig+D'2'
055E  6A14      	CLRF gbl_15_gbl_zSig+D'3'
0560  6A1E      	CLRF gbl_15_gbl_aExp
0562  6A1F      	CLRF gbl_15_gbl_bExp
0564  6A19      	CLRF gbl_15_gbl_zExp
0566  6A1A      	CLRF gbl_15_gbl_zExp+D'1'
0568  6A20      	CLRF gbl_15_gbl_aSign
056A  6A21      	CLRF gbl_15_gbl_bSign
056C  6A22      	CLRF gbl_15_gbl_zSign
056E  6A23      	CLRF gbl_15_gbl_zSigZero
0570  6A15      	CLRF gbl_15_gbl_ret
0572  6A16      	CLRF gbl_15_gbl_ret+D'1'
0574  6A17      	CLRF gbl_15_gbl_ret+D'2'
0576  6A18      	CLRF gbl_15_gbl_ret+D'3'
0578  6A1C      	CLRF gbl_float_rounding_mode
057A  6A1D      	CLRF gbl_float_exception_flags
057C  6A1B      	CLRF gbl_float_detect_tininess
057E  9024      	BCF gbl_FCV_BLUETOOTH_CONNECTED,0
0580  EF97F002  	GOTO	main
	ORG 0x00000584
0584            interrupt
0584            ; { interrupt ; function begin
0584  CFEAF001  	MOVFF FSR0H,  Int1Context
0588  CFE9F002  	MOVFF FSR0L,  Int1Context+D'1'
058C  CFF4F003  	MOVFF PRODH,  Int1Context+D'2'
0590  CFF3F004  	MOVFF PRODL,  Int1Context+D'3'
0594  C004FFF3  	MOVFF Int1Context+D'3',  PRODL
0598  C003FFF4  	MOVFF Int1Context+D'2',  PRODH
059C  C002FFE9  	MOVFF Int1Context+D'1',  FSR0L
05A0  C001FFEA  	MOVFF Int1Context,  FSR0H
05A4  0011      	RETFIE 1
05A6            ; } interrupt function end

	ORG 0x00300000
300000  32FF      	DW 0x32FF
300002  FEFF      	DW 0xFEFF
300004  FBFF      	DW 0xFBFF
300006  FFBA      	DW 0xFFBA
300008  FFFF      	DW 0xFFFF
30000A  FFFF      	DW 0xFFFF
30000C  FFFF      	DW 0xFFFF
