;/////////////////////////////////////////////////////////////////////////////////
;// Code Generator: BoostC Compiler - http://www.sourceboost.com
;// Version       : 7.20
;// License Type  : Pro License
;// Limitations   : PIC18 max code size:Unlimited, max RAM banks:Unlimited
;/////////////////////////////////////////////////////////////////////////////////

	ORG 0x00000000
0000  EF39F00E  	GOTO	_startup
	ORG 0x00000008
0008  EF92F00E  	GOTO	interrupt
	ORG 0x0000000C
000C            delay_ms_00000
000C            ; { delay_ms ; function begin
000C  53BE      	MOVF delay_ms_00000_arg_del, F, 1
000E  0000      	NOP
0010  E101      	BNZ	label1
0012  0012      	RETURN
0014            label1
0014  0EF5      	MOVLW 0xF5
0016            label2
0016  0000      	NOP
0018  0000      	NOP
001A  0000      	NOP
001C  0000      	NOP
001E  0000      	NOP
0020  0000      	NOP
0022  0000      	NOP
0024  0000      	NOP
0026  0000      	NOP
0028  0000      	NOP
002A  0000      	NOP
002C  0000      	NOP
002E  0000      	NOP
0030  0000      	NOP
0032  0000      	NOP
0034  0000      	NOP
0036  0FFF      	ADDLW 0xFF
0038  A4D8      	BTFSS STATUS,Z
003A  D7ED      	BRA	label2
003C  0000      	NOP
003E  0000      	NOP
0040  0000      	NOP
0042  0000      	NOP
0044  0000      	NOP
0046  0000      	NOP
0048  0000      	NOP
004A  0000      	NOP
004C  0000      	NOP
004E  0000      	NOP
0050  0000      	NOP
0052  0000      	NOP
0054  0000      	NOP
0056  2FBE      	DECFSZ delay_ms_00000_arg_del, F, 1
0058  D7DD      	BRA	label1
005A  0012      	RETURN
005C            ; } delay_ms function end

	ORG 0x0000005C
005C            delay_us_00000
005C            ; { delay_us ; function begin
005C            label3
005C  0000      	NOP
005E  0000      	NOP
0060  2FBB      	DECFSZ delay_us_00000_arg_del, F, 1
0062  D7FC      	BRA	label3
0064  0012      	RETURN
0066            ; } delay_us function end

	ORG 0x00000066
0066            delay_s_00000
0066            ; { delay_s ; function begin
0066            label4
0066  0EFA      	MOVLW 0xFA
0068  6FBE      	MOVWF delay_ms_00000_arg_del, 1
006A  EC06F000  	CALL delay_ms_00000
006E  0EFA      	MOVLW 0xFA
0070  6FBE      	MOVWF delay_ms_00000_arg_del, 1
0072  EC06F000  	CALL delay_ms_00000
0076  0EFA      	MOVLW 0xFA
0078  6FBE      	MOVWF delay_ms_00000_arg_del, 1
007A  EC06F000  	CALL delay_ms_00000
007E  0EFA      	MOVLW 0xFA
0080  6FBE      	MOVWF delay_ms_00000_arg_del, 1
0082  EC06F000  	CALL delay_ms_00000
0086  2FBB      	DECFSZ delay_s_00000_arg_del, F, 1
0088  D7EE      	BRA	label4
008A  0012      	RETURN
008C            ; } delay_s function end

	ORG 0x0000008C
008C            FC_CAL_UAR_00087
008C            ; { FC_CAL_UART_Send_1 ; function begin
008C            label5
008C  0E10      	MOVLW 0x10
008E  149E      	ANDWF gbl_pir1, W
0090  0100      	MOVLB 0x00
0092  6FFF      	MOVWF CompTempVar2895, 1
0094  53FF      	MOVF CompTempVar2895, F, 1
0096  E0FA      	BZ	label5
0098  0101      	MOVLB 0x01
009A  5100      	MOVF FC_CAL_UAR_00087_arg_nChar, W, 1
009C  6EAD      	MOVWF gbl_txreg
009E  0012      	RETURN
00A0            ; } FC_CAL_UART_Send_1 function end

	ORG 0x000000A0
00A0            FC_CAL_UAR_00086
00A0            ; { FC_CAL_UART_Receive_1 ; function begin
00A0  0101      	MOVLB 0x01
00A2  6900      	SETF FC_CAL_UAR_00086_1_retVal, 1
00A4  6B01      	CLRF FC_CAL_UAR_00086_1_delay1, 1
00A6  6B02      	CLRF FC_CAL_UAR_00086_1_regcheck, 1
00A8  6B03      	CLRF FC_CAL_UAR_00086_1_bWaitForever, 1
00AA  6B04      	CLRF FC_CAL_UAR_00086_1_rxStatus, 1
00AC  6B07      	CLRF FC_CAL_UAR_00086_1_dummy, 1
00AE  0100      	MOVLB 0x00
00B0  29FF      	INCF FC_CAL_UAR_00086_arg_nTimeout, W, 1
00B2  E103      	BNZ	label6
00B4  0E01      	MOVLW 0x01
00B6  0101      	MOVLB 0x01
00B8  6F03      	MOVWF FC_CAL_UAR_00086_1_bWaitForever, 1
00BA            label6
00BA  0101      	MOVLB 0x01
00BC  5304      	MOVF FC_CAL_UAR_00086_1_rxStatus, F, 1
00BE  E129      	BNZ	label11
00C0  5303      	MOVF FC_CAL_UAR_00086_1_bWaitForever, F, 1
00C2  E11D      	BNZ	label10
00C4  0100      	MOVLB 0x00
00C6  53FF      	MOVF FC_CAL_UAR_00086_arg_nTimeout, F, 1
00C8  E104      	BNZ	label7
00CA  0E01      	MOVLW 0x01
00CC  0101      	MOVLB 0x01
00CE  6F04      	MOVWF FC_CAL_UAR_00086_1_rxStatus, 1
00D0  D016      	BRA	label10
00D2            label7
00D2  0101      	MOVLB 0x01
00D4  6B05      	CLRF FC_CAL_UAR_00086_1_delaycnt, 1
00D6  6B06      	CLRF FC_CAL_UAR_00086_1_delaycnt+D'1', 1
00D8            label8
00D8  0E31      	MOVLW 0x31
00DA  5D05      	SUBWF FC_CAL_UAR_00086_1_delaycnt, W, 1
00DC  E205      	BC	label9
00DE  6706      	TSTFSZ FC_CAL_UAR_00086_1_delaycnt+D'1', 1
00E0  D003      	BRA	label9
00E2  4B05      	INFSNZ FC_CAL_UAR_00086_1_delaycnt, F, 1
00E4  2B06      	INCF FC_CAL_UAR_00086_1_delaycnt+D'1', F, 1
00E6  D7F8      	BRA	label8
00E8            label9
00E8  2901      	INCF FC_CAL_UAR_00086_1_delay1, W, 1
00EA  6F01      	MOVWF FC_CAL_UAR_00086_1_delay1, 1
00EC  0E64      	MOVLW 0x64
00EE  6301      	CPFSEQ FC_CAL_UAR_00086_1_delay1, 1
00F0  D006      	BRA	label10
00F2  0100      	MOVLB 0x00
00F4  05FF      	DECF FC_CAL_UAR_00086_arg_nTimeout, W, 1
00F6  6FFF      	MOVWF FC_CAL_UAR_00086_arg_nTimeout, 1
00F8  0004      	CLRWDT
00FA  0101      	MOVLB 0x01
00FC  6B01      	CLRF FC_CAL_UAR_00086_1_delay1, 1
00FE            label10
00FE  0E20      	MOVLW 0x20
0100  149E      	ANDWF gbl_pir1, W
0102  6F08      	MOVWF CompTempVar2892, 1
0104  5108      	MOVF CompTempVar2892, W, 1
0106  6F02      	MOVWF FC_CAL_UAR_00086_1_regcheck, 1
0108  5302      	MOVF FC_CAL_UAR_00086_1_regcheck, F, 1
010A  E0D7      	BZ	label6
010C  0E02      	MOVLW 0x02
010E  6F04      	MOVWF FC_CAL_UAR_00086_1_rxStatus, 1
0110  D7D4      	BRA	label6
0112            label11
0112  0E02      	MOVLW 0x02
0114  6304      	CPFSEQ FC_CAL_UAR_00086_1_rxStatus, 1
0116  D018      	BRA	label14
0118  0E04      	MOVLW 0x04
011A  14AB      	ANDWF gbl_rcsta, W
011C  6F08      	MOVWF CompTempVar2893, 1
011E  5108      	MOVF CompTempVar2893, W, 1
0120  6F02      	MOVWF FC_CAL_UAR_00086_1_regcheck, 1
0122  5302      	MOVF FC_CAL_UAR_00086_1_regcheck, F, 1
0124  E003      	BZ	label12
0126  50AE      	MOVF gbl_rcreg, W
0128  6F07      	MOVWF FC_CAL_UAR_00086_1_dummy, 1
012A  D00E      	BRA	label14
012C            label12
012C  0E02      	MOVLW 0x02
012E  14AB      	ANDWF gbl_rcsta, W
0130  6F08      	MOVWF CompTempVar2894, 1
0132  5108      	MOVF CompTempVar2894, W, 1
0134  6F02      	MOVWF FC_CAL_UAR_00086_1_regcheck, 1
0136  5302      	MOVF FC_CAL_UAR_00086_1_regcheck, F, 1
0138  E003      	BZ	label13
013A  98AB      	BCF gbl_rcsta,4
013C  88AB      	BSF gbl_rcsta,4
013E  D004      	BRA	label14
0140            label13
0140  6B00      	CLRF FC_CAL_UAR_00086_1_retVal, 1
0142  50AE      	MOVF gbl_rcreg, W
0144  1100      	IORWF FC_CAL_UAR_00086_1_retVal, W, 1
0146  6F00      	MOVWF FC_CAL_UAR_00086_1_retVal, 1
0148            label14
0148  5100      	MOVF FC_CAL_UAR_00086_1_retVal, W, 1
014A  6F08      	MOVWF CompTempVarRet2891, 1
014C  6B09      	CLRF CompTempVarRet2891+D'1', 1
014E  0012      	RETURN
0150            ; } FC_CAL_UART_Receive_1 function end

	ORG 0x00000150
0150            FCI_GETLEN_0004B
0150            ; { FCI_GETLENGTH ; function begin
0150  0101      	MOVLB 0x01
0152  6B02      	CLRF FCI_GETLEN_0004B_1_tmp, 1
0154            label15
0154  0100      	MOVLB 0x00
0156  51FF      	MOVF FCI_GETLEN_0004B_arg_iStr1_len, W, 1
0158  0101      	MOVLB 0x01
015A  6102      	CPFSLT FCI_GETLEN_0004B_1_tmp, 1
015C  D009      	BRA	label16
015E  5101      	MOVF FCI_GETLEN_0004B_arg_sStr1+D'1', W, 1
0160  6EEA      	MOVWF FSR0H
0162  5100      	MOVF FCI_GETLEN_0004B_arg_sStr1, W, 1
0164  2502      	ADDWF FCI_GETLEN_0004B_1_tmp, W, 1
0166  6EE9      	MOVWF FSR0L
0168  52EF      	MOVF INDF0, F
016A  E002      	BZ	label16
016C  2B02      	INCF FCI_GETLEN_0004B_1_tmp, F, 1
016E  D7F2      	BRA	label15
0170            label16
0170  5102      	MOVF FCI_GETLEN_0004B_1_tmp, W, 1
0172  6F03      	MOVWF CompTempVarRet1850, 1
0174  0012      	RETURN
0176            ; } FCI_GETLENGTH function end

	ORG 0x00000176
0176            FCD_0f051__00077
0176            ; { FCD_0f051_gLCD_EB076_4D1__DrawRectangle ; function begin
0176  53D1      	MOVF FCD_0f051__00077_arg_FCL_T_00078, F, 1
0178  E16E      	BNZ	label17
017A  53D2      	MOVF FCD_0f051__00077_arg_FCL_SOLID, F, 1
017C  E16C      	BNZ	label17
017E  0E70      	MOVLW 0x70
0180  0101      	MOVLB 0x01
0182  6F00      	MOVWF FC_CAL_UAR_00087_arg_nChar, 1
0184  6B01      	CLRF FC_CAL_UAR_00087_arg_nChar+D'1', 1
0186  EC46F000  	CALL FC_CAL_UAR_00087
018A  6B00      	CLRF FC_CAL_UAR_00087_arg_nChar, 1
018C  6B01      	CLRF FC_CAL_UAR_00087_arg_nChar+D'1', 1
018E  EC46F000  	CALL FC_CAL_UAR_00087
0192  0100      	MOVLB 0x00
0194  69FF      	SETF FC_CAL_UAR_00086_arg_nTimeout, 1
0196  EC50F000  	CALL FC_CAL_UAR_00086
019A  0E72      	MOVLW 0x72
019C  6F00      	MOVWF FC_CAL_UAR_00087_arg_nChar, 1
019E  6B01      	CLRF FC_CAL_UAR_00087_arg_nChar+D'1', 1
01A0  EC46F000  	CALL FC_CAL_UAR_00087
01A4  0100      	MOVLB 0x00
01A6  51CA      	MOVF FCD_0f051__00077_arg_FCL_X1+D'1', W, 1
01A8  0101      	MOVLB 0x01
01AA  6F00      	MOVWF FC_CAL_UAR_00087_arg_nChar, 1
01AC  6B01      	CLRF FC_CAL_UAR_00087_arg_nChar+D'1', 1
01AE  EC46F000  	CALL FC_CAL_UAR_00087
01B2  0100      	MOVLB 0x00
01B4  51C9      	MOVF FCD_0f051__00077_arg_FCL_X1, W, 1
01B6  0101      	MOVLB 0x01
01B8  6F00      	MOVWF FC_CAL_UAR_00087_arg_nChar, 1
01BA  0100      	MOVLB 0x00
01BC  51CA      	MOVF FCD_0f051__00077_arg_FCL_X1+D'1', W, 1
01BE  0101      	MOVLB 0x01
01C0  6F01      	MOVWF FC_CAL_UAR_00087_arg_nChar+D'1', 1
01C2  EC46F000  	CALL FC_CAL_UAR_00087
01C6  0100      	MOVLB 0x00
01C8  51CC      	MOVF FCD_0f051__00077_arg_FCL_Y1+D'1', W, 1
01CA  0101      	MOVLB 0x01
01CC  6F00      	MOVWF FC_CAL_UAR_00087_arg_nChar, 1
01CE  6B01      	CLRF FC_CAL_UAR_00087_arg_nChar+D'1', 1
01D0  EC46F000  	CALL FC_CAL_UAR_00087
01D4  0100      	MOVLB 0x00
01D6  51CB      	MOVF FCD_0f051__00077_arg_FCL_Y1, W, 1
01D8  0101      	MOVLB 0x01
01DA  6F00      	MOVWF FC_CAL_UAR_00087_arg_nChar, 1
01DC  0100      	MOVLB 0x00
01DE  51CC      	MOVF FCD_0f051__00077_arg_FCL_Y1+D'1', W, 1
01E0  0101      	MOVLB 0x01
01E2  6F01      	MOVWF FC_CAL_UAR_00087_arg_nChar+D'1', 1
01E4  EC46F000  	CALL FC_CAL_UAR_00087
01E8  0100      	MOVLB 0x00
01EA  51CE      	MOVF FCD_0f051__00077_arg_FCL_X2+D'1', W, 1
01EC  0101      	MOVLB 0x01
01EE  6F00      	MOVWF FC_CAL_UAR_00087_arg_nChar, 1
01F0  6B01      	CLRF FC_CAL_UAR_00087_arg_nChar+D'1', 1
01F2  EC46F000  	CALL FC_CAL_UAR_00087
01F6  0100      	MOVLB 0x00
01F8  51CD      	MOVF FCD_0f051__00077_arg_FCL_X2, W, 1
01FA  0101      	MOVLB 0x01
01FC  6F00      	MOVWF FC_CAL_UAR_00087_arg_nChar, 1
01FE  0100      	MOVLB 0x00
0200  51CE      	MOVF FCD_0f051__00077_arg_FCL_X2+D'1', W, 1
0202  0101      	MOVLB 0x01
0204  6F01      	MOVWF FC_CAL_UAR_00087_arg_nChar+D'1', 1
0206  EC46F000  	CALL FC_CAL_UAR_00087
020A  0100      	MOVLB 0x00
020C  51D0      	MOVF FCD_0f051__00077_arg_FCL_Y2+D'1', W, 1
020E  0101      	MOVLB 0x01
0210  6F00      	MOVWF FC_CAL_UAR_00087_arg_nChar, 1
0212  6B01      	CLRF FC_CAL_UAR_00087_arg_nChar+D'1', 1
0214  EC46F000  	CALL FC_CAL_UAR_00087
0218  0100      	MOVLB 0x00
021A  51CF      	MOVF FCD_0f051__00077_arg_FCL_Y2, W, 1
021C  0101      	MOVLB 0x01
021E  6F00      	MOVWF FC_CAL_UAR_00087_arg_nChar, 1
0220  0100      	MOVLB 0x00
0222  51D0      	MOVF FCD_0f051__00077_arg_FCL_Y2+D'1', W, 1
0224  0101      	MOVLB 0x01
0226  6F01      	MOVWF FC_CAL_UAR_00087_arg_nChar+D'1', 1
0228  EC46F000  	CALL FC_CAL_UAR_00087
022C  0100      	MOVLB 0x00
022E  5193      	MOVF gbl_FCV_0f051_gLCD_EB076_4_0000C+D'1', W, 1
0230  0101      	MOVLB 0x01
0232  6F00      	MOVWF FC_CAL_UAR_00087_arg_nChar, 1
0234  6B01      	CLRF FC_CAL_UAR_00087_arg_nChar+D'1', 1
0236  EC46F000  	CALL FC_CAL_UAR_00087
023A  0100      	MOVLB 0x00
023C  5192      	MOVF gbl_FCV_0f051_gLCD_EB076_4_0000C, W, 1
023E  0101      	MOVLB 0x01
0240  6F00      	MOVWF FC_CAL_UAR_00087_arg_nChar, 1
0242  0100      	MOVLB 0x00
0244  5193      	MOVF gbl_FCV_0f051_gLCD_EB076_4_0000C+D'1', W, 1
0246  0101      	MOVLB 0x01
0248  6F01      	MOVWF FC_CAL_UAR_00087_arg_nChar+D'1', 1
024A  EC46F000  	CALL FC_CAL_UAR_00087
024E  0100      	MOVLB 0x00
0250  69FF      	SETF FC_CAL_UAR_00086_arg_nTimeout, 1
0252  EC50F000  	CALL FC_CAL_UAR_00086
0256            label17
0256  0E70      	MOVLW 0x70
0258  0101      	MOVLB 0x01
025A  6F00      	MOVWF FC_CAL_UAR_00087_arg_nChar, 1
025C  6B01      	CLRF FC_CAL_UAR_00087_arg_nChar+D'1', 1
025E  EC46F000  	CALL FC_CAL_UAR_00087
0262  0100      	MOVLB 0x00
0264  53D2      	MOVF FCD_0f051__00077_arg_FCL_SOLID, F, 1
0266  E006      	BZ	label18
0268  0101      	MOVLB 0x01
026A  6B00      	CLRF FC_CAL_UAR_00087_arg_nChar, 1
026C  6B01      	CLRF FC_CAL_UAR_00087_arg_nChar+D'1', 1
026E  EC46F000  	CALL FC_CAL_UAR_00087
0272  D006      	BRA	label19
0274            label18
0274  0E01      	MOVLW 0x01
0276  0101      	MOVLB 0x01
0278  6F00      	MOVWF FC_CAL_UAR_00087_arg_nChar, 1
027A  6B01      	CLRF FC_CAL_UAR_00087_arg_nChar+D'1', 1
027C  EC46F000  	CALL FC_CAL_UAR_00087
0280            label19
0280  0100      	MOVLB 0x00
0282  69FF      	SETF FC_CAL_UAR_00086_arg_nTimeout, 1
0284  EC50F000  	CALL FC_CAL_UAR_00086
0288  0E72      	MOVLW 0x72
028A  6F00      	MOVWF FC_CAL_UAR_00087_arg_nChar, 1
028C  6B01      	CLRF FC_CAL_UAR_00087_arg_nChar+D'1', 1
028E  EC46F000  	CALL FC_CAL_UAR_00087
0292  0100      	MOVLB 0x00
0294  51CA      	MOVF FCD_0f051__00077_arg_FCL_X1+D'1', W, 1
0296  0101      	MOVLB 0x01
0298  6F00      	MOVWF FC_CAL_UAR_00087_arg_nChar, 1
029A  6B01      	CLRF FC_CAL_UAR_00087_arg_nChar+D'1', 1
029C  EC46F000  	CALL FC_CAL_UAR_00087
02A0  0100      	MOVLB 0x00
02A2  51C9      	MOVF FCD_0f051__00077_arg_FCL_X1, W, 1
02A4  0101      	MOVLB 0x01
02A6  6F00      	MOVWF FC_CAL_UAR_00087_arg_nChar, 1
02A8  0100      	MOVLB 0x00
02AA  51CA      	MOVF FCD_0f051__00077_arg_FCL_X1+D'1', W, 1
02AC  0101      	MOVLB 0x01
02AE  6F01      	MOVWF FC_CAL_UAR_00087_arg_nChar+D'1', 1
02B0  EC46F000  	CALL FC_CAL_UAR_00087
02B4  0100      	MOVLB 0x00
02B6  51CC      	MOVF FCD_0f051__00077_arg_FCL_Y1+D'1', W, 1
02B8  0101      	MOVLB 0x01
02BA  6F00      	MOVWF FC_CAL_UAR_00087_arg_nChar, 1
02BC  6B01      	CLRF FC_CAL_UAR_00087_arg_nChar+D'1', 1
02BE  EC46F000  	CALL FC_CAL_UAR_00087
02C2  0100      	MOVLB 0x00
02C4  51CB      	MOVF FCD_0f051__00077_arg_FCL_Y1, W, 1
02C6  0101      	MOVLB 0x01
02C8  6F00      	MOVWF FC_CAL_UAR_00087_arg_nChar, 1
02CA  0100      	MOVLB 0x00
02CC  51CC      	MOVF FCD_0f051__00077_arg_FCL_Y1+D'1', W, 1
02CE  0101      	MOVLB 0x01
02D0  6F01      	MOVWF FC_CAL_UAR_00087_arg_nChar+D'1', 1
02D2  EC46F000  	CALL FC_CAL_UAR_00087
02D6  0100      	MOVLB 0x00
02D8  51CE      	MOVF FCD_0f051__00077_arg_FCL_X2+D'1', W, 1
02DA  0101      	MOVLB 0x01
02DC  6F00      	MOVWF FC_CAL_UAR_00087_arg_nChar, 1
02DE  6B01      	CLRF FC_CAL_UAR_00087_arg_nChar+D'1', 1
02E0  EC46F000  	CALL FC_CAL_UAR_00087
02E4  0100      	MOVLB 0x00
02E6  51CD      	MOVF FCD_0f051__00077_arg_FCL_X2, W, 1
02E8  0101      	MOVLB 0x01
02EA  6F00      	MOVWF FC_CAL_UAR_00087_arg_nChar, 1
02EC  0100      	MOVLB 0x00
02EE  51CE      	MOVF FCD_0f051__00077_arg_FCL_X2+D'1', W, 1
02F0  0101      	MOVLB 0x01
02F2  6F01      	MOVWF FC_CAL_UAR_00087_arg_nChar+D'1', 1
02F4  EC46F000  	CALL FC_CAL_UAR_00087
02F8  0100      	MOVLB 0x00
02FA  51D0      	MOVF FCD_0f051__00077_arg_FCL_Y2+D'1', W, 1
02FC  0101      	MOVLB 0x01
02FE  6F00      	MOVWF FC_CAL_UAR_00087_arg_nChar, 1
0300  6B01      	CLRF FC_CAL_UAR_00087_arg_nChar+D'1', 1
0302  EC46F000  	CALL FC_CAL_UAR_00087
0306  0100      	MOVLB 0x00
0308  51CF      	MOVF FCD_0f051__00077_arg_FCL_Y2, W, 1
030A  0101      	MOVLB 0x01
030C  6F00      	MOVWF FC_CAL_UAR_00087_arg_nChar, 1
030E  0100      	MOVLB 0x00
0310  51D0      	MOVF FCD_0f051__00077_arg_FCL_Y2+D'1', W, 1
0312  0101      	MOVLB 0x01
0314  6F01      	MOVWF FC_CAL_UAR_00087_arg_nChar+D'1', 1
0316  EC46F000  	CALL FC_CAL_UAR_00087
031A  0100      	MOVLB 0x00
031C  5195      	MOVF gbl_FCV_0f051_gLCD_EB076_4_0000D+D'1', W, 1
031E  0101      	MOVLB 0x01
0320  6F00      	MOVWF FC_CAL_UAR_00087_arg_nChar, 1
0322  6B01      	CLRF FC_CAL_UAR_00087_arg_nChar+D'1', 1
0324  EC46F000  	CALL FC_CAL_UAR_00087
0328  0100      	MOVLB 0x00
032A  5194      	MOVF gbl_FCV_0f051_gLCD_EB076_4_0000D, W, 1
032C  0101      	MOVLB 0x01
032E  6F00      	MOVWF FC_CAL_UAR_00087_arg_nChar, 1
0330  0100      	MOVLB 0x00
0332  5195      	MOVF gbl_FCV_0f051_gLCD_EB076_4_0000D+D'1', W, 1
0334  0101      	MOVLB 0x01
0336  6F01      	MOVWF FC_CAL_UAR_00087_arg_nChar+D'1', 1
0338  EC46F000  	CALL FC_CAL_UAR_00087
033C  0100      	MOVLB 0x00
033E  69FF      	SETF FC_CAL_UAR_00086_arg_nTimeout, 1
0340  EC50F000  	CALL FC_CAL_UAR_00086
0344  0012      	RETURN
0346            ; } FCD_0f051_gLCD_EB076_4D1__DrawRectangle function end

	ORG 0x00000346
0346            FCD_0f051__00076
0346            ; { FCD_0f051_gLCD_EB076_4D1__SetForegroundColour ; function begin
0346  33C9      	RRCF FCD_0f051__00076_arg_FCL_RED, F, 1
0348  33C9      	RRCF FCD_0f051__00076_arg_FCL_RED, F, 1
034A  33C9      	RRCF FCD_0f051__00076_arg_FCL_RED, F, 1
034C  0E1F      	MOVLW 0x1F
034E  17C9      	ANDWF FCD_0f051__00076_arg_FCL_RED, F, 1
0350  33CA      	RRCF FCD_0f051__00076_arg_FCL_GREEN, F, 1
0352  33CA      	RRCF FCD_0f051__00076_arg_FCL_GREEN, F, 1
0354  0E3F      	MOVLW 0x3F
0356  17CA      	ANDWF FCD_0f051__00076_arg_FCL_GREEN, F, 1
0358  33CB      	RRCF FCD_0f051__00076_arg_FCL_BLUE, F, 1
035A  33CB      	RRCF FCD_0f051__00076_arg_FCL_BLUE, F, 1
035C  33CB      	RRCF FCD_0f051__00076_arg_FCL_BLUE, F, 1
035E  0E1F      	MOVLW 0x1F
0360  17CB      	ANDWF FCD_0f051__00076_arg_FCL_BLUE, F, 1
0362  51CA      	MOVF FCD_0f051__00076_arg_FCL_GREEN, W, 1
0364  6FCC      	MOVWF CompTempVar2793, 1
0366  6B95      	CLRF gbl_FCV_0f051_gLCD_EB076_4_0000D+D'1', 1
0368  37CC      	RLCF CompTempVar2793, F, 1
036A  3795      	RLCF gbl_FCV_0f051_gLCD_EB076_4_0000D+D'1', F, 1
036C  37CC      	RLCF CompTempVar2793, F, 1
036E  3795      	RLCF gbl_FCV_0f051_gLCD_EB076_4_0000D+D'1', F, 1
0370  37CC      	RLCF CompTempVar2793, F, 1
0372  3795      	RLCF gbl_FCV_0f051_gLCD_EB076_4_0000D+D'1', F, 1
0374  37CC      	RLCF CompTempVar2793, F, 1
0376  3795      	RLCF gbl_FCV_0f051_gLCD_EB076_4_0000D+D'1', F, 1
0378  37CC      	RLCF CompTempVar2793, F, 1
037A  3795      	RLCF gbl_FCV_0f051_gLCD_EB076_4_0000D+D'1', F, 1
037C  0EE0      	MOVLW 0xE0
037E  17CC      	ANDWF CompTempVar2793, F, 1
0380  51CC      	MOVF CompTempVar2793, W, 1
0382  11CB      	IORWF FCD_0f051__00076_arg_FCL_BLUE, W, 1
0384  6F94      	MOVWF gbl_FCV_0f051_gLCD_EB076_4_0000D, 1
0386  6BCC      	CLRF CompTempVar2797, 1
0388  51C9      	MOVF FCD_0f051__00076_arg_FCL_RED, W, 1
038A  6FCD      	MOVWF CompTempVar2798, 1
038C  90D8      	BCF STATUS,C
038E  37CD      	RLCF CompTempVar2798, F, 1
0390  90D8      	BCF STATUS,C
0392  37CD      	RLCF CompTempVar2798, F, 1
0394  90D8      	BCF STATUS,C
0396  37CD      	RLCF CompTempVar2798, F, 1
0398  51CC      	MOVF CompTempVar2797, W, 1
039A  1394      	IORWF gbl_FCV_0f051_gLCD_EB076_4_0000D, F, 1
039C  51CD      	MOVF CompTempVar2798, W, 1
039E  1395      	IORWF gbl_FCV_0f051_gLCD_EB076_4_0000D+D'1', F, 1
03A0  0012      	RETURN
03A2            ; } FCD_0f051_gLCD_EB076_4D1__SetForegroundColour function end

	ORG 0x000003A2
03A2            FC_CAL_UAR_00085
03A2            ; { FC_CAL_UART_Uninit_1 ; function begin
03A2  6AAB      	CLRF gbl_rcsta
03A4  6AAC      	CLRF gbl_txsta
03A6  0012      	RETURN
03A8            ; } FC_CAL_UART_Uninit_1 function end

	ORG 0x000003A8
03A8            FCM_parame_0005C
03A8            ; { FCM_parametres_bateau ; function begin
03A8  51C6      	MOVF FCM_parame_0005C_arg_FCL_ROUGE, W, 1
03AA  6FC9      	MOVWF FCD_0f051__00076_arg_FCL_RED, 1
03AC  51C7      	MOVF FCM_parame_0005C_arg_FCL_VERT, W, 1
03AE  6FCA      	MOVWF FCD_0f051__00076_arg_FCL_GREEN, 1
03B0  51C8      	MOVF FCM_parame_0005C_arg_FCL_BLEU, W, 1
03B2  6FCB      	MOVWF FCD_0f051__00076_arg_FCL_BLUE, 1
03B4  ECA3F001  	CALL FCD_0f051__00076
03B8  51BE      	MOVF FCM_parame_0005C_arg_FCL_POS_X1, W, 1
03BA  6FC9      	MOVWF FCD_0f051__00077_arg_FCL_X1, 1
03BC  51BF      	MOVF FCM_parame_0005C_arg_FCL_POS_X1+D'1', W, 1
03BE  6FCA      	MOVWF FCD_0f051__00077_arg_FCL_X1+D'1', 1
03C0  51C2      	MOVF FCM_parame_0005C_arg_FCL_POS_Y1, W, 1
03C2  6FCB      	MOVWF FCD_0f051__00077_arg_FCL_Y1, 1
03C4  51C3      	MOVF FCM_parame_0005C_arg_FCL_POS_Y1+D'1', W, 1
03C6  6FCC      	MOVWF FCD_0f051__00077_arg_FCL_Y1+D'1', 1
03C8  51C0      	MOVF FCM_parame_0005C_arg_FCL_POS_X2, W, 1
03CA  6FCD      	MOVWF FCD_0f051__00077_arg_FCL_X2, 1
03CC  51C1      	MOVF FCM_parame_0005C_arg_FCL_POS_X2+D'1', W, 1
03CE  6FCE      	MOVWF FCD_0f051__00077_arg_FCL_X2+D'1', 1
03D0  51C4      	MOVF FCM_parame_0005C_arg_FCL_POS_Y2, W, 1
03D2  6FCF      	MOVWF FCD_0f051__00077_arg_FCL_Y2, 1
03D4  51C5      	MOVF FCM_parame_0005C_arg_FCL_POS_Y2+D'1', W, 1
03D6  6FD0      	MOVWF FCD_0f051__00077_arg_FCL_Y2+D'1', 1
03D8  6BD1      	CLRF FCD_0f051__00077_arg_FCL_T_00078, 1
03DA  0E01      	MOVLW 0x01
03DC  6FD2      	MOVWF FCD_0f051__00077_arg_FCL_SOLID, 1
03DE  ECBBF000  	CALL FCD_0f051__00077
03E2  0012      	RETURN
03E4            ; } FCM_parametres_bateau function end

	ORG 0x000003E4
03E4            FCM_Reinit_00070
03E4            ; { FCM_Reinitialisation_texte ; function begin
03E4  0100      	MOVLB 0x00
03E6  69C9      	SETF FCD_0f051__00076_arg_FCL_RED, 1
03E8  69CA      	SETF FCD_0f051__00076_arg_FCL_GREEN, 1
03EA  69CB      	SETF FCD_0f051__00076_arg_FCL_BLUE, 1
03EC  ECA3F001  	CALL FCD_0f051__00076
03F0  6BC9      	CLRF FCD_0f051__00077_arg_FCL_X1, 1
03F2  6BCA      	CLRF FCD_0f051__00077_arg_FCL_X1+D'1', 1
03F4  0EF1      	MOVLW 0xF1
03F6  6FCB      	MOVWF FCD_0f051__00077_arg_FCL_Y1, 1
03F8  6BCC      	CLRF FCD_0f051__00077_arg_FCL_Y1+D'1', 1
03FA  0EF0      	MOVLW 0xF0
03FC  6FCD      	MOVWF FCD_0f051__00077_arg_FCL_X2, 1
03FE  6BCE      	CLRF FCD_0f051__00077_arg_FCL_X2+D'1', 1
0400  0E40      	MOVLW 0x40
0402  6FCF      	MOVWF FCD_0f051__00077_arg_FCL_Y2, 1
0404  0E01      	MOVLW 0x01
0406  6FD0      	MOVWF FCD_0f051__00077_arg_FCL_Y2+D'1', 1
0408  6FD1      	MOVWF FCD_0f051__00077_arg_FCL_T_00078, 1
040A  6FD2      	MOVWF FCD_0f051__00077_arg_FCL_SOLID, 1
040C  ECBBF000  	CALL FCD_0f051__00077
0410  0100      	MOVLB 0x00
0412  6BC9      	CLRF FCD_0f051__00076_arg_FCL_RED, 1
0414  6BCA      	CLRF FCD_0f051__00076_arg_FCL_GREEN, 1
0416  6BCB      	CLRF FCD_0f051__00076_arg_FCL_BLUE, 1
0418  ECA3F001  	CALL FCD_0f051__00076
041C  0012      	RETURN
041E            ; } FCM_Reinitialisation_texte function end

	ORG 0x0000041E
041E            FCD_0f051__0007C
041E            ; { FCD_0f051_gLCD_EB076_4D1__G4D_GetTouchCoordinatesPicaso ; function begin
041E  0E6F      	MOVLW 0x6F
0420  0101      	MOVLB 0x01
0422  6F00      	MOVWF FC_CAL_UAR_00087_arg_nChar, 1
0424  6B01      	CLRF FC_CAL_UAR_00087_arg_nChar+D'1', 1
0426  EC46F000  	CALL FC_CAL_UAR_00087
042A  0E04      	MOVLW 0x04
042C  6F00      	MOVWF FC_CAL_UAR_00087_arg_nChar, 1
042E  6B01      	CLRF FC_CAL_UAR_00087_arg_nChar+D'1', 1
0430  EC46F000  	CALL FC_CAL_UAR_00087
0434  0100      	MOVLB 0x00
0436  69FF      	SETF FC_CAL_UAR_00086_arg_nTimeout, 1
0438  EC50F000  	CALL FC_CAL_UAR_00086
043C  0100      	MOVLB 0x00
043E  69FF      	SETF FC_CAL_UAR_00086_arg_nTimeout, 1
0440  EC50F000  	CALL FC_CAL_UAR_00086
0444  5108      	MOVF CompTempVarRet2891, W, 1
0446  0100      	MOVLB 0x00
0448  6FBF      	MOVWF FCD_0f051__0007C_1_FCR_RETVAL, 1
044A  69FF      	SETF FC_CAL_UAR_00086_arg_nTimeout, 1
044C  EC50F000  	CALL FC_CAL_UAR_00086
0450  0100      	MOVLB 0x00
0452  69FF      	SETF FC_CAL_UAR_00086_arg_nTimeout, 1
0454  EC50F000  	CALL FC_CAL_UAR_00086
0458  0100      	MOVLB 0x00
045A  53BF      	MOVF FCD_0f051__0007C_1_FCR_RETVAL, F, 1
045C  E03C      	BZ	label20
045E  0E6F      	MOVLW 0x6F
0460  0101      	MOVLB 0x01
0462  6F00      	MOVWF FC_CAL_UAR_00087_arg_nChar, 1
0464  6B01      	CLRF FC_CAL_UAR_00087_arg_nChar+D'1', 1
0466  EC46F000  	CALL FC_CAL_UAR_00087
046A  0E05      	MOVLW 0x05
046C  6F00      	MOVWF FC_CAL_UAR_00087_arg_nChar, 1
046E  6B01      	CLRF FC_CAL_UAR_00087_arg_nChar+D'1', 1
0470  EC46F000  	CALL FC_CAL_UAR_00087
0474  0100      	MOVLB 0x00
0476  69FF      	SETF FC_CAL_UAR_00086_arg_nTimeout, 1
0478  EC50F000  	CALL FC_CAL_UAR_00086
047C  5108      	MOVF CompTempVarRet2891, W, 1
047E  0100      	MOVLB 0x00
0480  6F98      	MOVWF gbl_FCV_0f051_gLCD_EB076_4_0000F, 1
0482  0101      	MOVLB 0x01
0484  5109      	MOVF CompTempVarRet2891+D'1', W, 1
0486  0100      	MOVLB 0x00
0488  6F99      	MOVWF gbl_FCV_0f051_gLCD_EB076_4_0000F+D'1', 1
048A  69FF      	SETF FC_CAL_UAR_00086_arg_nTimeout, 1
048C  EC50F000  	CALL FC_CAL_UAR_00086
0490  5108      	MOVF CompTempVarRet2891, W, 1
0492  0100      	MOVLB 0x00
0494  6FBE      	MOVWF FCD_0f051__0007C_1_FCL_TEMP, 1
0496  6BC0      	CLRF CompTempVar2831, 1
0498  5198      	MOVF gbl_FCV_0f051_gLCD_EB076_4_0000F, W, 1
049A  6F99      	MOVWF gbl_FCV_0f051_gLCD_EB076_4_0000F+D'1', 1
049C  51C0      	MOVF CompTempVar2831, W, 1
049E  6F98      	MOVWF gbl_FCV_0f051_gLCD_EB076_4_0000F, 1
04A0  51BE      	MOVF FCD_0f051__0007C_1_FCL_TEMP, W, 1
04A2  1398      	IORWF gbl_FCV_0f051_gLCD_EB076_4_0000F, F, 1
04A4  5399      	MOVF gbl_FCV_0f051_gLCD_EB076_4_0000F+D'1', F, 1
04A6  69FF      	SETF FC_CAL_UAR_00086_arg_nTimeout, 1
04A8  EC50F000  	CALL FC_CAL_UAR_00086
04AC  5108      	MOVF CompTempVarRet2891, W, 1
04AE  0100      	MOVLB 0x00
04B0  6F96      	MOVWF gbl_FCV_0f051_gLCD_EB076_4_0000E, 1
04B2  0101      	MOVLB 0x01
04B4  5109      	MOVF CompTempVarRet2891+D'1', W, 1
04B6  0100      	MOVLB 0x00
04B8  6F97      	MOVWF gbl_FCV_0f051_gLCD_EB076_4_0000E+D'1', 1
04BA  69FF      	SETF FC_CAL_UAR_00086_arg_nTimeout, 1
04BC  EC50F000  	CALL FC_CAL_UAR_00086
04C0  5108      	MOVF CompTempVarRet2891, W, 1
04C2  0100      	MOVLB 0x00
04C4  6FBE      	MOVWF FCD_0f051__0007C_1_FCL_TEMP, 1
04C6  6BC0      	CLRF CompTempVar2835, 1
04C8  5196      	MOVF gbl_FCV_0f051_gLCD_EB076_4_0000E, W, 1
04CA  6F97      	MOVWF gbl_FCV_0f051_gLCD_EB076_4_0000E+D'1', 1
04CC  51C0      	MOVF CompTempVar2835, W, 1
04CE  6F96      	MOVWF gbl_FCV_0f051_gLCD_EB076_4_0000E, 1
04D0  51BE      	MOVF FCD_0f051__0007C_1_FCL_TEMP, W, 1
04D2  1396      	IORWF gbl_FCV_0f051_gLCD_EB076_4_0000E, F, 1
04D4  5397      	MOVF gbl_FCV_0f051_gLCD_EB076_4_0000E+D'1', F, 1
04D6            label20
04D6  51BF      	MOVF FCD_0f051__0007C_1_FCR_RETVAL, W, 1
04D8  6FC0      	MOVWF CompTempVarRet2830, 1
04DA  0012      	RETURN
04DC            ; } FCD_0f051_gLCD_EB076_4D1__G4D_GetTouchCoordinatesPicaso function end

	ORG 0x000004DC
04DC            FCD_0f051__00073
04DC            ; { FCD_0f051_gLCD_EB076_4D1__G4D_EnableTouchscreenPicaso ; function begin
04DC  0E59      	MOVLW 0x59
04DE  0101      	MOVLB 0x01
04E0  6F00      	MOVWF FC_CAL_UAR_00087_arg_nChar, 1
04E2  6B01      	CLRF FC_CAL_UAR_00087_arg_nChar+D'1', 1
04E4  EC46F000  	CALL FC_CAL_UAR_00087
04E8  0E05      	MOVLW 0x05
04EA  6F00      	MOVWF FC_CAL_UAR_00087_arg_nChar, 1
04EC  6B01      	CLRF FC_CAL_UAR_00087_arg_nChar+D'1', 1
04EE  EC46F000  	CALL FC_CAL_UAR_00087
04F2  6B00      	CLRF FC_CAL_UAR_00087_arg_nChar, 1
04F4  6B01      	CLRF FC_CAL_UAR_00087_arg_nChar+D'1', 1
04F6  EC46F000  	CALL FC_CAL_UAR_00087
04FA  0100      	MOVLB 0x00
04FC  69FF      	SETF FC_CAL_UAR_00086_arg_nTimeout, 1
04FE  EC50F000  	CALL FC_CAL_UAR_00086
0502  5108      	MOVF CompTempVarRet2891, W, 1
0504  0100      	MOVLB 0x00
0506  6FBE      	MOVWF FCD_0f051__00073_1_FCR_RETVAL, 1
0508  0E59      	MOVLW 0x59
050A  0101      	MOVLB 0x01
050C  6F00      	MOVWF FC_CAL_UAR_00087_arg_nChar, 1
050E  6B01      	CLRF FC_CAL_UAR_00087_arg_nChar+D'1', 1
0510  EC46F000  	CALL FC_CAL_UAR_00087
0514  0E05      	MOVLW 0x05
0516  6F00      	MOVWF FC_CAL_UAR_00087_arg_nChar, 1
0518  6B01      	CLRF FC_CAL_UAR_00087_arg_nChar+D'1', 1
051A  EC46F000  	CALL FC_CAL_UAR_00087
051E  0E02      	MOVLW 0x02
0520  6F00      	MOVWF FC_CAL_UAR_00087_arg_nChar, 1
0522  6B01      	CLRF FC_CAL_UAR_00087_arg_nChar+D'1', 1
0524  EC46F000  	CALL FC_CAL_UAR_00087
0528  0100      	MOVLB 0x00
052A  69FF      	SETF FC_CAL_UAR_00086_arg_nTimeout, 1
052C  EC50F000  	CALL FC_CAL_UAR_00086
0530  5108      	MOVF CompTempVarRet2891, W, 1
0532  0100      	MOVLB 0x00
0534  6FBE      	MOVWF FCD_0f051__00073_1_FCR_RETVAL, 1
0536  0E06      	MOVLW 0x06
0538  63BE      	CPFSEQ FCD_0f051__00073_1_FCR_RETVAL, 1
053A  D002      	BRA	label21
053C  6BBE      	CLRF FCD_0f051__00073_1_FCR_RETVAL, 1
053E  D001      	BRA	label22
0540            label21
0540  69BE      	SETF FCD_0f051__00073_1_FCR_RETVAL, 1
0542            label22
0542  51BE      	MOVF FCD_0f051__00073_1_FCR_RETVAL, W, 1
0544  6FBF      	MOVWF CompTempVarRet2789, 1
0546  0012      	RETURN
0548            ; } FCD_0f051_gLCD_EB076_4D1__G4D_EnableTouchscreenPicaso function end

	ORG 0x00000548
0548            FCD_0f051__00072
0548            ; { FCD_0f051_gLCD_EB076_4D1__G4D_DisableTouchscreenPicaso ; function begin
0548  0E59      	MOVLW 0x59
054A  0101      	MOVLB 0x01
054C  6F00      	MOVWF FC_CAL_UAR_00087_arg_nChar, 1
054E  6B01      	CLRF FC_CAL_UAR_00087_arg_nChar+D'1', 1
0550  EC46F000  	CALL FC_CAL_UAR_00087
0554  0E05      	MOVLW 0x05
0556  6F00      	MOVWF FC_CAL_UAR_00087_arg_nChar, 1
0558  6B01      	CLRF FC_CAL_UAR_00087_arg_nChar+D'1', 1
055A  EC46F000  	CALL FC_CAL_UAR_00087
055E  0E01      	MOVLW 0x01
0560  6F00      	MOVWF FC_CAL_UAR_00087_arg_nChar, 1
0562  6B01      	CLRF FC_CAL_UAR_00087_arg_nChar+D'1', 1
0564  EC46F000  	CALL FC_CAL_UAR_00087
0568  0100      	MOVLB 0x00
056A  69FF      	SETF FC_CAL_UAR_00086_arg_nTimeout, 1
056C  EC50F000  	CALL FC_CAL_UAR_00086
0570  5108      	MOVF CompTempVarRet2891, W, 1
0572  0100      	MOVLB 0x00
0574  6FBE      	MOVWF FCD_0f051__00072_1_FCR_RETVAL, 1
0576  0E06      	MOVLW 0x06
0578  63BE      	CPFSEQ FCD_0f051__00072_1_FCR_RETVAL, 1
057A  D002      	BRA	label23
057C  6BBE      	CLRF FCD_0f051__00072_1_FCR_RETVAL, 1
057E  D001      	BRA	label24
0580            label23
0580  69BE      	SETF FCD_0f051__00072_1_FCR_RETVAL, 1
0582            label24
0582  51BE      	MOVF FCD_0f051__00072_1_FCR_RETVAL, W, 1
0584  6FBF      	MOVWF CompTempVarRet2788, 1
0586  0012      	RETURN
0588            ; } FCD_0f051_gLCD_EB076_4D1__G4D_DisableTouchscreenPicaso function end

	ORG 0x00000588
0588            FCD_0f051__0006E
0588            ; { FCD_0f051_gLCD_EB076_4D1__G4D_SetTouchRegionPicaso ; function begin
0588  0E75      	MOVLW 0x75
058A  0101      	MOVLB 0x01
058C  6F00      	MOVWF FC_CAL_UAR_00087_arg_nChar, 1
058E  6B01      	CLRF FC_CAL_UAR_00087_arg_nChar+D'1', 1
0590  EC46F000  	CALL FC_CAL_UAR_00087
0594  0100      	MOVLB 0x00
0596  51BF      	MOVF FCD_0f051__0006E_arg_FCL_X1+D'1', W, 1
0598  0101      	MOVLB 0x01
059A  6F00      	MOVWF FC_CAL_UAR_00087_arg_nChar, 1
059C  6B01      	CLRF FC_CAL_UAR_00087_arg_nChar+D'1', 1
059E  EC46F000  	CALL FC_CAL_UAR_00087
05A2  0100      	MOVLB 0x00
05A4  51BE      	MOVF FCD_0f051__0006E_arg_FCL_X1, W, 1
05A6  0101      	MOVLB 0x01
05A8  6F00      	MOVWF FC_CAL_UAR_00087_arg_nChar, 1
05AA  0100      	MOVLB 0x00
05AC  51BF      	MOVF FCD_0f051__0006E_arg_FCL_X1+D'1', W, 1
05AE  0101      	MOVLB 0x01
05B0  6F01      	MOVWF FC_CAL_UAR_00087_arg_nChar+D'1', 1
05B2  EC46F000  	CALL FC_CAL_UAR_00087
05B6  0100      	MOVLB 0x00
05B8  51C1      	MOVF FCD_0f051__0006E_arg_FCL_Y1+D'1', W, 1
05BA  0101      	MOVLB 0x01
05BC  6F00      	MOVWF FC_CAL_UAR_00087_arg_nChar, 1
05BE  6B01      	CLRF FC_CAL_UAR_00087_arg_nChar+D'1', 1
05C0  EC46F000  	CALL FC_CAL_UAR_00087
05C4  0100      	MOVLB 0x00
05C6  51C0      	MOVF FCD_0f051__0006E_arg_FCL_Y1, W, 1
05C8  0101      	MOVLB 0x01
05CA  6F00      	MOVWF FC_CAL_UAR_00087_arg_nChar, 1
05CC  0100      	MOVLB 0x00
05CE  51C1      	MOVF FCD_0f051__0006E_arg_FCL_Y1+D'1', W, 1
05D0  0101      	MOVLB 0x01
05D2  6F01      	MOVWF FC_CAL_UAR_00087_arg_nChar+D'1', 1
05D4  EC46F000  	CALL FC_CAL_UAR_00087
05D8  0100      	MOVLB 0x00
05DA  51C3      	MOVF FCD_0f051__0006E_arg_FCL_X2+D'1', W, 1
05DC  0101      	MOVLB 0x01
05DE  6F00      	MOVWF FC_CAL_UAR_00087_arg_nChar, 1
05E0  6B01      	CLRF FC_CAL_UAR_00087_arg_nChar+D'1', 1
05E2  EC46F000  	CALL FC_CAL_UAR_00087
05E6  0100      	MOVLB 0x00
05E8  51C2      	MOVF FCD_0f051__0006E_arg_FCL_X2, W, 1
05EA  0101      	MOVLB 0x01
05EC  6F00      	MOVWF FC_CAL_UAR_00087_arg_nChar, 1
05EE  0100      	MOVLB 0x00
05F0  51C3      	MOVF FCD_0f051__0006E_arg_FCL_X2+D'1', W, 1
05F2  0101      	MOVLB 0x01
05F4  6F01      	MOVWF FC_CAL_UAR_00087_arg_nChar+D'1', 1
05F6  EC46F000  	CALL FC_CAL_UAR_00087
05FA  0100      	MOVLB 0x00
05FC  51C5      	MOVF FCD_0f051__0006E_arg_FCL_Y2+D'1', W, 1
05FE  0101      	MOVLB 0x01
0600  6F00      	MOVWF FC_CAL_UAR_00087_arg_nChar, 1
0602  6B01      	CLRF FC_CAL_UAR_00087_arg_nChar+D'1', 1
0604  EC46F000  	CALL FC_CAL_UAR_00087
0608  0100      	MOVLB 0x00
060A  51C4      	MOVF FCD_0f051__0006E_arg_FCL_Y2, W, 1
060C  0101      	MOVLB 0x01
060E  6F00      	MOVWF FC_CAL_UAR_00087_arg_nChar, 1
0610  0100      	MOVLB 0x00
0612  51C5      	MOVF FCD_0f051__0006E_arg_FCL_Y2+D'1', W, 1
0614  0101      	MOVLB 0x01
0616  6F01      	MOVWF FC_CAL_UAR_00087_arg_nChar+D'1', 1
0618  EC46F000  	CALL FC_CAL_UAR_00087
061C  0100      	MOVLB 0x00
061E  69FF      	SETF FC_CAL_UAR_00086_arg_nTimeout, 1
0620  EC50F000  	CALL FC_CAL_UAR_00086
0624  5108      	MOVF CompTempVarRet2891, W, 1
0626  0100      	MOVLB 0x00
0628  6FC6      	MOVWF FCD_0f051__0006E_1_FCR_RETVAL, 1
062A  0E06      	MOVLW 0x06
062C  63C6      	CPFSEQ FCD_0f051__0006E_1_FCR_RETVAL, 1
062E  D002      	BRA	label25
0630  6BC6      	CLRF FCD_0f051__0006E_1_FCR_RETVAL, 1
0632  D001      	BRA	label26
0634            label25
0634  69C6      	SETF FCD_0f051__0006E_1_FCR_RETVAL, 1
0636            label26
0636  51C6      	MOVF FCD_0f051__0006E_1_FCR_RETVAL, W, 1
0638  6FC7      	MOVWF CompTempVarRet2769, 1
063A  0012      	RETURN
063C            ; } FCD_0f051_gLCD_EB076_4D1__G4D_SetTouchRegionPicaso function end

	ORG 0x0000063C
063C            FCD_0f051__00068
063C            ; { FCD_0f051_gLCD_EB076_4D1__G4D_ReadTouchCoordinatesPicaso ; function begin
063C  6BBF      	CLRF FCD_0f051__00068_1_FCR_RETVAL, 1
063E  6BC0      	CLRF FCD_0f051__00068_1_FCR_RETVAL+D'1', 1
0640  53BE      	MOVF FCD_0f051__00068_arg_FCL_AXIS, F, 1
0642  E007      	BZ	label28
0644  0E78      	MOVLW 0x78
0646  63BE      	CPFSEQ FCD_0f051__00068_arg_FCL_AXIS, 1
0648  D001      	BRA	label27
064A  D003      	BRA	label28
064C            label27
064C  0E58      	MOVLW 0x58
064E  63BE      	CPFSEQ FCD_0f051__00068_arg_FCL_AXIS, 1
0650  D004      	BRA	label29
0652            label28
0652  5198      	MOVF gbl_FCV_0f051_gLCD_EB076_4_0000F, W, 1
0654  6FBF      	MOVWF FCD_0f051__00068_1_FCR_RETVAL, 1
0656  5199      	MOVF gbl_FCV_0f051_gLCD_EB076_4_0000F+D'1', W, 1
0658  6FC0      	MOVWF FCD_0f051__00068_1_FCR_RETVAL+D'1', 1
065A            label29
065A  05BE      	DECF FCD_0f051__00068_arg_FCL_AXIS, W, 1
065C  E007      	BZ	label31
065E  0E79      	MOVLW 0x79
0660  63BE      	CPFSEQ FCD_0f051__00068_arg_FCL_AXIS, 1
0662  D001      	BRA	label30
0664  D003      	BRA	label31
0666            label30
0666  0E59      	MOVLW 0x59
0668  63BE      	CPFSEQ FCD_0f051__00068_arg_FCL_AXIS, 1
066A  D004      	BRA	label32
066C            label31
066C  5196      	MOVF gbl_FCV_0f051_gLCD_EB076_4_0000E, W, 1
066E  6FBF      	MOVWF FCD_0f051__00068_1_FCR_RETVAL, 1
0670  5197      	MOVF gbl_FCV_0f051_gLCD_EB076_4_0000E+D'1', W, 1
0672  6FC0      	MOVWF FCD_0f051__00068_1_FCR_RETVAL+D'1', 1
0674            label32
0674  51BF      	MOVF FCD_0f051__00068_1_FCR_RETVAL, W, 1
0676  6FC1      	MOVWF CompTempVarRet2714, 1
0678  51C0      	MOVF FCD_0f051__00068_1_FCR_RETVAL+D'1', W, 1
067A  6FC2      	MOVWF CompTempVarRet2714+D'1', 1
067C  0012      	RETURN
067E            ; } FCD_0f051_gLCD_EB076_4D1__G4D_ReadTouchCoordinatesPicaso function end

	ORG 0x0000067E
067E            FCD_0f051__0005D
067E            ; { FCD_0f051_gLCD_EB076_4D1__Print ; function begin
067E  6BFE      	CLRF FCD_0f051__0005D_1_FCL_IDX, 1
0680  0E4F      	MOVLW 0x4F
0682  0101      	MOVLB 0x01
0684  6F00      	MOVWF FC_CAL_UAR_00087_arg_nChar, 1
0686  6B01      	CLRF FC_CAL_UAR_00087_arg_nChar+D'1', 1
0688  EC46F000  	CALL FC_CAL_UAR_00087
068C  0100      	MOVLB 0x00
068E  53FC      	MOVF FCD_0f051__0005D_arg_FCL_T_0005E, F, 1
0690  E006      	BZ	label33
0692  0101      	MOVLB 0x01
0694  6B00      	CLRF FC_CAL_UAR_00087_arg_nChar, 1
0696  6B01      	CLRF FC_CAL_UAR_00087_arg_nChar+D'1', 1
0698  EC46F000  	CALL FC_CAL_UAR_00087
069C  D006      	BRA	label34
069E            label33
069E  0E01      	MOVLW 0x01
06A0  0101      	MOVLB 0x01
06A2  6F00      	MOVWF FC_CAL_UAR_00087_arg_nChar, 1
06A4  6B01      	CLRF FC_CAL_UAR_00087_arg_nChar+D'1', 1
06A6  EC46F000  	CALL FC_CAL_UAR_00087
06AA            label34
06AA  0100      	MOVLB 0x00
06AC  69FF      	SETF FC_CAL_UAR_00086_arg_nTimeout, 1
06AE  EC50F000  	CALL FC_CAL_UAR_00086
06B2  0E53      	MOVLW 0x53
06B4  6F00      	MOVWF FC_CAL_UAR_00087_arg_nChar, 1
06B6  6B01      	CLRF FC_CAL_UAR_00087_arg_nChar+D'1', 1
06B8  EC46F000  	CALL FC_CAL_UAR_00087
06BC  0100      	MOVLB 0x00
06BE  51F8      	MOVF FCD_0f051__0005D_arg_FCL_X1+D'1', W, 1
06C0  0101      	MOVLB 0x01
06C2  6F00      	MOVWF FC_CAL_UAR_00087_arg_nChar, 1
06C4  6B01      	CLRF FC_CAL_UAR_00087_arg_nChar+D'1', 1
06C6  EC46F000  	CALL FC_CAL_UAR_00087
06CA  0100      	MOVLB 0x00
06CC  51F7      	MOVF FCD_0f051__0005D_arg_FCL_X1, W, 1
06CE  0101      	MOVLB 0x01
06D0  6F00      	MOVWF FC_CAL_UAR_00087_arg_nChar, 1
06D2  0100      	MOVLB 0x00
06D4  51F8      	MOVF FCD_0f051__0005D_arg_FCL_X1+D'1', W, 1
06D6  0101      	MOVLB 0x01
06D8  6F01      	MOVWF FC_CAL_UAR_00087_arg_nChar+D'1', 1
06DA  EC46F000  	CALL FC_CAL_UAR_00087
06DE  0100      	MOVLB 0x00
06E0  51FA      	MOVF FCD_0f051__0005D_arg_FCL_Y1+D'1', W, 1
06E2  0101      	MOVLB 0x01
06E4  6F00      	MOVWF FC_CAL_UAR_00087_arg_nChar, 1
06E6  6B01      	CLRF FC_CAL_UAR_00087_arg_nChar+D'1', 1
06E8  EC46F000  	CALL FC_CAL_UAR_00087
06EC  0100      	MOVLB 0x00
06EE  51F9      	MOVF FCD_0f051__0005D_arg_FCL_Y1, W, 1
06F0  0101      	MOVLB 0x01
06F2  6F00      	MOVWF FC_CAL_UAR_00087_arg_nChar, 1
06F4  0100      	MOVLB 0x00
06F6  51FA      	MOVF FCD_0f051__0005D_arg_FCL_Y1+D'1', W, 1
06F8  0101      	MOVLB 0x01
06FA  6F01      	MOVWF FC_CAL_UAR_00087_arg_nChar+D'1', 1
06FC  EC46F000  	CALL FC_CAL_UAR_00087
0700  0100      	MOVLB 0x00
0702  51FB      	MOVF FCD_0f051__0005D_arg_FCL_FONT, W, 1
0704  0101      	MOVLB 0x01
0706  6F00      	MOVWF FC_CAL_UAR_00087_arg_nChar, 1
0708  6B01      	CLRF FC_CAL_UAR_00087_arg_nChar+D'1', 1
070A  EC46F000  	CALL FC_CAL_UAR_00087
070E  0100      	MOVLB 0x00
0710  5195      	MOVF gbl_FCV_0f051_gLCD_EB076_4_0000D+D'1', W, 1
0712  0101      	MOVLB 0x01
0714  6F00      	MOVWF FC_CAL_UAR_00087_arg_nChar, 1
0716  6B01      	CLRF FC_CAL_UAR_00087_arg_nChar+D'1', 1
0718  EC46F000  	CALL FC_CAL_UAR_00087
071C  0100      	MOVLB 0x00
071E  5194      	MOVF gbl_FCV_0f051_gLCD_EB076_4_0000D, W, 1
0720  0101      	MOVLB 0x01
0722  6F00      	MOVWF FC_CAL_UAR_00087_arg_nChar, 1
0724  0100      	MOVLB 0x00
0726  5195      	MOVF gbl_FCV_0f051_gLCD_EB076_4_0000D+D'1', W, 1
0728  0101      	MOVLB 0x01
072A  6F01      	MOVWF FC_CAL_UAR_00087_arg_nChar+D'1', 1
072C  EC46F000  	CALL FC_CAL_UAR_00087
0730  0E01      	MOVLW 0x01
0732  6F00      	MOVWF FC_CAL_UAR_00087_arg_nChar, 1
0734  6B01      	CLRF FC_CAL_UAR_00087_arg_nChar+D'1', 1
0736  EC46F000  	CALL FC_CAL_UAR_00087
073A  0E01      	MOVLW 0x01
073C  6F00      	MOVWF FC_CAL_UAR_00087_arg_nChar, 1
073E  6B01      	CLRF FC_CAL_UAR_00087_arg_nChar+D'1', 1
0740  EC46F000  	CALL FC_CAL_UAR_00087
0744  0100      	MOVLB 0x00
0746  51BE      	MOVF FCD_0f051__0005D_arg_FCL_STR, W, 1
0748  0101      	MOVLB 0x01
074A  6F00      	MOVWF FCI_GETLEN_0004B_arg_sStr1, 1
074C  0100      	MOVLB 0x00
074E  51BF      	MOVF FCD_0f051__0005D_arg_FCL_STR+D'1', W, 1
0750  0101      	MOVLB 0x01
0752  6F01      	MOVWF FCI_GETLEN_0004B_arg_sStr1+D'1', 1
0754  0100      	MOVLB 0x00
0756  51F5      	MOVF FCD_0f051__0005D_arg_FCLsz_STR, W, 1
0758  6FFF      	MOVWF FCI_GETLEN_0004B_arg_iStr1_len, 1
075A  ECA8F000  	CALL FCI_GETLEN_0004B
075E  5103      	MOVF CompTempVarRet1850, W, 1
0760  0100      	MOVLB 0x00
0762  6FFD      	MOVWF FCD_0f051__0005D_1_FCL_LEN_STR, 1
0764            label35
0764  51FD      	MOVF FCD_0f051__0005D_1_FCL_LEN_STR, W, 1
0766  61FE      	CPFSLT FCD_0f051__0005D_1_FCL_IDX, 1
0768  D016      	BRA	label36
076A  51BF      	MOVF FCD_0f051__0005D_arg_FCL_STR+D'1', W, 1
076C  6EEA      	MOVWF FSR0H
076E  51BE      	MOVF FCD_0f051__0005D_arg_FCL_STR, W, 1
0770  25FE      	ADDWF FCD_0f051__0005D_1_FCL_IDX, W, 1
0772  6EE9      	MOVWF FSR0L
0774  52EF      	MOVF INDF0, F
0776  E00F      	BZ	label36
0778  51BF      	MOVF FCD_0f051__0005D_arg_FCL_STR+D'1', W, 1
077A  6EEA      	MOVWF FSR0H
077C  51BE      	MOVF FCD_0f051__0005D_arg_FCL_STR, W, 1
077E  25FE      	ADDWF FCD_0f051__0005D_1_FCL_IDX, W, 1
0780  6EE9      	MOVWF FSR0L
0782  50EF      	MOVF INDF0, W
0784  0101      	MOVLB 0x01
0786  6F00      	MOVWF FC_CAL_UAR_00087_arg_nChar, 1
0788  6B01      	CLRF FC_CAL_UAR_00087_arg_nChar+D'1', 1
078A  EC46F000  	CALL FC_CAL_UAR_00087
078E  0100      	MOVLB 0x00
0790  29FE      	INCF FCD_0f051__0005D_1_FCL_IDX, W, 1
0792  6FFE      	MOVWF FCD_0f051__0005D_1_FCL_IDX, 1
0794  D7E7      	BRA	label35
0796            label36
0796  0101      	MOVLB 0x01
0798  6B00      	CLRF FC_CAL_UAR_00087_arg_nChar, 1
079A  6B01      	CLRF FC_CAL_UAR_00087_arg_nChar+D'1', 1
079C  EC46F000  	CALL FC_CAL_UAR_00087
07A0  0100      	MOVLB 0x00
07A2  69FF      	SETF FC_CAL_UAR_00086_arg_nTimeout, 1
07A4  EC50F000  	CALL FC_CAL_UAR_00086
07A8  0012      	RETURN
07AA            ; } FCD_0f051_gLCD_EB076_4D1__Print function end

	ORG 0x000007AA
07AA            FC_CAL_UAR_00088
07AA            ; { FC_CAL_UART_Init_1 ; function begin
07AA  84AC      	BSF gbl_txsta,2
07AC  0E7F      	MOVLW 0x7F
07AE  6EAF      	MOVWF gbl_spbrg
07B0  6AAB      	CLRF gbl_rcsta
07B2  8EAB      	BSF gbl_rcsta,7
07B4  8AAC      	BSF gbl_txsta,5
07B6  88AB      	BSF gbl_rcsta,4
07B8  9A9D      	BCF gbl_pie1,5
07BA  0012      	RETURN
07BC            ; } FC_CAL_UART_Init_1 function end

	ORG 0x000007BC
07BC            FC_CAL_UAR_00084
07BC            ; { FC_CAL_UART_UpdateBaud_1 ; function begin
07BC  0E07      	MOVLW 0x07
07BE  65BB      	CPFSGT FC_CAL_UAR_00084_arg_new_baud, 1
07C0  D001      	BRA	label37
07C2  0012      	RETURN
07C4            label37
07C4  53BB      	MOVF FC_CAL_UAR_00084_arg_new_baud, F, 1
07C6  E104      	BNZ	label38
07C8  69BC      	SETF FC_CAL_UAR_00084_1_baudrate, 1
07CA  0E01      	MOVLW 0x01
07CC  6FBD      	MOVWF FC_CAL_UAR_00084_1_baudmode, 1
07CE  D02F      	BRA	label45
07D0            label38
07D0  05BB      	DECF FC_CAL_UAR_00084_arg_new_baud, W, 1
07D2  E105      	BNZ	label39
07D4  0E7F      	MOVLW 0x7F
07D6  6FBC      	MOVWF FC_CAL_UAR_00084_1_baudrate, 1
07D8  0E01      	MOVLW 0x01
07DA  6FBD      	MOVWF FC_CAL_UAR_00084_1_baudmode, 1
07DC  D028      	BRA	label45
07DE            label39
07DE  0E02      	MOVLW 0x02
07E0  63BB      	CPFSEQ FC_CAL_UAR_00084_arg_new_baud, 1
07E2  D003      	BRA	label40
07E4  69BC      	SETF FC_CAL_UAR_00084_1_baudrate, 1
07E6  6BBD      	CLRF FC_CAL_UAR_00084_1_baudmode, 1
07E8  D022      	BRA	label45
07EA            label40
07EA  0E03      	MOVLW 0x03
07EC  63BB      	CPFSEQ FC_CAL_UAR_00084_arg_new_baud, 1
07EE  D004      	BRA	label41
07F0  0E7F      	MOVLW 0x7F
07F2  6FBC      	MOVWF FC_CAL_UAR_00084_1_baudrate, 1
07F4  6BBD      	CLRF FC_CAL_UAR_00084_1_baudmode, 1
07F6  D01B      	BRA	label45
07F8            label41
07F8  0E04      	MOVLW 0x04
07FA  63BB      	CPFSEQ FC_CAL_UAR_00084_arg_new_baud, 1
07FC  D004      	BRA	label42
07FE  0E3F      	MOVLW 0x3F
0800  6FBC      	MOVWF FC_CAL_UAR_00084_1_baudrate, 1
0802  6BBD      	CLRF FC_CAL_UAR_00084_1_baudmode, 1
0804  D014      	BRA	label45
0806            label42
0806  0E05      	MOVLW 0x05
0808  63BB      	CPFSEQ FC_CAL_UAR_00084_arg_new_baud, 1
080A  D004      	BRA	label43
080C  0E1F      	MOVLW 0x1F
080E  6FBC      	MOVWF FC_CAL_UAR_00084_1_baudrate, 1
0810  6BBD      	CLRF FC_CAL_UAR_00084_1_baudmode, 1
0812  D00D      	BRA	label45
0814            label43
0814  0E06      	MOVLW 0x06
0816  63BB      	CPFSEQ FC_CAL_UAR_00084_arg_new_baud, 1
0818  D004      	BRA	label44
081A  0E14      	MOVLW 0x14
081C  6FBC      	MOVWF FC_CAL_UAR_00084_1_baudrate, 1
081E  6BBD      	CLRF FC_CAL_UAR_00084_1_baudmode, 1
0820  D006      	BRA	label45
0822            label44
0822  0E07      	MOVLW 0x07
0824  63BB      	CPFSEQ FC_CAL_UAR_00084_arg_new_baud, 1
0826  D003      	BRA	label45
0828  0E0A      	MOVLW 0x0A
082A  6FBC      	MOVWF FC_CAL_UAR_00084_1_baudrate, 1
082C  6BBD      	CLRF FC_CAL_UAR_00084_1_baudmode, 1
082E            label45
082E  ECD1F001  	CALL FC_CAL_UAR_00085
0832  05BD      	DECF FC_CAL_UAR_00084_1_baudmode, W, 1
0834  E102      	BNZ	label46
0836  94AC      	BCF gbl_txsta,2
0838  D001      	BRA	label47
083A            label46
083A  84AC      	BSF gbl_txsta,2
083C            label47
083C  51BC      	MOVF FC_CAL_UAR_00084_1_baudrate, W, 1
083E  6EAF      	MOVWF gbl_spbrg
0840  6AAB      	CLRF gbl_rcsta
0842  8EAB      	BSF gbl_rcsta,7
0844  8AAC      	BSF gbl_txsta,5
0846  88AB      	BSF gbl_rcsta,4
0848  9A9D      	BCF gbl_pie1,5
084A  0012      	RETURN
084C            ; } FC_CAL_UART_UpdateBaud_1 function end

	ORG 0x0000084C
084C            FC_CAL_Por_00042
084C            ; { FC_CAL_Port_In_DDR__x ; function begin
084C  51BE      	MOVF FC_CAL_Por_00042_arg_Tris+D'1', W, 1
084E  6EEA      	MOVWF FSR0H
0850  51BD      	MOVF FC_CAL_Por_00042_arg_Tris, W, 1
0852  6EE9      	MOVWF FSR0L
0854  51BF      	MOVF FC_CAL_Por_00042_arg_InMask, W, 1
0856  10EF      	IORWF INDF0, W
0858  6FC1      	MOVWF CompTempVar1825, 1
085A  51C1      	MOVF CompTempVar1825, W, 1
085C  6EEF      	MOVWF INDF0
085E  51BC      	MOVF FC_CAL_Por_00042_arg_Port+D'1', W, 1
0860  6EEA      	MOVWF FSR0H
0862  51BB      	MOVF FC_CAL_Por_00042_arg_Port, W, 1
0864  6EE9      	MOVWF FSR0L
0866  51BF      	MOVF FC_CAL_Por_00042_arg_InMask, W, 1
0868  14EF      	ANDWF INDF0, W
086A  6FC1      	MOVWF CompTempVarRet1822, 1
086C  51C0      	MOVF FC_CAL_Por_00042_arg_Shift, W, 1
086E  6FC2      	MOVWF CompTempVar1827, 1
0870            label48
0870  B4D8      	BTFSC STATUS,Z
0872  0012      	RETURN
0874  90D8      	BCF STATUS,C
0876  33C1      	RRCF CompTempVarRet1822, F, 1
0878  07C2      	DECF CompTempVar1827, F, 1
087A  D7FA      	BRA	label48
087C            ; } FC_CAL_Port_In_DDR__x function end

	ORG 0x0000087C
087C            FCM_affich_00069
087C            ; { FCM_affichage_bateau ; function begin
087C  0100      	MOVLB 0x00
087E  518E      	MOVF gbl_FCV_X, W, 1
0880  6FBE      	MOVWF FCM_parame_0005C_arg_FCL_POS_X1, 1
0882  518F      	MOVF gbl_FCV_X+D'1', W, 1
0884  6FBF      	MOVWF FCM_parame_0005C_arg_FCL_POS_X1+D'1', 1
0886  0E18      	MOVLW 0x18
0888  5D8E      	SUBWF gbl_FCV_X, W, 1
088A  6FC0      	MOVWF FCM_parame_0005C_arg_FCL_POS_X2, 1
088C  598E      	SUBWFB gbl_FCV_X, W, 1
088E  0818      	SUBLW 0x18
0890  5D8F      	SUBWF gbl_FCV_X+D'1', W, 1
0892  6FC1      	MOVWF FCM_parame_0005C_arg_FCL_POS_X2+D'1', 1
0894  518C      	MOVF gbl_FCV_Y, W, 1
0896  6FC2      	MOVWF FCM_parame_0005C_arg_FCL_POS_Y1, 1
0898  518D      	MOVF gbl_FCV_Y+D'1', W, 1
089A  6FC3      	MOVWF FCM_parame_0005C_arg_FCL_POS_Y1+D'1', 1
089C  0E18      	MOVLW 0x18
089E  5D8C      	SUBWF gbl_FCV_Y, W, 1
08A0  6FC4      	MOVWF FCM_parame_0005C_arg_FCL_POS_Y2, 1
08A2  598C      	SUBWFB gbl_FCV_Y, W, 1
08A4  0818      	SUBLW 0x18
08A6  5D8D      	SUBWF gbl_FCV_Y+D'1', W, 1
08A8  6FC5      	MOVWF FCM_parame_0005C_arg_FCL_POS_Y2+D'1', 1
08AA  0E46      	MOVLW 0x46
08AC  6FC6      	MOVWF FCM_parame_0005C_arg_FCL_ROUGE, 1
08AE  6FC7      	MOVWF FCM_parame_0005C_arg_FCL_VERT, 1
08B0  6FC8      	MOVWF FCM_parame_0005C_arg_FCL_BLEU, 1
08B2  ECD4F001  	CALL FCM_parame_0005C
08B6  0012      	RETURN
08B8            ; } FCM_affichage_bateau function end

	ORG 0x000008B8
08B8            FCM_Reinit_00071
08B8            ; { FCM_Reinitialisation_tactile ; function begin
08B8  ECA4F002  	CALL FCD_0f051__00072
08BC  EC6EF002  	CALL FCD_0f051__00073
08C0  6BBE      	CLRF FCD_0f051__0006E_arg_FCL_X1, 1
08C2  6BBF      	CLRF FCD_0f051__0006E_arg_FCL_X1+D'1', 1
08C4  6BC0      	CLRF FCD_0f051__0006E_arg_FCL_Y1, 1
08C6  6BC1      	CLRF FCD_0f051__0006E_arg_FCL_Y1+D'1', 1
08C8  0EF0      	MOVLW 0xF0
08CA  6FC2      	MOVWF FCD_0f051__0006E_arg_FCL_X2, 1
08CC  6BC3      	CLRF FCD_0f051__0006E_arg_FCL_X2+D'1', 1
08CE  0EF0      	MOVLW 0xF0
08D0  6FC4      	MOVWF FCD_0f051__0006E_arg_FCL_Y2, 1
08D2  6BC5      	CLRF FCD_0f051__0006E_arg_FCL_Y2+D'1', 1
08D4  ECC4F002  	CALL FCD_0f051__0006E
08D8  0012      	RETURN
08DA            ; } FCM_Reinitialisation_tactile function end

	ORG 0x000008DA
08DA            FCM_Recupe_00075
08DA            ; { FCM_Recuperation_coordonees ; function begin
08DA  EC0FF002  	CALL FCD_0f051__0007C
08DE  51C0      	MOVF CompTempVarRet2830, W, 1
08E0  6FA8      	MOVWF gbl_FCV_APPUI_ECRAN, 1
08E2  0012      	RETURN
08E4            ; } FCM_Recuperation_coordonees function end

	ORG 0x000008E4
08E4            FCM_Messag_0006F
08E4            ; { FCM_Message_bateau ; function begin
08E4  0E05      	MOVLW 0x05
08E6  0100      	MOVLB 0x00
08E8  61AA      	CPFSLT gbl_FCV_BATEAU, 1
08EA  D001      	BRA	label49
08EC  D153      	BRA	label56
08EE            label49
08EE  ECF2F001  	CALL FCM_Reinit_00070
08F2  0E09      	MOVLW 0x09
08F4  61AA      	CPFSLT gbl_FCV_BATEAU, 1
08F6  D001      	BRA	label50
08F8  D105      	BRA	label55
08FA            label50
08FA  ECF2F001  	CALL FCM_Reinit_00070
08FE  0E0C      	MOVLW 0x0C
0900  61AA      	CPFSLT gbl_FCV_BATEAU, 1
0902  D001      	BRA	label51
0904  D0A5      	BRA	label54
0906            label51
0906  ECF2F001  	CALL FCM_Reinit_00070
090A  0E0F      	MOVLW 0x0F
090C  61AA      	CPFSLT gbl_FCV_BATEAU, 1
090E  D001      	BRA	label52
0910  D051      	BRA	label53
0912            label52
0912  ECF2F001  	CALL FCM_Reinit_00070
0916  0E11      	MOVLW 0x11
0918  61AA      	CPFSLT gbl_FCV_BATEAU, 1
091A  0012      	RETURN
091C  0E20      	MOVLW 0x20
091E  6FC8      	MOVWF CompTempVar2778+D'8', 1
0920  6FCF      	MOVWF CompTempVar2778+D'15', 1
0922  6FD2      	MOVWF CompTempVar2778+D'18', 1
0924  6FDD      	MOVWF CompTempVar2778+D'29', 1
0926  6FE0      	MOVWF CompTempVar2778+D'32', 1
0928  0E28      	MOVLW 0x28
092A  6FDE      	MOVWF CompTempVar2778+D'30', 1
092C  0E29      	MOVLW 0x29
092E  6FE6      	MOVWF CompTempVar2778+D'38', 1
0930  0E32      	MOVLW 0x32
0932  6FDF      	MOVWF CompTempVar2778+D'31', 1
0934  0E56      	MOVLW 0x56
0936  6FC0      	MOVWF CompTempVar2778, 1
0938  0E61      	MOVLW 0x61
093A  6FCB      	MOVWF CompTempVar2778+D'11', 1
093C  6FE2      	MOVWF CompTempVar2778+D'34', 1
093E  0E63      	MOVLW 0x63
0940  6FCC      	MOVWF CompTempVar2778+D'12', 1
0942  6FE1      	MOVWF CompTempVar2778+D'33', 1
0944  0E65      	MOVLW 0x65
0946  6FC1      	MOVWF CompTempVar2778+D'1', 1
0948  6FC6      	MOVWF CompTempVar2778+D'6', 1
094A  6FCD      	MOVWF CompTempVar2778+D'13', 1
094C  6FD1      	MOVWF CompTempVar2778+D'17', 1
094E  6FDA      	MOVWF CompTempVar2778+D'26', 1
0950  6FE4      	MOVWF CompTempVar2778+D'36', 1
0952  0E69      	MOVLW 0x69
0954  6FC3      	MOVWF CompTempVar2778+D'3', 1
0956  6FD7      	MOVWF CompTempVar2778+D'23', 1
0958  0E6C      	MOVLW 0x6C
095A  6FC4      	MOVWF CompTempVar2778+D'4', 1
095C  6FC5      	MOVWF CompTempVar2778+D'5', 1
095E  6FCA      	MOVWF CompTempVar2778+D'10', 1
0960  6FD0      	MOVWF CompTempVar2778+D'16', 1
0962  6FD8      	MOVWF CompTempVar2778+D'24', 1
0964  6FD9      	MOVWF CompTempVar2778+D'25', 1
0966  0E6F      	MOVLW 0x6F
0968  6FD4      	MOVWF CompTempVar2778+D'20', 1
096A  0E70      	MOVLW 0x70
096C  6FC9      	MOVWF CompTempVar2778+D'9', 1
096E  6FD6      	MOVWF CompTempVar2778+D'22', 1
0970  0E72      	MOVLW 0x72
0972  6FCE      	MOVWF CompTempVar2778+D'14', 1
0974  6FD5      	MOVWF CompTempVar2778+D'21', 1
0976  6FDC      	MOVWF CompTempVar2778+D'28', 1
0978  0E73      	MOVLW 0x73
097A  6FE3      	MOVWF CompTempVar2778+D'35', 1
097C  6FE5      	MOVWF CompTempVar2778+D'37', 1
097E  0E74      	MOVLW 0x74
0980  6FD3      	MOVWF CompTempVar2778+D'19', 1
0982  0E75      	MOVLW 0x75
0984  6FC2      	MOVWF CompTempVar2778+D'2', 1
0986  6FDB      	MOVWF CompTempVar2778+D'27', 1
0988  0E7A      	MOVLW 0x7A
098A  6FC7      	MOVWF CompTempVar2778+D'7', 1
098C  6BE7      	CLRF CompTempVar2778+D'39', 1
098E  0E00      	MOVLW HIGH(CompTempVar2778+D'0')
0990  6FBF      	MOVWF FCD_0f051__0005D_arg_FCL_STR+D'1', 1
0992  0EC0      	MOVLW LOW(CompTempVar2778+D'0')
0994  6FBE      	MOVWF FCD_0f051__0005D_arg_FCL_STR, 1
0996  0E28      	MOVLW 0x28
0998  6FF5      	MOVWF FCD_0f051__0005D_arg_FCLsz_STR, 1
099A  6BF6      	CLRF FCD_0f051__0005D_arg_FCLsz_STR+D'1', 1
099C  6BF7      	CLRF FCD_0f051__0005D_arg_FCL_X1, 1
099E  6BF8      	CLRF FCD_0f051__0005D_arg_FCL_X1+D'1', 1
09A0  0EF1      	MOVLW 0xF1
09A2  6FF9      	MOVWF FCD_0f051__0005D_arg_FCL_Y1, 1
09A4  6BFA      	CLRF FCD_0f051__0005D_arg_FCL_Y1+D'1', 1
09A6  0E02      	MOVLW 0x02
09A8  6FFB      	MOVWF FCD_0f051__0005D_arg_FCL_FONT, 1
09AA  0E01      	MOVLW 0x01
09AC  6FFC      	MOVWF FCD_0f051__0005D_arg_FCL_T_0005E, 1
09AE  EC3FF003  	CALL FCD_0f051__0005D
09B2  0012      	RETURN
09B4            label53
09B4  0E20      	MOVLW 0x20
09B6  6FC8      	MOVWF CompTempVar2780+D'8', 1
09B8  6FCF      	MOVWF CompTempVar2780+D'15', 1
09BA  6FD2      	MOVWF CompTempVar2780+D'18', 1
09BC  6FDD      	MOVWF CompTempVar2780+D'29', 1
09BE  6FE0      	MOVWF CompTempVar2780+D'32', 1
09C0  0E28      	MOVLW 0x28
09C2  6FDE      	MOVWF CompTempVar2780+D'30', 1
09C4  0E29      	MOVLW 0x29
09C6  6FE6      	MOVWF CompTempVar2780+D'38', 1
09C8  0E2D      	MOVLW 0x2D
09CA  6FD7      	MOVWF CompTempVar2780+D'23', 1
09CC  0E33      	MOVLW 0x33
09CE  6FDF      	MOVWF CompTempVar2780+D'31', 1
09D0  0E56      	MOVLW 0x56
09D2  6FC0      	MOVWF CompTempVar2780, 1
09D4  0E61      	MOVLW 0x61
09D6  6FCB      	MOVWF CompTempVar2780+D'11', 1
09D8  6FD9      	MOVWF CompTempVar2780+D'25', 1
09DA  6FE2      	MOVWF CompTempVar2780+D'34', 1
09DC  0E63      	MOVLW 0x63
09DE  6FCC      	MOVWF CompTempVar2780+D'12', 1
09E0  6FE1      	MOVWF CompTempVar2780+D'33', 1
09E2  0E65      	MOVLW 0x65
09E4  6FC1      	MOVWF CompTempVar2780+D'1', 1
09E6  6FC6      	MOVWF CompTempVar2780+D'6', 1
09E8  6FCD      	MOVWF CompTempVar2780+D'13', 1
09EA  6FD1      	MOVWF CompTempVar2780+D'17', 1
09EC  6FE4      	MOVWF CompTempVar2780+D'36', 1
09EE  0E69      	MOVLW 0x69
09F0  6FC3      	MOVWF CompTempVar2780+D'3', 1
09F2  6FDB      	MOVWF CompTempVar2780+D'27', 1
09F4  0E6C      	MOVLW 0x6C
09F6  6FC4      	MOVWF CompTempVar2780+D'4', 1
09F8  6FC5      	MOVWF CompTempVar2780+D'5', 1
09FA  6FCA      	MOVWF CompTempVar2780+D'10', 1
09FC  6FD0      	MOVWF CompTempVar2780+D'16', 1
09FE  0E6D      	MOVLW 0x6D
0A00  6FD8      	MOVWF CompTempVar2780+D'24', 1
0A02  0E6E      	MOVLW 0x6E
0A04  6FDC      	MOVWF CompTempVar2780+D'28', 1
0A06  0E6F      	MOVLW 0x6F
0A08  6FD4      	MOVWF CompTempVar2780+D'20', 1
0A0A  0E70      	MOVLW 0x70
0A0C  6FC9      	MOVWF CompTempVar2780+D'9', 1
0A0E  0E72      	MOVLW 0x72
0A10  6FCE      	MOVWF CompTempVar2780+D'14', 1
0A12  6FDA      	MOVWF CompTempVar2780+D'26', 1
0A14  0E73      	MOVLW 0x73
0A16  6FD3      	MOVWF CompTempVar2780+D'19', 1
0A18  6FD6      	MOVWF CompTempVar2780+D'22', 1
0A1A  6FE3      	MOVWF CompTempVar2780+D'35', 1
0A1C  6FE5      	MOVWF CompTempVar2780+D'37', 1
0A1E  0E75      	MOVLW 0x75
0A20  6FC2      	MOVWF CompTempVar2780+D'2', 1
0A22  6FD5      	MOVWF CompTempVar2780+D'21', 1
0A24  0E7A      	MOVLW 0x7A
0A26  6FC7      	MOVWF CompTempVar2780+D'7', 1
0A28  6BE7      	CLRF CompTempVar2780+D'39', 1
0A2A  0E00      	MOVLW HIGH(CompTempVar2780+D'0')
0A2C  6FBF      	MOVWF FCD_0f051__0005D_arg_FCL_STR+D'1', 1
0A2E  0EC0      	MOVLW LOW(CompTempVar2780+D'0')
0A30  6FBE      	MOVWF FCD_0f051__0005D_arg_FCL_STR, 1
0A32  0E28      	MOVLW 0x28
0A34  6FF5      	MOVWF FCD_0f051__0005D_arg_FCLsz_STR, 1
0A36  6BF6      	CLRF FCD_0f051__0005D_arg_FCLsz_STR+D'1', 1
0A38  6BF7      	CLRF FCD_0f051__0005D_arg_FCL_X1, 1
0A3A  6BF8      	CLRF FCD_0f051__0005D_arg_FCL_X1+D'1', 1
0A3C  0EF1      	MOVLW 0xF1
0A3E  6FF9      	MOVWF FCD_0f051__0005D_arg_FCL_Y1, 1
0A40  6BFA      	CLRF FCD_0f051__0005D_arg_FCL_Y1+D'1', 1
0A42  0E02      	MOVLW 0x02
0A44  6FFB      	MOVWF FCD_0f051__0005D_arg_FCL_FONT, 1
0A46  0E01      	MOVLW 0x01
0A48  6FFC      	MOVWF FCD_0f051__0005D_arg_FCL_T_0005E, 1
0A4A  EC3FF003  	CALL FCD_0f051__0005D
0A4E  0012      	RETURN
0A50            label54
0A50  0E20      	MOVLW 0x20
0A52  6FC8      	MOVWF CompTempVar2782+D'8', 1
0A54  6FCF      	MOVWF CompTempVar2782+D'15', 1
0A56  6FD2      	MOVWF CompTempVar2782+D'18', 1
0A58  6FD9      	MOVWF CompTempVar2782+D'25', 1
0A5A  6FDA      	MOVWF CompTempVar2782+D'26', 1
0A5C  6FDB      	MOVWF CompTempVar2782+D'27', 1
0A5E  6FDC      	MOVWF CompTempVar2782+D'28', 1
0A60  6FDD      	MOVWF CompTempVar2782+D'29', 1
0A62  6FDE      	MOVWF CompTempVar2782+D'30', 1
0A64  6FDF      	MOVWF CompTempVar2782+D'31', 1
0A66  6FE0      	MOVWF CompTempVar2782+D'32', 1
0A68  6FED      	MOVWF CompTempVar2782+D'45', 1
0A6A  0E28      	MOVLW 0x28
0A6C  6FEB      	MOVWF CompTempVar2782+D'43', 1
0A6E  0E29      	MOVLW 0x29
0A70  6FF3      	MOVWF CompTempVar2782+D'51', 1
0A72  0E33      	MOVLW 0x33
0A74  6FEC      	MOVWF CompTempVar2782+D'44', 1
0A76  0E56      	MOVLW 0x56
0A78  6FC0      	MOVWF CompTempVar2782, 1
0A7A  0E61      	MOVLW 0x61
0A7C  6FCB      	MOVWF CompTempVar2782+D'11', 1
0A7E  6FEF      	MOVWF CompTempVar2782+D'47', 1
0A80  0E63      	MOVLW 0x63
0A82  6FCC      	MOVWF CompTempVar2782+D'12', 1
0A84  6FD3      	MOVWF CompTempVar2782+D'19', 1
0A86  6FEE      	MOVWF CompTempVar2782+D'46', 1
0A88  0E65      	MOVLW 0x65
0A8A  6FC1      	MOVWF CompTempVar2782+D'1', 1
0A8C  6FC6      	MOVWF CompTempVar2782+D'6', 1
0A8E  6FCD      	MOVWF CompTempVar2782+D'13', 1
0A90  6FD1      	MOVWF CompTempVar2782+D'17', 1
0A92  6FD8      	MOVWF CompTempVar2782+D'24', 1
0A94  6FE8      	MOVWF CompTempVar2782+D'40', 1
0A96  6FF1      	MOVWF CompTempVar2782+D'49', 1
0A98  0E69      	MOVLW 0x69
0A9A  6FC3      	MOVWF CompTempVar2782+D'3', 1
0A9C  6FE5      	MOVWF CompTempVar2782+D'37', 1
0A9E  0E6C      	MOVLW 0x6C
0AA0  6FC4      	MOVWF CompTempVar2782+D'4', 1
0AA2  6FC5      	MOVWF CompTempVar2782+D'5', 1
0AA4  6FCA      	MOVWF CompTempVar2782+D'10', 1
0AA6  6FD0      	MOVWF CompTempVar2782+D'16', 1
0AA8  6FE6      	MOVWF CompTempVar2782+D'38', 1
0AAA  6FE7      	MOVWF CompTempVar2782+D'39', 1
0AAC  0E6E      	MOVLW 0x6E
0AAE  6FD5      	MOVWF CompTempVar2782+D'21', 1
0AB0  0E6F      	MOVLW 0x6F
0AB2  6FD4      	MOVWF CompTempVar2782+D'20', 1
0AB4  6FE2      	MOVWF CompTempVar2782+D'34', 1
0AB6  0E70      	MOVLW 0x70
0AB8  6FC9      	MOVWF CompTempVar2782+D'9', 1
0ABA  6FE4      	MOVWF CompTempVar2782+D'36', 1
0ABC  0E72      	MOVLW 0x72
0ABE  6FCE      	MOVWF CompTempVar2782+D'14', 1
0AC0  6FD7      	MOVWF CompTempVar2782+D'23', 1
0AC2  6FE3      	MOVWF CompTempVar2782+D'35', 1
0AC4  6FEA      	MOVWF CompTempVar2782+D'42', 1
0AC6  0E73      	MOVLW 0x73
0AC8  6FF0      	MOVWF CompTempVar2782+D'48', 1
0ACA  6FF2      	MOVWF CompTempVar2782+D'50', 1
0ACC  0E74      	MOVLW 0x74
0ACE  6FD6      	MOVWF CompTempVar2782+D'22', 1
0AD0  6FE1      	MOVWF CompTempVar2782+D'33', 1
0AD2  0E75      	MOVLW 0x75
0AD4  6FC2      	MOVWF CompTempVar2782+D'2', 1
0AD6  6FE9      	MOVWF CompTempVar2782+D'41', 1
0AD8  0E7A      	MOVLW 0x7A
0ADA  6FC7      	MOVWF CompTempVar2782+D'7', 1
0ADC  6BF4      	CLRF CompTempVar2782+D'52', 1
0ADE  0E00      	MOVLW HIGH(CompTempVar2782+D'0')
0AE0  6FBF      	MOVWF FCD_0f051__0005D_arg_FCL_STR+D'1', 1
0AE2  0EC0      	MOVLW LOW(CompTempVar2782+D'0')
0AE4  6FBE      	MOVWF FCD_0f051__0005D_arg_FCL_STR, 1
0AE6  0E35      	MOVLW 0x35
0AE8  6FF5      	MOVWF FCD_0f051__0005D_arg_FCLsz_STR, 1
0AEA  6BF6      	CLRF FCD_0f051__0005D_arg_FCLsz_STR+D'1', 1
0AEC  6BF7      	CLRF FCD_0f051__0005D_arg_FCL_X1, 1
0AEE  6BF8      	CLRF FCD_0f051__0005D_arg_FCL_X1+D'1', 1
0AF0  0EF1      	MOVLW 0xF1
0AF2  6FF9      	MOVWF FCD_0f051__0005D_arg_FCL_Y1, 1
0AF4  6BFA      	CLRF FCD_0f051__0005D_arg_FCL_Y1+D'1', 1
0AF6  0E02      	MOVLW 0x02
0AF8  6FFB      	MOVWF FCD_0f051__0005D_arg_FCL_FONT, 1
0AFA  0E01      	MOVLW 0x01
0AFC  6FFC      	MOVWF FCD_0f051__0005D_arg_FCL_T_0005E, 1
0AFE  EC3FF003  	CALL FCD_0f051__0005D
0B02  0012      	RETURN
0B04            label55
0B04  0E20      	MOVLW 0x20
0B06  6FC8      	MOVWF CompTempVar2784+D'8', 1
0B08  6FCF      	MOVWF CompTempVar2784+D'15', 1
0B0A  6FD2      	MOVWF CompTempVar2784+D'18', 1
0B0C  6FDD      	MOVWF CompTempVar2784+D'29', 1
0B0E  0E28      	MOVLW 0x28
0B10  6FDB      	MOVWF CompTempVar2784+D'27', 1
0B12  0E29      	MOVLW 0x29
0B14  6FE3      	MOVWF CompTempVar2784+D'35', 1
0B16  0E34      	MOVLW 0x34
0B18  6FDC      	MOVWF CompTempVar2784+D'28', 1
0B1A  0E56      	MOVLW 0x56
0B1C  6FC0      	MOVWF CompTempVar2784, 1
0B1E  0E61      	MOVLW 0x61
0B20  6FCB      	MOVWF CompTempVar2784+D'11', 1
0B22  6FDF      	MOVWF CompTempVar2784+D'31', 1
0B24  0E63      	MOVLW 0x63
0B26  6FCC      	MOVWF CompTempVar2784+D'12', 1
0B28  6FD3      	MOVWF CompTempVar2784+D'19', 1
0B2A  6FDE      	MOVWF CompTempVar2784+D'30', 1
0B2C  0E65      	MOVLW 0x65
0B2E  6FC1      	MOVWF CompTempVar2784+D'1', 1
0B30  6FC6      	MOVWF CompTempVar2784+D'6', 1
0B32  6FCD      	MOVWF CompTempVar2784+D'13', 1
0B34  6FD1      	MOVWF CompTempVar2784+D'17', 1
0B36  6FD8      	MOVWF CompTempVar2784+D'24', 1
0B38  6FE1      	MOVWF CompTempVar2784+D'33', 1
0B3A  0E69      	MOVLW 0x69
0B3C  6FC3      	MOVWF CompTempVar2784+D'3', 1
0B3E  6FD6      	MOVWF CompTempVar2784+D'22', 1
0B40  0E6C      	MOVLW 0x6C
0B42  6FC4      	MOVWF CompTempVar2784+D'4', 1
0B44  6FC5      	MOVWF CompTempVar2784+D'5', 1
0B46  6FCA      	MOVWF CompTempVar2784+D'10', 1
0B48  6FD0      	MOVWF CompTempVar2784+D'16', 1
0B4A  0E6F      	MOVLW 0x6F
0B4C  6FD5      	MOVWF CompTempVar2784+D'21', 1
0B4E  0E70      	MOVLW 0x70
0B50  6FC9      	MOVWF CompTempVar2784+D'9', 1
0B52  0E72      	MOVLW 0x72
0B54  6FCE      	MOVWF CompTempVar2784+D'14', 1
0B56  6FD4      	MOVWF CompTempVar2784+D'20', 1
0B58  6FDA      	MOVWF CompTempVar2784+D'26', 1
0B5A  0E73      	MOVLW 0x73
0B5C  6FD7      	MOVWF CompTempVar2784+D'23', 1
0B5E  6FE0      	MOVWF CompTempVar2784+D'32', 1
0B60  6FE2      	MOVWF CompTempVar2784+D'34', 1
0B62  0E75      	MOVLW 0x75
0B64  6FC2      	MOVWF CompTempVar2784+D'2', 1
0B66  6FD9      	MOVWF CompTempVar2784+D'25', 1
0B68  0E7A      	MOVLW 0x7A
0B6A  6FC7      	MOVWF CompTempVar2784+D'7', 1
0B6C  6BE4      	CLRF CompTempVar2784+D'36', 1
0B6E  0E00      	MOVLW HIGH(CompTempVar2784+D'0')
0B70  6FBF      	MOVWF FCD_0f051__0005D_arg_FCL_STR+D'1', 1
0B72  0EC0      	MOVLW LOW(CompTempVar2784+D'0')
0B74  6FBE      	MOVWF FCD_0f051__0005D_arg_FCL_STR, 1
0B76  0E25      	MOVLW 0x25
0B78  6FF5      	MOVWF FCD_0f051__0005D_arg_FCLsz_STR, 1
0B7A  6BF6      	CLRF FCD_0f051__0005D_arg_FCLsz_STR+D'1', 1
0B7C  6BF7      	CLRF FCD_0f051__0005D_arg_FCL_X1, 1
0B7E  6BF8      	CLRF FCD_0f051__0005D_arg_FCL_X1+D'1', 1
0B80  0EF1      	MOVLW 0xF1
0B82  6FF9      	MOVWF FCD_0f051__0005D_arg_FCL_Y1, 1
0B84  6BFA      	CLRF FCD_0f051__0005D_arg_FCL_Y1+D'1', 1
0B86  0E02      	MOVLW 0x02
0B88  6FFB      	MOVWF FCD_0f051__0005D_arg_FCL_FONT, 1
0B8A  0E01      	MOVLW 0x01
0B8C  6FFC      	MOVWF FCD_0f051__0005D_arg_FCL_T_0005E, 1
0B8E  EC3FF003  	CALL FCD_0f051__0005D
0B92  0012      	RETURN
0B94            label56
0B94  0E20      	MOVLW 0x20
0B96  6FC8      	MOVWF CompTempVar2786+D'8', 1
0B98  6FCF      	MOVWF CompTempVar2786+D'15', 1
0B9A  6FD2      	MOVWF CompTempVar2786+D'18', 1
0B9C  6FD8      	MOVWF CompTempVar2786+D'24', 1
0B9E  6FE0      	MOVWF CompTempVar2786+D'32', 1
0BA0  0E28      	MOVLW 0x28
0BA2  6FDE      	MOVWF CompTempVar2786+D'30', 1
0BA4  0E29      	MOVLW 0x29
0BA6  6FE6      	MOVWF CompTempVar2786+D'38', 1
0BA8  0E35      	MOVLW 0x35
0BAA  6FDF      	MOVWF CompTempVar2786+D'31', 1
0BAC  0E56      	MOVLW 0x56
0BAE  6FC0      	MOVWF CompTempVar2786, 1
0BB0  0E61      	MOVLW 0x61
0BB2  6FCB      	MOVWF CompTempVar2786+D'11', 1
0BB4  6FD9      	MOVWF CompTempVar2786+D'25', 1
0BB6  6FE2      	MOVWF CompTempVar2786+D'34', 1
0BB8  0E63      	MOVLW 0x63
0BBA  6FCC      	MOVWF CompTempVar2786+D'12', 1
0BBC  6FE1      	MOVWF CompTempVar2786+D'33', 1
0BBE  0E65      	MOVLW 0x65
0BC0  6FC1      	MOVWF CompTempVar2786+D'1', 1
0BC2  6FC6      	MOVWF CompTempVar2786+D'6', 1
0BC4  6FCD      	MOVWF CompTempVar2786+D'13', 1
0BC6  6FD1      	MOVWF CompTempVar2786+D'17', 1
0BC8  6FD7      	MOVWF CompTempVar2786+D'23', 1
0BCA  6FE4      	MOVWF CompTempVar2786+D'36', 1
0BCC  0E69      	MOVLW 0x69
0BCE  6FC3      	MOVWF CompTempVar2786+D'3', 1
0BD0  6FDB      	MOVWF CompTempVar2786+D'27', 1
0BD2  0E6C      	MOVLW 0x6C
0BD4  6FC4      	MOVWF CompTempVar2786+D'4', 1
0BD6  6FC5      	MOVWF CompTempVar2786+D'5', 1
0BD8  6FCA      	MOVWF CompTempVar2786+D'10', 1
0BDA  6FD0      	MOVWF CompTempVar2786+D'16', 1
0BDC  0E6E      	MOVLW 0x6E
0BDE  6FDD      	MOVWF CompTempVar2786+D'29', 1
0BE0  0E6F      	MOVLW 0x6F
0BE2  6FD4      	MOVWF CompTempVar2786+D'20', 1
0BE4  6FDC      	MOVWF CompTempVar2786+D'28', 1
0BE6  0E70      	MOVLW 0x70
0BE8  6FC9      	MOVWF CompTempVar2786+D'9', 1
0BEA  6FD3      	MOVWF CompTempVar2786+D'19', 1
0BEC  0E72      	MOVLW 0x72
0BEE  6FCE      	MOVWF CompTempVar2786+D'14', 1
0BF0  6FD5      	MOVWF CompTempVar2786+D'21', 1
0BF2  0E73      	MOVLW 0x73
0BF4  6FE3      	MOVWF CompTempVar2786+D'35', 1
0BF6  6FE5      	MOVWF CompTempVar2786+D'37', 1
0BF8  0E74      	MOVLW 0x74
0BFA  6FD6      	MOVWF CompTempVar2786+D'22', 1
0BFC  0E75      	MOVLW 0x75
0BFE  6FC2      	MOVWF CompTempVar2786+D'2', 1
0C00  0E76      	MOVLW 0x76
0C02  6FDA      	MOVWF CompTempVar2786+D'26', 1
0C04  0E7A      	MOVLW 0x7A
0C06  6FC7      	MOVWF CompTempVar2786+D'7', 1
0C08  6BE7      	CLRF CompTempVar2786+D'39', 1
0C0A  0E00      	MOVLW HIGH(CompTempVar2786+D'0')
0C0C  6FBF      	MOVWF FCD_0f051__0005D_arg_FCL_STR+D'1', 1
0C0E  0EC0      	MOVLW LOW(CompTempVar2786+D'0')
0C10  6FBE      	MOVWF FCD_0f051__0005D_arg_FCL_STR, 1
0C12  0E28      	MOVLW 0x28
0C14  6FF5      	MOVWF FCD_0f051__0005D_arg_FCLsz_STR, 1
0C16  6BF6      	CLRF FCD_0f051__0005D_arg_FCLsz_STR+D'1', 1
0C18  6BF7      	CLRF FCD_0f051__0005D_arg_FCL_X1, 1
0C1A  6BF8      	CLRF FCD_0f051__0005D_arg_FCL_X1+D'1', 1
0C1C  0EF1      	MOVLW 0xF1
0C1E  6FF9      	MOVWF FCD_0f051__0005D_arg_FCL_Y1, 1
0C20  6BFA      	CLRF FCD_0f051__0005D_arg_FCL_Y1+D'1', 1
0C22  0E02      	MOVLW 0x02
0C24  6FFB      	MOVWF FCD_0f051__0005D_arg_FCL_FONT, 1
0C26  0E01      	MOVLW 0x01
0C28  6FFC      	MOVWF FCD_0f051__0005D_arg_FCL_T_0005E, 1
0C2A  EC3FF003  	CALL FCD_0f051__0005D
0C2E  0012      	RETURN
0C30            ; } FCM_Message_bateau function end

	ORG 0x00000C30
0C30            FCM_Lectur_00067
0C30            ; { FCM_Lecture_Coordonnes ; function begin
0C30  0100      	MOVLB 0x00
0C32  6BBE      	CLRF FCD_0f051__00068_arg_FCL_AXIS, 1
0C34  EC1EF003  	CALL FCD_0f051__00068
0C38  51C1      	MOVF CompTempVarRet2714, W, 1
0C3A  6F90      	MOVWF gbl_FCV_X_TOUCH, 1
0C3C  51C2      	MOVF CompTempVarRet2714+D'1', W, 1
0C3E  6F91      	MOVWF gbl_FCV_X_TOUCH+D'1', 1
0C40  0E01      	MOVLW 0x01
0C42  6FBE      	MOVWF FCD_0f051__00068_arg_FCL_AXIS, 1
0C44  EC1EF003  	CALL FCD_0f051__00068
0C48  51C1      	MOVF CompTempVarRet2714, W, 1
0C4A  6F88      	MOVWF gbl_FCV_Y_TOUCH, 1
0C4C  51C2      	MOVF CompTempVarRet2714+D'1', W, 1
0C4E  6F89      	MOVWF gbl_FCV_Y_TOUCH+D'1', 1
0C50  0012      	RETURN
0C52            ; } FCM_Lecture_Coordonnes function end

	ORG 0x00000C52
0C52            FCD_0f051__00082
0C52            ; { FCD_0f051_gLCD_EB076_4D1__DrawLine ; function begin
0C52  6BC0      	CLRF FCD_0f051__00082_1_FCL_D1, 1
0C54  6BC1      	CLRF FCD_0f051__00082_1_FCL_D1+D'1', 1
0C56  0E01      	MOVLW 0x01
0C58  6FC2      	MOVWF FCD_0f051__00082_1_FCL_YINC, 1
0C5A  6BC3      	CLRF FCD_0f051__00082_1_FCL_YINC+D'1', 1
0C5C  0E01      	MOVLW 0x01
0C5E  6FC4      	MOVWF FCD_0f051__00082_1_FCL_XINC, 1
0C60  6BC5      	CLRF FCD_0f051__00082_1_FCL_XINC+D'1', 1
0C62  0E4C      	MOVLW 0x4C
0C64  0101      	MOVLB 0x01
0C66  6F00      	MOVWF FC_CAL_UAR_00087_arg_nChar, 1
0C68  6B01      	CLRF FC_CAL_UAR_00087_arg_nChar+D'1', 1
0C6A  EC46F000  	CALL FC_CAL_UAR_00087
0C6E  0100      	MOVLB 0x00
0C70  51B9      	MOVF FCD_0f051__00082_arg_FCL_X1+D'1', W, 1
0C72  0101      	MOVLB 0x01
0C74  6F00      	MOVWF FC_CAL_UAR_00087_arg_nChar, 1
0C76  6B01      	CLRF FC_CAL_UAR_00087_arg_nChar+D'1', 1
0C78  EC46F000  	CALL FC_CAL_UAR_00087
0C7C  0100      	MOVLB 0x00
0C7E  51B8      	MOVF FCD_0f051__00082_arg_FCL_X1, W, 1
0C80  0101      	MOVLB 0x01
0C82  6F00      	MOVWF FC_CAL_UAR_00087_arg_nChar, 1
0C84  0100      	MOVLB 0x00
0C86  51B9      	MOVF FCD_0f051__00082_arg_FCL_X1+D'1', W, 1
0C88  0101      	MOVLB 0x01
0C8A  6F01      	MOVWF FC_CAL_UAR_00087_arg_nChar+D'1', 1
0C8C  EC46F000  	CALL FC_CAL_UAR_00087
0C90  0100      	MOVLB 0x00
0C92  51BB      	MOVF FCD_0f051__00082_arg_FCL_Y1+D'1', W, 1
0C94  0101      	MOVLB 0x01
0C96  6F00      	MOVWF FC_CAL_UAR_00087_arg_nChar, 1
0C98  6B01      	CLRF FC_CAL_UAR_00087_arg_nChar+D'1', 1
0C9A  EC46F000  	CALL FC_CAL_UAR_00087
0C9E  0100      	MOVLB 0x00
0CA0  51BA      	MOVF FCD_0f051__00082_arg_FCL_Y1, W, 1
0CA2  0101      	MOVLB 0x01
0CA4  6F00      	MOVWF FC_CAL_UAR_00087_arg_nChar, 1
0CA6  0100      	MOVLB 0x00
0CA8  51BB      	MOVF FCD_0f051__00082_arg_FCL_Y1+D'1', W, 1
0CAA  0101      	MOVLB 0x01
0CAC  6F01      	MOVWF FC_CAL_UAR_00087_arg_nChar+D'1', 1
0CAE  EC46F000  	CALL FC_CAL_UAR_00087
0CB2  0100      	MOVLB 0x00
0CB4  51BD      	MOVF FCD_0f051__00082_arg_FCL_X2+D'1', W, 1
0CB6  0101      	MOVLB 0x01
0CB8  6F00      	MOVWF FC_CAL_UAR_00087_arg_nChar, 1
0CBA  6B01      	CLRF FC_CAL_UAR_00087_arg_nChar+D'1', 1
0CBC  EC46F000  	CALL FC_CAL_UAR_00087
0CC0  0100      	MOVLB 0x00
0CC2  51BC      	MOVF FCD_0f051__00082_arg_FCL_X2, W, 1
0CC4  0101      	MOVLB 0x01
0CC6  6F00      	MOVWF FC_CAL_UAR_00087_arg_nChar, 1
0CC8  0100      	MOVLB 0x00
0CCA  51BD      	MOVF FCD_0f051__00082_arg_FCL_X2+D'1', W, 1
0CCC  0101      	MOVLB 0x01
0CCE  6F01      	MOVWF FC_CAL_UAR_00087_arg_nChar+D'1', 1
0CD0  EC46F000  	CALL FC_CAL_UAR_00087
0CD4  0100      	MOVLB 0x00
0CD6  51BF      	MOVF FCD_0f051__00082_arg_FCL_Y2+D'1', W, 1
0CD8  0101      	MOVLB 0x01
0CDA  6F00      	MOVWF FC_CAL_UAR_00087_arg_nChar, 1
0CDC  6B01      	CLRF FC_CAL_UAR_00087_arg_nChar+D'1', 1
0CDE  EC46F000  	CALL FC_CAL_UAR_00087
0CE2  0100      	MOVLB 0x00
0CE4  51BE      	MOVF FCD_0f051__00082_arg_FCL_Y2, W, 1
0CE6  0101      	MOVLB 0x01
0CE8  6F00      	MOVWF FC_CAL_UAR_00087_arg_nChar, 1
0CEA  0100      	MOVLB 0x00
0CEC  51BF      	MOVF FCD_0f051__00082_arg_FCL_Y2+D'1', W, 1
0CEE  0101      	MOVLB 0x01
0CF0  6F01      	MOVWF FC_CAL_UAR_00087_arg_nChar+D'1', 1
0CF2  EC46F000  	CALL FC_CAL_UAR_00087
0CF6  0100      	MOVLB 0x00
0CF8  5195      	MOVF gbl_FCV_0f051_gLCD_EB076_4_0000D+D'1', W, 1
0CFA  0101      	MOVLB 0x01
0CFC  6F00      	MOVWF FC_CAL_UAR_00087_arg_nChar, 1
0CFE  6B01      	CLRF FC_CAL_UAR_00087_arg_nChar+D'1', 1
0D00  EC46F000  	CALL FC_CAL_UAR_00087
0D04  0100      	MOVLB 0x00
0D06  5194      	MOVF gbl_FCV_0f051_gLCD_EB076_4_0000D, W, 1
0D08  0101      	MOVLB 0x01
0D0A  6F00      	MOVWF FC_CAL_UAR_00087_arg_nChar, 1
0D0C  0100      	MOVLB 0x00
0D0E  5195      	MOVF gbl_FCV_0f051_gLCD_EB076_4_0000D+D'1', W, 1
0D10  0101      	MOVLB 0x01
0D12  6F01      	MOVWF FC_CAL_UAR_00087_arg_nChar+D'1', 1
0D14  EC46F000  	CALL FC_CAL_UAR_00087
0D18  0100      	MOVLB 0x00
0D1A  69FF      	SETF FC_CAL_UAR_00086_arg_nTimeout, 1
0D1C  EC50F000  	CALL FC_CAL_UAR_00086
0D20  0012      	RETURN
0D22            ; } FCD_0f051_gLCD_EB076_4D1__DrawLine function end

	ORG 0x00000D22
0D22            FCD_0f051__0006D
0D22            ; { FCD_0f051_gLCD_EB076_4D1__ClearDisplay ; function begin
0D22  0100      	MOVLB 0x00
0D24  6BBB      	CLRF FCD_0f051__0006D_1_FCL_Y, 1
0D26  6BBC      	CLRF FCD_0f051__0006D_1_FCL_Y+D'1', 1
0D28  6BBD      	CLRF FCD_0f051__0006D_1_FCL_X, 1
0D2A  6BBE      	CLRF FCD_0f051__0006D_1_FCL_X+D'1', 1
0D2C  0E42      	MOVLW 0x42
0D2E  0101      	MOVLB 0x01
0D30  6F00      	MOVWF FC_CAL_UAR_00087_arg_nChar, 1
0D32  6B01      	CLRF FC_CAL_UAR_00087_arg_nChar+D'1', 1
0D34  EC46F000  	CALL FC_CAL_UAR_00087
0D38  0100      	MOVLB 0x00
0D3A  5193      	MOVF gbl_FCV_0f051_gLCD_EB076_4_0000C+D'1', W, 1
0D3C  0101      	MOVLB 0x01
0D3E  6F00      	MOVWF FC_CAL_UAR_00087_arg_nChar, 1
0D40  6B01      	CLRF FC_CAL_UAR_00087_arg_nChar+D'1', 1
0D42  EC46F000  	CALL FC_CAL_UAR_00087
0D46  0100      	MOVLB 0x00
0D48  5192      	MOVF gbl_FCV_0f051_gLCD_EB076_4_0000C, W, 1
0D4A  0101      	MOVLB 0x01
0D4C  6F00      	MOVWF FC_CAL_UAR_00087_arg_nChar, 1
0D4E  0100      	MOVLB 0x00
0D50  5193      	MOVF gbl_FCV_0f051_gLCD_EB076_4_0000C+D'1', W, 1
0D52  0101      	MOVLB 0x01
0D54  6F01      	MOVWF FC_CAL_UAR_00087_arg_nChar+D'1', 1
0D56  EC46F000  	CALL FC_CAL_UAR_00087
0D5A  0100      	MOVLB 0x00
0D5C  69FF      	SETF FC_CAL_UAR_00086_arg_nTimeout, 1
0D5E  EC50F000  	CALL FC_CAL_UAR_00086
0D62  0E45      	MOVLW 0x45
0D64  6F00      	MOVWF FC_CAL_UAR_00087_arg_nChar, 1
0D66  6B01      	CLRF FC_CAL_UAR_00087_arg_nChar+D'1', 1
0D68  EC46F000  	CALL FC_CAL_UAR_00087
0D6C  0100      	MOVLB 0x00
0D6E  69FF      	SETF FC_CAL_UAR_00086_arg_nTimeout, 1
0D70  EC50F000  	CALL FC_CAL_UAR_00086
0D74  0012      	RETURN
0D76            ; } FCD_0f051_gLCD_EB076_4D1__ClearDisplay function end

	ORG 0x00000D76
0D76            FCM_lignes_00000
0D76            ; { FCM_lignes ; function begin
0D76  0E18      	MOVLW 0x18
0D78  0100      	MOVLB 0x00
0D7A  6F8A      	MOVWF gbl_FCV_X_LIGNE, 1
0D7C  6B8B      	CLRF gbl_FCV_X_LIGNE+D'1', 1
0D7E  0E18      	MOVLW 0x18
0D80  6F84      	MOVWF gbl_FCV_Y_LIGNE, 1
0D82  6B85      	CLRF gbl_FCV_Y_LIGNE+D'1', 1
0D84            label57
0D84  518A      	MOVF gbl_FCV_X_LIGNE, W, 1
0D86  6FB8      	MOVWF FCD_0f051__00082_arg_FCL_X1, 1
0D88  518B      	MOVF gbl_FCV_X_LIGNE+D'1', W, 1
0D8A  6FB9      	MOVWF FCD_0f051__00082_arg_FCL_X1+D'1', 1
0D8C  6BBA      	CLRF FCD_0f051__00082_arg_FCL_Y1, 1
0D8E  6BBB      	CLRF FCD_0f051__00082_arg_FCL_Y1+D'1', 1
0D90  518A      	MOVF gbl_FCV_X_LIGNE, W, 1
0D92  6FBC      	MOVWF FCD_0f051__00082_arg_FCL_X2, 1
0D94  518B      	MOVF gbl_FCV_X_LIGNE+D'1', W, 1
0D96  6FBD      	MOVWF FCD_0f051__00082_arg_FCL_X2+D'1', 1
0D98  0EF0      	MOVLW 0xF0
0D9A  6FBE      	MOVWF FCD_0f051__00082_arg_FCL_Y2, 1
0D9C  6BBF      	CLRF FCD_0f051__00082_arg_FCL_Y2+D'1', 1
0D9E  EC29F006  	CALL FCD_0f051__00082
0DA2  0100      	MOVLB 0x00
0DA4  6BB8      	CLRF CompTempVar2765, 1
0DA6  0E18      	MOVLW 0x18
0DA8  278A      	ADDWF gbl_FCV_X_LIGNE, F, 1
0DAA  518B      	MOVF gbl_FCV_X_LIGNE+D'1', W, 1
0DAC  23B8      	ADDWFC CompTempVar2765, F, 1
0DAE  51B8      	MOVF CompTempVar2765, W, 1
0DB0  6F8B      	MOVWF gbl_FCV_X_LIGNE+D'1', 1
0DB2  6BB7      	CLRF CompTempVar2763, 1
0DB4  0EF0      	MOVLW 0xF0
0DB6  638A      	CPFSEQ gbl_FCV_X_LIGNE, 1
0DB8  D003      	BRA	label58
0DBA  518B      	MOVF gbl_FCV_X_LIGNE+D'1', W, 1
0DBC  B4D8      	BTFSC STATUS,Z
0DBE  2BB7      	INCF CompTempVar2763, F, 1
0DC0            label58
0DC0  53B7      	MOVF CompTempVar2763, F, 1
0DC2  E0E0      	BZ	label57
0DC4            label59
0DC4  6BB8      	CLRF FCD_0f051__00082_arg_FCL_X1, 1
0DC6  6BB9      	CLRF FCD_0f051__00082_arg_FCL_X1+D'1', 1
0DC8  5184      	MOVF gbl_FCV_Y_LIGNE, W, 1
0DCA  6FBA      	MOVWF FCD_0f051__00082_arg_FCL_Y1, 1
0DCC  5185      	MOVF gbl_FCV_Y_LIGNE+D'1', W, 1
0DCE  6FBB      	MOVWF FCD_0f051__00082_arg_FCL_Y1+D'1', 1
0DD0  0EF0      	MOVLW 0xF0
0DD2  6FBC      	MOVWF FCD_0f051__00082_arg_FCL_X2, 1
0DD4  6BBD      	CLRF FCD_0f051__00082_arg_FCL_X2+D'1', 1
0DD6  5184      	MOVF gbl_FCV_Y_LIGNE, W, 1
0DD8  6FBE      	MOVWF FCD_0f051__00082_arg_FCL_Y2, 1
0DDA  5185      	MOVF gbl_FCV_Y_LIGNE+D'1', W, 1
0DDC  6FBF      	MOVWF FCD_0f051__00082_arg_FCL_Y2+D'1', 1
0DDE  EC29F006  	CALL FCD_0f051__00082
0DE2  0100      	MOVLB 0x00
0DE4  6BB8      	CLRF CompTempVar2768, 1
0DE6  0E18      	MOVLW 0x18
0DE8  2784      	ADDWF gbl_FCV_Y_LIGNE, F, 1
0DEA  5185      	MOVF gbl_FCV_Y_LIGNE+D'1', W, 1
0DEC  23B8      	ADDWFC CompTempVar2768, F, 1
0DEE  51B8      	MOVF CompTempVar2768, W, 1
0DF0  6F85      	MOVWF gbl_FCV_Y_LIGNE+D'1', 1
0DF2  6BB7      	CLRF CompTempVar2766, 1
0DF4  0EF0      	MOVLW 0xF0
0DF6  6584      	CPFSGT gbl_FCV_Y_LIGNE, 1
0DF8  6785      	TSTFSZ gbl_FCV_Y_LIGNE+D'1', 1
0DFA  D001      	BRA	label60
0DFC  2BB7      	INCF CompTempVar2766, F, 1
0DFE            label60
0DFE  53B7      	MOVF CompTempVar2766, F, 1
0E00  E1E1      	BNZ	label59
0E02  0012      	RETURN
0E04            ; } FCM_lignes function end

	ORG 0x00000E04
0E04            FCM_Touche_00080
0E04            ; { FCM_Touche_coule_CR ; function begin
0E04  0100      	MOVLB 0x00
0E06  518E      	MOVF gbl_FCV_X, W, 1
0E08  6FBE      	MOVWF FCM_parame_0005C_arg_FCL_POS_X1, 1
0E0A  518F      	MOVF gbl_FCV_X+D'1', W, 1
0E0C  6FBF      	MOVWF FCM_parame_0005C_arg_FCL_POS_X1+D'1', 1
0E0E  0E18      	MOVLW 0x18
0E10  5D8E      	SUBWF gbl_FCV_X, W, 1
0E12  6FC0      	MOVWF FCM_parame_0005C_arg_FCL_POS_X2, 1
0E14  598E      	SUBWFB gbl_FCV_X, W, 1
0E16  0818      	SUBLW 0x18
0E18  5D8F      	SUBWF gbl_FCV_X+D'1', W, 1
0E1A  6FC1      	MOVWF FCM_parame_0005C_arg_FCL_POS_X2+D'1', 1
0E1C  518C      	MOVF gbl_FCV_Y, W, 1
0E1E  6FC2      	MOVWF FCM_parame_0005C_arg_FCL_POS_Y1, 1
0E20  518D      	MOVF gbl_FCV_Y+D'1', W, 1
0E22  6FC3      	MOVWF FCM_parame_0005C_arg_FCL_POS_Y1+D'1', 1
0E24  0E18      	MOVLW 0x18
0E26  5D8C      	SUBWF gbl_FCV_Y, W, 1
0E28  6FC4      	MOVWF FCM_parame_0005C_arg_FCL_POS_Y2, 1
0E2A  598C      	SUBWFB gbl_FCV_Y, W, 1
0E2C  0818      	SUBLW 0x18
0E2E  5D8D      	SUBWF gbl_FCV_Y+D'1', W, 1
0E30  6FC5      	MOVWF FCM_parame_0005C_arg_FCL_POS_Y2+D'1', 1
0E32  69C6      	SETF FCM_parame_0005C_arg_FCL_ROUGE, 1
0E34  6BC7      	CLRF FCM_parame_0005C_arg_FCL_VERT, 1
0E36  6BC8      	CLRF FCM_parame_0005C_arg_FCL_BLEU, 1
0E38  ECD4F001  	CALL FCM_parame_0005C
0E3C  0E20      	MOVLW 0x20
0E3E  0100      	MOVLB 0x00
0E40  6FC0      	MOVWF CompTempVar2849, 1
0E42  6FC1      	MOVWF CompTempVar2849+D'1', 1
0E44  6FC2      	MOVWF CompTempVar2849+D'2', 1
0E46  6FC3      	MOVWF CompTempVar2849+D'3', 1
0E48  6FC4      	MOVWF CompTempVar2849+D'4', 1
0E4A  6FC5      	MOVWF CompTempVar2849+D'5', 1
0E4C  6FC6      	MOVWF CompTempVar2849+D'6', 1
0E4E  6FC7      	MOVWF CompTempVar2849+D'7', 1
0E50  6FC8      	MOVWF CompTempVar2849+D'8', 1
0E52  6FC9      	MOVWF CompTempVar2849+D'9', 1
0E54  6FCA      	MOVWF CompTempVar2849+D'10', 1
0E56  6FCB      	MOVWF CompTempVar2849+D'11', 1
0E58  6FD2      	MOVWF CompTempVar2849+D'18', 1
0E5A  6FD3      	MOVWF CompTempVar2849+D'19', 1
0E5C  6FD4      	MOVWF CompTempVar2849+D'20', 1
0E5E  0E54      	MOVLW 0x54
0E60  6FCC      	MOVWF CompTempVar2849+D'12', 1
0E62  0E63      	MOVLW 0x63
0E64  6FCF      	MOVWF CompTempVar2849+D'15', 1
0E66  0E65      	MOVLW 0x65
0E68  6FD1      	MOVWF CompTempVar2849+D'17', 1
0E6A  0E68      	MOVLW 0x68
0E6C  6FD0      	MOVWF CompTempVar2849+D'16', 1
0E6E  0E6F      	MOVLW 0x6F
0E70  6FCD      	MOVWF CompTempVar2849+D'13', 1
0E72  0E75      	MOVLW 0x75
0E74  6FCE      	MOVWF CompTempVar2849+D'14', 1
0E76  6BD5      	CLRF CompTempVar2849+D'21', 1
0E78  0E00      	MOVLW HIGH(CompTempVar2849+D'0')
0E7A  6FBF      	MOVWF FCD_0f051__0005D_arg_FCL_STR+D'1', 1
0E7C  0EC0      	MOVLW LOW(CompTempVar2849+D'0')
0E7E  6FBE      	MOVWF FCD_0f051__0005D_arg_FCL_STR, 1
0E80  0E16      	MOVLW 0x16
0E82  6FF5      	MOVWF FCD_0f051__0005D_arg_FCLsz_STR, 1
0E84  6BF6      	CLRF FCD_0f051__0005D_arg_FCLsz_STR+D'1', 1
0E86  6BF7      	CLRF FCD_0f051__0005D_arg_FCL_X1, 1
0E88  6BF8      	CLRF FCD_0f051__0005D_arg_FCL_X1+D'1', 1
0E8A  0EF1      	MOVLW 0xF1
0E8C  6FF9      	MOVWF FCD_0f051__0005D_arg_FCL_Y1, 1
0E8E  6BFA      	CLRF FCD_0f051__0005D_arg_FCL_Y1+D'1', 1
0E90  0E02      	MOVLW 0x02
0E92  6FFB      	MOVWF FCD_0f051__0005D_arg_FCL_FONT, 1
0E94  0E01      	MOVLW 0x01
0E96  6FFC      	MOVWF FCD_0f051__0005D_arg_FCL_T_0005E, 1
0E98  EC3FF003  	CALL FCD_0f051__0005D
0E9C  EE00F005  	LFSR 0x00, gbl_FCV_TABLEAU
0EA0  50E9      	MOVF FSR0L, W
0EA2  0100      	MOVLB 0x00
0EA4  51A6      	MOVF gbl_FCV_HITBOX, W, 1
0EA6  26E9      	ADDWF FSR0L, F
0EA8  6BB8      	CLRF CompTempVar2853, 1
0EAA  2BB8      	INCF CompTempVar2853, F, 1
0EAC  0E05      	MOVLW LOW(gbl_FCV_TABLEAU+D'0')
0EAE  6EE9      	MOVWF FSR0L
0EB0  51A6      	MOVF gbl_FCV_HITBOX, W, 1
0EB2  26E9      	ADDWF FSR0L, F
0EB4  51B8      	MOVF CompTempVar2853, W, 1
0EB6  6EEF      	MOVWF INDF0
0EB8  05A3      	DECF gbl_FCV_CROISEUR, W, 1
0EBA  6FA3      	MOVWF gbl_FCV_CROISEUR, 1
0EBC  0012      	RETURN
0EBE            ; } FCM_Touche_coule_CR function end

	ORG 0x00000EBE
0EBE            FCM_Touche_0007E
0EBE            ; { FCM_Touche_Coule_CT ; function begin
0EBE  0100      	MOVLB 0x00
0EC0  518E      	MOVF gbl_FCV_X, W, 1
0EC2  6FBE      	MOVWF FCM_parame_0005C_arg_FCL_POS_X1, 1
0EC4  518F      	MOVF gbl_FCV_X+D'1', W, 1
0EC6  6FBF      	MOVWF FCM_parame_0005C_arg_FCL_POS_X1+D'1', 1
0EC8  0E18      	MOVLW 0x18
0ECA  5D8E      	SUBWF gbl_FCV_X, W, 1
0ECC  6FC0      	MOVWF FCM_parame_0005C_arg_FCL_POS_X2, 1
0ECE  598E      	SUBWFB gbl_FCV_X, W, 1
0ED0  0818      	SUBLW 0x18
0ED2  5D8F      	SUBWF gbl_FCV_X+D'1', W, 1
0ED4  6FC1      	MOVWF FCM_parame_0005C_arg_FCL_POS_X2+D'1', 1
0ED6  518C      	MOVF gbl_FCV_Y, W, 1
0ED8  6FC2      	MOVWF FCM_parame_0005C_arg_FCL_POS_Y1, 1
0EDA  518D      	MOVF gbl_FCV_Y+D'1', W, 1
0EDC  6FC3      	MOVWF FCM_parame_0005C_arg_FCL_POS_Y1+D'1', 1
0EDE  0E18      	MOVLW 0x18
0EE0  5D8C      	SUBWF gbl_FCV_Y, W, 1
0EE2  6FC4      	MOVWF FCM_parame_0005C_arg_FCL_POS_Y2, 1
0EE4  598C      	SUBWFB gbl_FCV_Y, W, 1
0EE6  0818      	SUBLW 0x18
0EE8  5D8D      	SUBWF gbl_FCV_Y+D'1', W, 1
0EEA  6FC5      	MOVWF FCM_parame_0005C_arg_FCL_POS_Y2+D'1', 1
0EEC  69C6      	SETF FCM_parame_0005C_arg_FCL_ROUGE, 1
0EEE  6BC7      	CLRF FCM_parame_0005C_arg_FCL_VERT, 1
0EF0  6BC8      	CLRF FCM_parame_0005C_arg_FCL_BLEU, 1
0EF2  ECD4F001  	CALL FCM_parame_0005C
0EF6  0E20      	MOVLW 0x20
0EF8  0100      	MOVLB 0x00
0EFA  6FC0      	MOVWF CompTempVar2843, 1
0EFC  6FC1      	MOVWF CompTempVar2843+D'1', 1
0EFE  6FC2      	MOVWF CompTempVar2843+D'2', 1
0F00  6FC3      	MOVWF CompTempVar2843+D'3', 1
0F02  6FC4      	MOVWF CompTempVar2843+D'4', 1
0F04  6FC5      	MOVWF CompTempVar2843+D'5', 1
0F06  6FC6      	MOVWF CompTempVar2843+D'6', 1
0F08  6FC7      	MOVWF CompTempVar2843+D'7', 1
0F0A  6FC8      	MOVWF CompTempVar2843+D'8', 1
0F0C  6FC9      	MOVWF CompTempVar2843+D'9', 1
0F0E  6FCA      	MOVWF CompTempVar2843+D'10', 1
0F10  6FCB      	MOVWF CompTempVar2843+D'11', 1
0F12  6FD2      	MOVWF CompTempVar2843+D'18', 1
0F14  6FD3      	MOVWF CompTempVar2843+D'19', 1
0F16  6FD4      	MOVWF CompTempVar2843+D'20', 1
0F18  0E54      	MOVLW 0x54
0F1A  6FCC      	MOVWF CompTempVar2843+D'12', 1
0F1C  0E63      	MOVLW 0x63
0F1E  6FCF      	MOVWF CompTempVar2843+D'15', 1
0F20  0E65      	MOVLW 0x65
0F22  6FD1      	MOVWF CompTempVar2843+D'17', 1
0F24  0E68      	MOVLW 0x68
0F26  6FD0      	MOVWF CompTempVar2843+D'16', 1
0F28  0E6F      	MOVLW 0x6F
0F2A  6FCD      	MOVWF CompTempVar2843+D'13', 1
0F2C  0E75      	MOVLW 0x75
0F2E  6FCE      	MOVWF CompTempVar2843+D'14', 1
0F30  6BD5      	CLRF CompTempVar2843+D'21', 1
0F32  0E00      	MOVLW HIGH(CompTempVar2843+D'0')
0F34  6FBF      	MOVWF FCD_0f051__0005D_arg_FCL_STR+D'1', 1
0F36  0EC0      	MOVLW LOW(CompTempVar2843+D'0')
0F38  6FBE      	MOVWF FCD_0f051__0005D_arg_FCL_STR, 1
0F3A  0E16      	MOVLW 0x16
0F3C  6FF5      	MOVWF FCD_0f051__0005D_arg_FCLsz_STR, 1
0F3E  6BF6      	CLRF FCD_0f051__0005D_arg_FCLsz_STR+D'1', 1
0F40  6BF7      	CLRF FCD_0f051__0005D_arg_FCL_X1, 1
0F42  6BF8      	CLRF FCD_0f051__0005D_arg_FCL_X1+D'1', 1
0F44  0EF1      	MOVLW 0xF1
0F46  6FF9      	MOVWF FCD_0f051__0005D_arg_FCL_Y1, 1
0F48  6BFA      	CLRF FCD_0f051__0005D_arg_FCL_Y1+D'1', 1
0F4A  0E02      	MOVLW 0x02
0F4C  6FFB      	MOVWF FCD_0f051__0005D_arg_FCL_FONT, 1
0F4E  0E01      	MOVLW 0x01
0F50  6FFC      	MOVWF FCD_0f051__0005D_arg_FCL_T_0005E, 1
0F52  EC3FF003  	CALL FCD_0f051__0005D
0F56  0100      	MOVLB 0x00
0F58  05AD      	DECF gbl_FCV_CONTRE_TORPILLEUR, W, 1
0F5A  6FAD      	MOVWF gbl_FCV_CONTRE_TORPILLEUR, 1
0F5C  0012      	RETURN
0F5E            ; } FCM_Touche_Coule_CT function end

	ORG 0x00000F5E
0F5E            FCM_Touche_0006A
0F5E            ; { FCM_Touche_Coule_SM ; function begin
0F5E  0100      	MOVLB 0x00
0F60  518E      	MOVF gbl_FCV_X, W, 1
0F62  6FBE      	MOVWF FCM_parame_0005C_arg_FCL_POS_X1, 1
0F64  518F      	MOVF gbl_FCV_X+D'1', W, 1
0F66  6FBF      	MOVWF FCM_parame_0005C_arg_FCL_POS_X1+D'1', 1
0F68  0E18      	MOVLW 0x18
0F6A  5D8E      	SUBWF gbl_FCV_X, W, 1
0F6C  6FC0      	MOVWF FCM_parame_0005C_arg_FCL_POS_X2, 1
0F6E  598E      	SUBWFB gbl_FCV_X, W, 1
0F70  0818      	SUBLW 0x18
0F72  5D8F      	SUBWF gbl_FCV_X+D'1', W, 1
0F74  6FC1      	MOVWF FCM_parame_0005C_arg_FCL_POS_X2+D'1', 1
0F76  518C      	MOVF gbl_FCV_Y, W, 1
0F78  6FC2      	MOVWF FCM_parame_0005C_arg_FCL_POS_Y1, 1
0F7A  518D      	MOVF gbl_FCV_Y+D'1', W, 1
0F7C  6FC3      	MOVWF FCM_parame_0005C_arg_FCL_POS_Y1+D'1', 1
0F7E  0E18      	MOVLW 0x18
0F80  5D8C      	SUBWF gbl_FCV_Y, W, 1
0F82  6FC4      	MOVWF FCM_parame_0005C_arg_FCL_POS_Y2, 1
0F84  598C      	SUBWFB gbl_FCV_Y, W, 1
0F86  0818      	SUBLW 0x18
0F88  5D8D      	SUBWF gbl_FCV_Y+D'1', W, 1
0F8A  6FC5      	MOVWF FCM_parame_0005C_arg_FCL_POS_Y2+D'1', 1
0F8C  69C6      	SETF FCM_parame_0005C_arg_FCL_ROUGE, 1
0F8E  6BC7      	CLRF FCM_parame_0005C_arg_FCL_VERT, 1
0F90  6BC8      	CLRF FCM_parame_0005C_arg_FCL_BLEU, 1
0F92  ECD4F001  	CALL FCM_parame_0005C
0F96  0E20      	MOVLW 0x20
0F98  0100      	MOVLB 0x00
0F9A  6FC0      	MOVWF CompTempVar2723, 1
0F9C  6FC1      	MOVWF CompTempVar2723+D'1', 1
0F9E  6FC2      	MOVWF CompTempVar2723+D'2', 1
0FA0  6FC3      	MOVWF CompTempVar2723+D'3', 1
0FA2  6FC4      	MOVWF CompTempVar2723+D'4', 1
0FA4  6FC5      	MOVWF CompTempVar2723+D'5', 1
0FA6  6FC6      	MOVWF CompTempVar2723+D'6', 1
0FA8  6FC7      	MOVWF CompTempVar2723+D'7', 1
0FAA  6FC8      	MOVWF CompTempVar2723+D'8', 1
0FAC  6FC9      	MOVWF CompTempVar2723+D'9', 1
0FAE  6FCA      	MOVWF CompTempVar2723+D'10', 1
0FB0  6FCB      	MOVWF CompTempVar2723+D'11', 1
0FB2  6FD2      	MOVWF CompTempVar2723+D'18', 1
0FB4  6FD3      	MOVWF CompTempVar2723+D'19', 1
0FB6  6FD4      	MOVWF CompTempVar2723+D'20', 1
0FB8  0E54      	MOVLW 0x54
0FBA  6FCC      	MOVWF CompTempVar2723+D'12', 1
0FBC  0E63      	MOVLW 0x63
0FBE  6FCF      	MOVWF CompTempVar2723+D'15', 1
0FC0  0E65      	MOVLW 0x65
0FC2  6FD1      	MOVWF CompTempVar2723+D'17', 1
0FC4  0E68      	MOVLW 0x68
0FC6  6FD0      	MOVWF CompTempVar2723+D'16', 1
0FC8  0E6F      	MOVLW 0x6F
0FCA  6FCD      	MOVWF CompTempVar2723+D'13', 1
0FCC  0E75      	MOVLW 0x75
0FCE  6FCE      	MOVWF CompTempVar2723+D'14', 1
0FD0  6BD5      	CLRF CompTempVar2723+D'21', 1
0FD2  0E00      	MOVLW HIGH(CompTempVar2723+D'0')
0FD4  6FBF      	MOVWF FCD_0f051__0005D_arg_FCL_STR+D'1', 1
0FD6  0EC0      	MOVLW LOW(CompTempVar2723+D'0')
0FD8  6FBE      	MOVWF FCD_0f051__0005D_arg_FCL_STR, 1
0FDA  0E16      	MOVLW 0x16
0FDC  6FF5      	MOVWF FCD_0f051__0005D_arg_FCLsz_STR, 1
0FDE  6BF6      	CLRF FCD_0f051__0005D_arg_FCLsz_STR+D'1', 1
0FE0  6BF7      	CLRF FCD_0f051__0005D_arg_FCL_X1, 1
0FE2  6BF8      	CLRF FCD_0f051__0005D_arg_FCL_X1+D'1', 1
0FE4  0EF1      	MOVLW 0xF1
0FE6  6FF9      	MOVWF FCD_0f051__0005D_arg_FCL_Y1, 1
0FE8  6BFA      	CLRF FCD_0f051__0005D_arg_FCL_Y1+D'1', 1
0FEA  0E02      	MOVLW 0x02
0FEC  6FFB      	MOVWF FCD_0f051__0005D_arg_FCL_FONT, 1
0FEE  0E01      	MOVLW 0x01
0FF0  6FFC      	MOVWF FCD_0f051__0005D_arg_FCL_T_0005E, 1
0FF2  EC3FF003  	CALL FCD_0f051__0005D
0FF6  EE00F005  	LFSR 0x00, gbl_FCV_TABLEAU
0FFA  50E9      	MOVF FSR0L, W
0FFC  0100      	MOVLB 0x00
0FFE  51A6      	MOVF gbl_FCV_HITBOX, W, 1
1000  26E9      	ADDWF FSR0L, F
1002  6BB8      	CLRF CompTempVar2727, 1
1004  2BB8      	INCF CompTempVar2727, F, 1
1006  0E05      	MOVLW LOW(gbl_FCV_TABLEAU+D'0')
1008  6EE9      	MOVWF FSR0L
100A  51A6      	MOVF gbl_FCV_HITBOX, W, 1
100C  26E9      	ADDWF FSR0L, F
100E  51B8      	MOVF CompTempVar2727, W, 1
1010  6EEF      	MOVWF INDF0
1012  05A7      	DECF gbl_FCV_SOUS_MARIN, W, 1
1014  6FA7      	MOVWF gbl_FCV_SOUS_MARIN, 1
1016  0012      	RETURN
1018            ; } FCM_Touche_Coule_SM function end

	ORG 0x00001018
1018            FCM_Touche_00066
1018            ; { FCM_Touche_coule_PA ; function begin
1018  0100      	MOVLB 0x00
101A  518E      	MOVF gbl_FCV_X, W, 1
101C  6FBE      	MOVWF FCM_parame_0005C_arg_FCL_POS_X1, 1
101E  518F      	MOVF gbl_FCV_X+D'1', W, 1
1020  6FBF      	MOVWF FCM_parame_0005C_arg_FCL_POS_X1+D'1', 1
1022  0E18      	MOVLW 0x18
1024  5D8E      	SUBWF gbl_FCV_X, W, 1
1026  6FC0      	MOVWF FCM_parame_0005C_arg_FCL_POS_X2, 1
1028  598E      	SUBWFB gbl_FCV_X, W, 1
102A  0818      	SUBLW 0x18
102C  5D8F      	SUBWF gbl_FCV_X+D'1', W, 1
102E  6FC1      	MOVWF FCM_parame_0005C_arg_FCL_POS_X2+D'1', 1
1030  518C      	MOVF gbl_FCV_Y, W, 1
1032  6FC2      	MOVWF FCM_parame_0005C_arg_FCL_POS_Y1, 1
1034  518D      	MOVF gbl_FCV_Y+D'1', W, 1
1036  6FC3      	MOVWF FCM_parame_0005C_arg_FCL_POS_Y1+D'1', 1
1038  0E18      	MOVLW 0x18
103A  5D8C      	SUBWF gbl_FCV_Y, W, 1
103C  6FC4      	MOVWF FCM_parame_0005C_arg_FCL_POS_Y2, 1
103E  598C      	SUBWFB gbl_FCV_Y, W, 1
1040  0818      	SUBLW 0x18
1042  5D8D      	SUBWF gbl_FCV_Y+D'1', W, 1
1044  6FC5      	MOVWF FCM_parame_0005C_arg_FCL_POS_Y2+D'1', 1
1046  69C6      	SETF FCM_parame_0005C_arg_FCL_ROUGE, 1
1048  6BC7      	CLRF FCM_parame_0005C_arg_FCL_VERT, 1
104A  6BC8      	CLRF FCM_parame_0005C_arg_FCL_BLEU, 1
104C  ECD4F001  	CALL FCM_parame_0005C
1050  0E20      	MOVLW 0x20
1052  0100      	MOVLB 0x00
1054  6FC0      	MOVWF CompTempVar2708, 1
1056  6FC1      	MOVWF CompTempVar2708+D'1', 1
1058  6FC2      	MOVWF CompTempVar2708+D'2', 1
105A  6FC3      	MOVWF CompTempVar2708+D'3', 1
105C  6FC4      	MOVWF CompTempVar2708+D'4', 1
105E  6FC5      	MOVWF CompTempVar2708+D'5', 1
1060  6FC6      	MOVWF CompTempVar2708+D'6', 1
1062  6FC7      	MOVWF CompTempVar2708+D'7', 1
1064  6FC8      	MOVWF CompTempVar2708+D'8', 1
1066  6FC9      	MOVWF CompTempVar2708+D'9', 1
1068  6FCA      	MOVWF CompTempVar2708+D'10', 1
106A  6FCB      	MOVWF CompTempVar2708+D'11', 1
106C  6FD2      	MOVWF CompTempVar2708+D'18', 1
106E  6FD3      	MOVWF CompTempVar2708+D'19', 1
1070  6FD4      	MOVWF CompTempVar2708+D'20', 1
1072  0E54      	MOVLW 0x54
1074  6FCC      	MOVWF CompTempVar2708+D'12', 1
1076  0E63      	MOVLW 0x63
1078  6FCF      	MOVWF CompTempVar2708+D'15', 1
107A  0E65      	MOVLW 0x65
107C  6FD1      	MOVWF CompTempVar2708+D'17', 1
107E  0E68      	MOVLW 0x68
1080  6FD0      	MOVWF CompTempVar2708+D'16', 1
1082  0E6F      	MOVLW 0x6F
1084  6FCD      	MOVWF CompTempVar2708+D'13', 1
1086  0E75      	MOVLW 0x75
1088  6FCE      	MOVWF CompTempVar2708+D'14', 1
108A  6BD5      	CLRF CompTempVar2708+D'21', 1
108C  0E00      	MOVLW HIGH(CompTempVar2708+D'0')
108E  6FBF      	MOVWF FCD_0f051__0005D_arg_FCL_STR+D'1', 1
1090  0EC0      	MOVLW LOW(CompTempVar2708+D'0')
1092  6FBE      	MOVWF FCD_0f051__0005D_arg_FCL_STR, 1
1094  0E16      	MOVLW 0x16
1096  6FF5      	MOVWF FCD_0f051__0005D_arg_FCLsz_STR, 1
1098  6BF6      	CLRF FCD_0f051__0005D_arg_FCLsz_STR+D'1', 1
109A  6BF7      	CLRF FCD_0f051__0005D_arg_FCL_X1, 1
109C  6BF8      	CLRF FCD_0f051__0005D_arg_FCL_X1+D'1', 1
109E  0EF1      	MOVLW 0xF1
10A0  6FF9      	MOVWF FCD_0f051__0005D_arg_FCL_Y1, 1
10A2  6BFA      	CLRF FCD_0f051__0005D_arg_FCL_Y1+D'1', 1
10A4  0E02      	MOVLW 0x02
10A6  6FFB      	MOVWF FCD_0f051__0005D_arg_FCL_FONT, 1
10A8  0E01      	MOVLW 0x01
10AA  6FFC      	MOVWF FCD_0f051__0005D_arg_FCL_T_0005E, 1
10AC  EC3FF003  	CALL FCD_0f051__0005D
10B0  EE00F005  	LFSR 0x00, gbl_FCV_TABLEAU
10B4  50E9      	MOVF FSR0L, W
10B6  0100      	MOVLB 0x00
10B8  51A6      	MOVF gbl_FCV_HITBOX, W, 1
10BA  26E9      	ADDWF FSR0L, F
10BC  6BB8      	CLRF CompTempVar2712, 1
10BE  2BB8      	INCF CompTempVar2712, F, 1
10C0  0E05      	MOVLW LOW(gbl_FCV_TABLEAU+D'0')
10C2  6EE9      	MOVWF FSR0L
10C4  51A6      	MOVF gbl_FCV_HITBOX, W, 1
10C6  26E9      	ADDWF FSR0L, F
10C8  51B8      	MOVF CompTempVar2712, W, 1
10CA  6EEF      	MOVWF INDF0
10CC  05AB      	DECF gbl_FCV_PORTE_AVION, W, 1
10CE  6FAB      	MOVWF gbl_FCV_PORTE_AVION, 1
10D0  0012      	RETURN
10D2            ; } FCM_Touche_coule_PA function end

	ORG 0x000010D2
10D2            FCM_Touche_0005B
10D2            ; { FCM_Touche_Coule_TORP ; function begin
10D2  0100      	MOVLB 0x00
10D4  518E      	MOVF gbl_FCV_X, W, 1
10D6  6FBE      	MOVWF FCM_parame_0005C_arg_FCL_POS_X1, 1
10D8  518F      	MOVF gbl_FCV_X+D'1', W, 1
10DA  6FBF      	MOVWF FCM_parame_0005C_arg_FCL_POS_X1+D'1', 1
10DC  0E18      	MOVLW 0x18
10DE  5D8E      	SUBWF gbl_FCV_X, W, 1
10E0  6FC0      	MOVWF FCM_parame_0005C_arg_FCL_POS_X2, 1
10E2  598E      	SUBWFB gbl_FCV_X, W, 1
10E4  0818      	SUBLW 0x18
10E6  5D8F      	SUBWF gbl_FCV_X+D'1', W, 1
10E8  6FC1      	MOVWF FCM_parame_0005C_arg_FCL_POS_X2+D'1', 1
10EA  518C      	MOVF gbl_FCV_Y, W, 1
10EC  6FC2      	MOVWF FCM_parame_0005C_arg_FCL_POS_Y1, 1
10EE  518D      	MOVF gbl_FCV_Y+D'1', W, 1
10F0  6FC3      	MOVWF FCM_parame_0005C_arg_FCL_POS_Y1+D'1', 1
10F2  0E18      	MOVLW 0x18
10F4  5D8C      	SUBWF gbl_FCV_Y, W, 1
10F6  6FC4      	MOVWF FCM_parame_0005C_arg_FCL_POS_Y2, 1
10F8  598C      	SUBWFB gbl_FCV_Y, W, 1
10FA  0818      	SUBLW 0x18
10FC  5D8D      	SUBWF gbl_FCV_Y+D'1', W, 1
10FE  6FC5      	MOVWF FCM_parame_0005C_arg_FCL_POS_Y2+D'1', 1
1100  69C6      	SETF FCM_parame_0005C_arg_FCL_ROUGE, 1
1102  6BC7      	CLRF FCM_parame_0005C_arg_FCL_VERT, 1
1104  6BC8      	CLRF FCM_parame_0005C_arg_FCL_BLEU, 1
1106  ECD4F001  	CALL FCM_parame_0005C
110A  0E20      	MOVLW 0x20
110C  0100      	MOVLB 0x00
110E  6FC0      	MOVWF CompTempVar2637, 1
1110  6FC1      	MOVWF CompTempVar2637+D'1', 1
1112  6FC2      	MOVWF CompTempVar2637+D'2', 1
1114  6FC3      	MOVWF CompTempVar2637+D'3', 1
1116  6FC4      	MOVWF CompTempVar2637+D'4', 1
1118  6FC5      	MOVWF CompTempVar2637+D'5', 1
111A  6FC6      	MOVWF CompTempVar2637+D'6', 1
111C  6FC7      	MOVWF CompTempVar2637+D'7', 1
111E  6FC8      	MOVWF CompTempVar2637+D'8', 1
1120  6FC9      	MOVWF CompTempVar2637+D'9', 1
1122  6FCA      	MOVWF CompTempVar2637+D'10', 1
1124  6FCB      	MOVWF CompTempVar2637+D'11', 1
1126  6FD2      	MOVWF CompTempVar2637+D'18', 1
1128  6FD3      	MOVWF CompTempVar2637+D'19', 1
112A  6FD4      	MOVWF CompTempVar2637+D'20', 1
112C  0E54      	MOVLW 0x54
112E  6FCC      	MOVWF CompTempVar2637+D'12', 1
1130  0E63      	MOVLW 0x63
1132  6FCF      	MOVWF CompTempVar2637+D'15', 1
1134  0E65      	MOVLW 0x65
1136  6FD1      	MOVWF CompTempVar2637+D'17', 1
1138  0E68      	MOVLW 0x68
113A  6FD0      	MOVWF CompTempVar2637+D'16', 1
113C  0E6F      	MOVLW 0x6F
113E  6FCD      	MOVWF CompTempVar2637+D'13', 1
1140  0E75      	MOVLW 0x75
1142  6FCE      	MOVWF CompTempVar2637+D'14', 1
1144  6BD5      	CLRF CompTempVar2637+D'21', 1
1146  0E00      	MOVLW HIGH(CompTempVar2637+D'0')
1148  6FBF      	MOVWF FCD_0f051__0005D_arg_FCL_STR+D'1', 1
114A  0EC0      	MOVLW LOW(CompTempVar2637+D'0')
114C  6FBE      	MOVWF FCD_0f051__0005D_arg_FCL_STR, 1
114E  0E16      	MOVLW 0x16
1150  6FF5      	MOVWF FCD_0f051__0005D_arg_FCLsz_STR, 1
1152  6BF6      	CLRF FCD_0f051__0005D_arg_FCLsz_STR+D'1', 1
1154  6BF7      	CLRF FCD_0f051__0005D_arg_FCL_X1, 1
1156  6BF8      	CLRF FCD_0f051__0005D_arg_FCL_X1+D'1', 1
1158  0EF1      	MOVLW 0xF1
115A  6FF9      	MOVWF FCD_0f051__0005D_arg_FCL_Y1, 1
115C  6BFA      	CLRF FCD_0f051__0005D_arg_FCL_Y1+D'1', 1
115E  0E02      	MOVLW 0x02
1160  6FFB      	MOVWF FCD_0f051__0005D_arg_FCL_FONT, 1
1162  0E01      	MOVLW 0x01
1164  6FFC      	MOVWF FCD_0f051__0005D_arg_FCL_T_0005E, 1
1166  EC3FF003  	CALL FCD_0f051__0005D
116A  EE00F005  	LFSR 0x00, gbl_FCV_TABLEAU
116E  50E9      	MOVF FSR0L, W
1170  0100      	MOVLB 0x00
1172  51A6      	MOVF gbl_FCV_HITBOX, W, 1
1174  26E9      	ADDWF FSR0L, F
1176  6BB8      	CLRF CompTempVar2641, 1
1178  2BB8      	INCF CompTempVar2641, F, 1
117A  0E05      	MOVLW LOW(gbl_FCV_TABLEAU+D'0')
117C  6EE9      	MOVWF FSR0L
117E  51A6      	MOVF gbl_FCV_HITBOX, W, 1
1180  26E9      	ADDWF FSR0L, F
1182  51B8      	MOVF CompTempVar2641, W, 1
1184  6EEF      	MOVWF INDF0
1186  05A4      	DECF gbl_FCV_TORPILLEUR, W, 1
1188  6FA4      	MOVWF gbl_FCV_TORPILLEUR, 1
118A  0012      	RETURN
118C            ; } FCM_Touche_Coule_TORP function end

	ORG 0x0000118C
118C            FCM_Torpil_00065
118C            ; { FCM_Torpilleur ; function begin
118C  0E01      	MOVLW 0x01
118E  0100      	MOVLB 0x00
1190  6FA6      	MOVWF gbl_FCV_HITBOX, 1
1192  0E18      	MOVLW 0x18
1194  6F8C      	MOVWF gbl_FCV_Y, 1
1196  6B8D      	CLRF gbl_FCV_Y+D'1', 1
1198  0E18      	MOVLW 0x18
119A  6F8E      	MOVWF gbl_FCV_X, 1
119C  6B8F      	CLRF gbl_FCV_X+D'1', 1
119E            label61
119E  0E01      	MOVLW 0x01
11A0  0100      	MOVLB 0x00
11A2  5D86      	SUBWF gbl_FCV_X_SORTIE, W, 1
11A4  E236      	BC	label69
11A6  6787      	TSTFSZ gbl_FCV_X_SORTIE+D'1', 1
11A8  D034      	BRA	label69
11AA  518D      	MOVF gbl_FCV_Y+D'1', W, 1
11AC  5D89      	SUBWF gbl_FCV_Y_TOUCH+D'1', W, 1
11AE  E102      	BNZ	label62
11B0  518C      	MOVF gbl_FCV_Y, W, 1
11B2  5D88      	SUBWF gbl_FCV_Y_TOUCH, W, 1
11B4            label62
11B4  E223      	BC	label68
11B6            label63
11B6  518F      	MOVF gbl_FCV_X+D'1', W, 1
11B8  5D91      	SUBWF gbl_FCV_X_TOUCH+D'1', W, 1
11BA  E102      	BNZ	label64
11BC  518E      	MOVF gbl_FCV_X, W, 1
11BE  5D90      	SUBWF gbl_FCV_X_TOUCH, W, 1
11C0            label64
11C0  E309      	BNC	label65
11C2  29A6      	INCF gbl_FCV_HITBOX, W, 1
11C4  6FA6      	MOVWF gbl_FCV_HITBOX, 1
11C6  6BBF      	CLRF CompTempVar2698, 1
11C8  0E18      	MOVLW 0x18
11CA  278E      	ADDWF gbl_FCV_X, F, 1
11CC  518F      	MOVF gbl_FCV_X+D'1', W, 1
11CE  23BF      	ADDWFC CompTempVar2698, F, 1
11D0  51BF      	MOVF CompTempVar2698, W, 1
11D2  6F8F      	MOVWF gbl_FCV_X+D'1', 1
11D4            label65
11D4  5386      	MOVF gbl_FCV_X_SORTIE, F, 1
11D6  5387      	MOVF gbl_FCV_X_SORTIE+D'1', F, 1
11D8  2B86      	INCF gbl_FCV_X_SORTIE, F, 1
11DA  B4D8      	BTFSC STATUS,Z
11DC  2B87      	INCF gbl_FCV_X_SORTIE+D'1', F, 1
11DE  6BBE      	CLRF CompTempVar2696, 1
11E0  518F      	MOVF gbl_FCV_X+D'1', W, 1
11E2  5D91      	SUBWF gbl_FCV_X_TOUCH+D'1', W, 1
11E4  E104      	BNZ	label66
11E6  518E      	MOVF gbl_FCV_X, W, 1
11E8  6190      	CPFSLT gbl_FCV_X_TOUCH, 1
11EA  D001      	BRA	label66
11EC  D001      	BRA	label67
11EE            label66
11EE  A0D8      	BTFSS STATUS,C
11F0            label67
11F0  71BE      	BTG CompTempVar2696,0, 1
11F2  53BE      	MOVF CompTempVar2696, F, 1
11F4  E0E0      	BZ	label63
11F6  EC3EF004  	CALL FCM_affich_00069
11FA  D7D1      	BRA	label61
11FC            label68
11FC  0E0A      	MOVLW 0x0A
11FE  25A6      	ADDWF gbl_FCV_HITBOX, W, 1
1200  6FA6      	MOVWF gbl_FCV_HITBOX, 1
1202  6BBE      	CLRF CompTempVar2702, 1
1204  0E18      	MOVLW 0x18
1206  278C      	ADDWF gbl_FCV_Y, F, 1
1208  518D      	MOVF gbl_FCV_Y+D'1', W, 1
120A  23BE      	ADDWFC CompTempVar2702, F, 1
120C  51BE      	MOVF CompTempVar2702, W, 1
120E  6F8D      	MOVWF gbl_FCV_Y+D'1', 1
1210  D7C6      	BRA	label61
1212            label69
1212  EE00F005  	LFSR 0x00, gbl_FCV_TABLEAU
1216  50E9      	MOVF FSR0L, W
1218  51A6      	MOVF gbl_FCV_HITBOX, W, 1
121A  26E9      	ADDWF FSR0L, F
121C  0E05      	MOVLW 0x05
121E  6EEF      	MOVWF INDF0
1220  29AA      	INCF gbl_FCV_BATEAU, W, 1
1222  6FAA      	MOVWF gbl_FCV_BATEAU, 1
1224  6B86      	CLRF gbl_FCV_X_SORTIE, 1
1226  6B87      	CLRF gbl_FCV_X_SORTIE+D'1', 1
1228  6BA8      	CLRF gbl_FCV_APPUI_ECRAN, 1
122A  6B8E      	CLRF gbl_FCV_X, 1
122C  6B8F      	CLRF gbl_FCV_X+D'1', 1
122E  6B8C      	CLRF gbl_FCV_Y, 1
1230  6B8D      	CLRF gbl_FCV_Y+D'1', 1
1232  29A4      	INCF gbl_FCV_TORPILLEUR, W, 1
1234  6FA4      	MOVWF gbl_FCV_TORPILLEUR, 1
1236  0012      	RETURN
1238            ; } FCM_Torpilleur function end

	ORG 0x00001238
1238            FCM_Sous_m_00064
1238            ; { FCM_Sous_marin ; function begin
1238  0E01      	MOVLW 0x01
123A  0100      	MOVLB 0x00
123C  6FA6      	MOVWF gbl_FCV_HITBOX, 1
123E  0E18      	MOVLW 0x18
1240  6F8C      	MOVWF gbl_FCV_Y, 1
1242  6B8D      	CLRF gbl_FCV_Y+D'1', 1
1244  0E18      	MOVLW 0x18
1246  6F8E      	MOVWF gbl_FCV_X, 1
1248  6B8F      	CLRF gbl_FCV_X+D'1', 1
124A            label70
124A  0E01      	MOVLW 0x01
124C  0100      	MOVLB 0x00
124E  5D86      	SUBWF gbl_FCV_X_SORTIE, W, 1
1250  E236      	BC	label78
1252  6787      	TSTFSZ gbl_FCV_X_SORTIE+D'1', 1
1254  D034      	BRA	label78
1256  518D      	MOVF gbl_FCV_Y+D'1', W, 1
1258  5D89      	SUBWF gbl_FCV_Y_TOUCH+D'1', W, 1
125A  E102      	BNZ	label71
125C  518C      	MOVF gbl_FCV_Y, W, 1
125E  5D88      	SUBWF gbl_FCV_Y_TOUCH, W, 1
1260            label71
1260  E223      	BC	label77
1262            label72
1262  518F      	MOVF gbl_FCV_X+D'1', W, 1
1264  5D91      	SUBWF gbl_FCV_X_TOUCH+D'1', W, 1
1266  E102      	BNZ	label73
1268  518E      	MOVF gbl_FCV_X, W, 1
126A  5D90      	SUBWF gbl_FCV_X_TOUCH, W, 1
126C            label73
126C  E309      	BNC	label74
126E  29A6      	INCF gbl_FCV_HITBOX, W, 1
1270  6FA6      	MOVWF gbl_FCV_HITBOX, 1
1272  6BBF      	CLRF CompTempVar2690, 1
1274  0E18      	MOVLW 0x18
1276  278E      	ADDWF gbl_FCV_X, F, 1
1278  518F      	MOVF gbl_FCV_X+D'1', W, 1
127A  23BF      	ADDWFC CompTempVar2690, F, 1
127C  51BF      	MOVF CompTempVar2690, W, 1
127E  6F8F      	MOVWF gbl_FCV_X+D'1', 1
1280            label74
1280  5386      	MOVF gbl_FCV_X_SORTIE, F, 1
1282  5387      	MOVF gbl_FCV_X_SORTIE+D'1', F, 1
1284  2B86      	INCF gbl_FCV_X_SORTIE, F, 1
1286  B4D8      	BTFSC STATUS,Z
1288  2B87      	INCF gbl_FCV_X_SORTIE+D'1', F, 1
128A  6BBE      	CLRF CompTempVar2688, 1
128C  518F      	MOVF gbl_FCV_X+D'1', W, 1
128E  5D91      	SUBWF gbl_FCV_X_TOUCH+D'1', W, 1
1290  E104      	BNZ	label75
1292  518E      	MOVF gbl_FCV_X, W, 1
1294  6190      	CPFSLT gbl_FCV_X_TOUCH, 1
1296  D001      	BRA	label75
1298  D001      	BRA	label76
129A            label75
129A  A0D8      	BTFSS STATUS,C
129C            label76
129C  71BE      	BTG CompTempVar2688,0, 1
129E  53BE      	MOVF CompTempVar2688, F, 1
12A0  E0E0      	BZ	label72
12A2  EC3EF004  	CALL FCM_affich_00069
12A6  D7D1      	BRA	label70
12A8            label77
12A8  0E0A      	MOVLW 0x0A
12AA  25A6      	ADDWF gbl_FCV_HITBOX, W, 1
12AC  6FA6      	MOVWF gbl_FCV_HITBOX, 1
12AE  6BBE      	CLRF CompTempVar2694, 1
12B0  0E18      	MOVLW 0x18
12B2  278C      	ADDWF gbl_FCV_Y, F, 1
12B4  518D      	MOVF gbl_FCV_Y+D'1', W, 1
12B6  23BE      	ADDWFC CompTempVar2694, F, 1
12B8  51BE      	MOVF CompTempVar2694, W, 1
12BA  6F8D      	MOVWF gbl_FCV_Y+D'1', 1
12BC  D7C6      	BRA	label70
12BE            label78
12BE  EE00F005  	LFSR 0x00, gbl_FCV_TABLEAU
12C2  50E9      	MOVF FSR0L, W
12C4  51A6      	MOVF gbl_FCV_HITBOX, W, 1
12C6  26E9      	ADDWF FSR0L, F
12C8  0E04      	MOVLW 0x04
12CA  6EEF      	MOVWF INDF0
12CC  29AA      	INCF gbl_FCV_BATEAU, W, 1
12CE  6FAA      	MOVWF gbl_FCV_BATEAU, 1
12D0  6B86      	CLRF gbl_FCV_X_SORTIE, 1
12D2  6B87      	CLRF gbl_FCV_X_SORTIE+D'1', 1
12D4  6BA8      	CLRF gbl_FCV_APPUI_ECRAN, 1
12D6  6B8E      	CLRF gbl_FCV_X, 1
12D8  6B8F      	CLRF gbl_FCV_X+D'1', 1
12DA  6B8C      	CLRF gbl_FCV_Y, 1
12DC  6B8D      	CLRF gbl_FCV_Y+D'1', 1
12DE  29A7      	INCF gbl_FCV_SOUS_MARIN, W, 1
12E0  6FA7      	MOVWF gbl_FCV_SOUS_MARIN, 1
12E2  0012      	RETURN
12E4            ; } FCM_Sous_marin function end

	ORG 0x000012E4
12E4            FCM_Porte__00061
12E4            ; { FCM_Porte_avion ; function begin
12E4  0E01      	MOVLW 0x01
12E6  0100      	MOVLB 0x00
12E8  6FA6      	MOVWF gbl_FCV_HITBOX, 1
12EA  0E18      	MOVLW 0x18
12EC  6F8C      	MOVWF gbl_FCV_Y, 1
12EE  6B8D      	CLRF gbl_FCV_Y+D'1', 1
12F0  0E18      	MOVLW 0x18
12F2  6F8E      	MOVWF gbl_FCV_X, 1
12F4  6B8F      	CLRF gbl_FCV_X+D'1', 1
12F6            label79
12F6  0E01      	MOVLW 0x01
12F8  0100      	MOVLB 0x00
12FA  5D86      	SUBWF gbl_FCV_X_SORTIE, W, 1
12FC  E236      	BC	label87
12FE  6787      	TSTFSZ gbl_FCV_X_SORTIE+D'1', 1
1300  D034      	BRA	label87
1302  518D      	MOVF gbl_FCV_Y+D'1', W, 1
1304  5D89      	SUBWF gbl_FCV_Y_TOUCH+D'1', W, 1
1306  E102      	BNZ	label80
1308  518C      	MOVF gbl_FCV_Y, W, 1
130A  5D88      	SUBWF gbl_FCV_Y_TOUCH, W, 1
130C            label80
130C  E223      	BC	label86
130E            label81
130E  518F      	MOVF gbl_FCV_X+D'1', W, 1
1310  5D91      	SUBWF gbl_FCV_X_TOUCH+D'1', W, 1
1312  E102      	BNZ	label82
1314  518E      	MOVF gbl_FCV_X, W, 1
1316  5D90      	SUBWF gbl_FCV_X_TOUCH, W, 1
1318            label82
1318  E309      	BNC	label83
131A  29A6      	INCF gbl_FCV_HITBOX, W, 1
131C  6FA6      	MOVWF gbl_FCV_HITBOX, 1
131E  6BBF      	CLRF CompTempVar2666, 1
1320  0E18      	MOVLW 0x18
1322  278E      	ADDWF gbl_FCV_X, F, 1
1324  518F      	MOVF gbl_FCV_X+D'1', W, 1
1326  23BF      	ADDWFC CompTempVar2666, F, 1
1328  51BF      	MOVF CompTempVar2666, W, 1
132A  6F8F      	MOVWF gbl_FCV_X+D'1', 1
132C            label83
132C  5386      	MOVF gbl_FCV_X_SORTIE, F, 1
132E  5387      	MOVF gbl_FCV_X_SORTIE+D'1', F, 1
1330  2B86      	INCF gbl_FCV_X_SORTIE, F, 1
1332  B4D8      	BTFSC STATUS,Z
1334  2B87      	INCF gbl_FCV_X_SORTIE+D'1', F, 1
1336  6BBE      	CLRF CompTempVar2664, 1
1338  518F      	MOVF gbl_FCV_X+D'1', W, 1
133A  5D91      	SUBWF gbl_FCV_X_TOUCH+D'1', W, 1
133C  E104      	BNZ	label84
133E  518E      	MOVF gbl_FCV_X, W, 1
1340  6190      	CPFSLT gbl_FCV_X_TOUCH, 1
1342  D001      	BRA	label84
1344  D001      	BRA	label85
1346            label84
1346  A0D8      	BTFSS STATUS,C
1348            label85
1348  71BE      	BTG CompTempVar2664,0, 1
134A  53BE      	MOVF CompTempVar2664, F, 1
134C  E0E0      	BZ	label81
134E  EC3EF004  	CALL FCM_affich_00069
1352  D7D1      	BRA	label79
1354            label86
1354  0E0A      	MOVLW 0x0A
1356  25A6      	ADDWF gbl_FCV_HITBOX, W, 1
1358  6FA6      	MOVWF gbl_FCV_HITBOX, 1
135A  6BBE      	CLRF CompTempVar2670, 1
135C  0E18      	MOVLW 0x18
135E  278C      	ADDWF gbl_FCV_Y, F, 1
1360  518D      	MOVF gbl_FCV_Y+D'1', W, 1
1362  23BE      	ADDWFC CompTempVar2670, F, 1
1364  51BE      	MOVF CompTempVar2670, W, 1
1366  6F8D      	MOVWF gbl_FCV_Y+D'1', 1
1368  D7C6      	BRA	label79
136A            label87
136A  EE00F005  	LFSR 0x00, gbl_FCV_TABLEAU
136E  50E9      	MOVF FSR0L, W
1370  51A6      	MOVF gbl_FCV_HITBOX, W, 1
1372  26E9      	ADDWF FSR0L, F
1374  0E01      	MOVLW 0x01
1376  6EEF      	MOVWF INDF0
1378  29AA      	INCF gbl_FCV_BATEAU, W, 1
137A  6FAA      	MOVWF gbl_FCV_BATEAU, 1
137C  6B86      	CLRF gbl_FCV_X_SORTIE, 1
137E  6B87      	CLRF gbl_FCV_X_SORTIE+D'1', 1
1380  6BA8      	CLRF gbl_FCV_APPUI_ECRAN, 1
1382  6B8E      	CLRF gbl_FCV_X, 1
1384  6B8F      	CLRF gbl_FCV_X+D'1', 1
1386  6B8C      	CLRF gbl_FCV_Y, 1
1388  6B8D      	CLRF gbl_FCV_Y+D'1', 1
138A  29AB      	INCF gbl_FCV_PORTE_AVION, W, 1
138C  6FAB      	MOVWF gbl_FCV_PORTE_AVION, 1
138E  0012      	RETURN
1390            ; } FCM_Porte_avion function end

	ORG 0x00001390
1390            FCM_Manque_00000
1390            ; { FCM_Manque ; function begin
1390  0100      	MOVLB 0x00
1392  518E      	MOVF gbl_FCV_X, W, 1
1394  6FBE      	MOVWF FCM_parame_0005C_arg_FCL_POS_X1, 1
1396  518F      	MOVF gbl_FCV_X+D'1', W, 1
1398  6FBF      	MOVWF FCM_parame_0005C_arg_FCL_POS_X1+D'1', 1
139A  0E18      	MOVLW 0x18
139C  5D8E      	SUBWF gbl_FCV_X, W, 1
139E  6FC0      	MOVWF FCM_parame_0005C_arg_FCL_POS_X2, 1
13A0  598E      	SUBWFB gbl_FCV_X, W, 1
13A2  0818      	SUBLW 0x18
13A4  5D8F      	SUBWF gbl_FCV_X+D'1', W, 1
13A6  6FC1      	MOVWF FCM_parame_0005C_arg_FCL_POS_X2+D'1', 1
13A8  518C      	MOVF gbl_FCV_Y, W, 1
13AA  6FC2      	MOVWF FCM_parame_0005C_arg_FCL_POS_Y1, 1
13AC  518D      	MOVF gbl_FCV_Y+D'1', W, 1
13AE  6FC3      	MOVWF FCM_parame_0005C_arg_FCL_POS_Y1+D'1', 1
13B0  0E18      	MOVLW 0x18
13B2  5D8C      	SUBWF gbl_FCV_Y, W, 1
13B4  6FC4      	MOVWF FCM_parame_0005C_arg_FCL_POS_Y2, 1
13B6  598C      	SUBWFB gbl_FCV_Y, W, 1
13B8  0818      	SUBLW 0x18
13BA  5D8D      	SUBWF gbl_FCV_Y+D'1', W, 1
13BC  6FC5      	MOVWF FCM_parame_0005C_arg_FCL_POS_Y2+D'1', 1
13BE  6BC6      	CLRF FCM_parame_0005C_arg_FCL_ROUGE, 1
13C0  6BC7      	CLRF FCM_parame_0005C_arg_FCL_VERT, 1
13C2  6BC8      	CLRF FCM_parame_0005C_arg_FCL_BLEU, 1
13C4  ECD4F001  	CALL FCM_parame_0005C
13C8  0E20      	MOVLW 0x20
13CA  0100      	MOVLB 0x00
13CC  6FC0      	MOVWF CompTempVar2828, 1
13CE  6FC1      	MOVWF CompTempVar2828+D'1', 1
13D0  6FC2      	MOVWF CompTempVar2828+D'2', 1
13D2  6FC3      	MOVWF CompTempVar2828+D'3', 1
13D4  6FC4      	MOVWF CompTempVar2828+D'4', 1
13D6  6FC5      	MOVWF CompTempVar2828+D'5', 1
13D8  6FC6      	MOVWF CompTempVar2828+D'6', 1
13DA  6FC7      	MOVWF CompTempVar2828+D'7', 1
13DC  6FC8      	MOVWF CompTempVar2828+D'8', 1
13DE  6FC9      	MOVWF CompTempVar2828+D'9', 1
13E0  6FCA      	MOVWF CompTempVar2828+D'10', 1
13E2  6FCB      	MOVWF CompTempVar2828+D'11', 1
13E4  6FD2      	MOVWF CompTempVar2828+D'18', 1
13E6  6FD3      	MOVWF CompTempVar2828+D'19', 1
13E8  6FD4      	MOVWF CompTempVar2828+D'20', 1
13EA  0E4D      	MOVLW 0x4D
13EC  6FCC      	MOVWF CompTempVar2828+D'12', 1
13EE  0E61      	MOVLW 0x61
13F0  6FCD      	MOVWF CompTempVar2828+D'13', 1
13F2  0E65      	MOVLW 0x65
13F4  6FD1      	MOVWF CompTempVar2828+D'17', 1
13F6  0E6E      	MOVLW 0x6E
13F8  6FCE      	MOVWF CompTempVar2828+D'14', 1
13FA  0E71      	MOVLW 0x71
13FC  6FCF      	MOVWF CompTempVar2828+D'15', 1
13FE  0E75      	MOVLW 0x75
1400  6FD0      	MOVWF CompTempVar2828+D'16', 1
1402  6BD5      	CLRF CompTempVar2828+D'21', 1
1404  0E00      	MOVLW HIGH(CompTempVar2828+D'0')
1406  6FBF      	MOVWF FCD_0f051__0005D_arg_FCL_STR+D'1', 1
1408  0EC0      	MOVLW LOW(CompTempVar2828+D'0')
140A  6FBE      	MOVWF FCD_0f051__0005D_arg_FCL_STR, 1
140C  0E16      	MOVLW 0x16
140E  6FF5      	MOVWF FCD_0f051__0005D_arg_FCLsz_STR, 1
1410  6BF6      	CLRF FCD_0f051__0005D_arg_FCLsz_STR+D'1', 1
1412  6BF7      	CLRF FCD_0f051__0005D_arg_FCL_X1, 1
1414  6BF8      	CLRF FCD_0f051__0005D_arg_FCL_X1+D'1', 1
1416  0EF1      	MOVLW 0xF1
1418  6FF9      	MOVWF FCD_0f051__0005D_arg_FCL_Y1, 1
141A  6BFA      	CLRF FCD_0f051__0005D_arg_FCL_Y1+D'1', 1
141C  0E02      	MOVLW 0x02
141E  6FFB      	MOVWF FCD_0f051__0005D_arg_FCL_FONT, 1
1420  0E01      	MOVLW 0x01
1422  6FFC      	MOVWF FCD_0f051__0005D_arg_FCL_T_0005E, 1
1424  EC3FF003  	CALL FCD_0f051__0005D
1428  0012      	RETURN
142A            ; } FCM_Manque function end

	ORG 0x0000142A
142A            FCM_Fin_Je_0007D
142A            ; { FCM_Fin_Jeu ; function begin
142A  0012      	RETURN
142C            ; } FCM_Fin_Jeu function end

	ORG 0x0000142C
142C            FCM_Croise_00062
142C            ; { FCM_Croiseur ; function begin
142C  0E01      	MOVLW 0x01
142E  0100      	MOVLB 0x00
1430  6FA6      	MOVWF gbl_FCV_HITBOX, 1
1432  0E18      	MOVLW 0x18
1434  6F8C      	MOVWF gbl_FCV_Y, 1
1436  6B8D      	CLRF gbl_FCV_Y+D'1', 1
1438  0E18      	MOVLW 0x18
143A  6F8E      	MOVWF gbl_FCV_X, 1
143C  6B8F      	CLRF gbl_FCV_X+D'1', 1
143E            label88
143E  0E01      	MOVLW 0x01
1440  0100      	MOVLB 0x00
1442  5D86      	SUBWF gbl_FCV_X_SORTIE, W, 1
1444  E236      	BC	label96
1446  6787      	TSTFSZ gbl_FCV_X_SORTIE+D'1', 1
1448  D034      	BRA	label96
144A  518D      	MOVF gbl_FCV_Y+D'1', W, 1
144C  5D89      	SUBWF gbl_FCV_Y_TOUCH+D'1', W, 1
144E  E102      	BNZ	label89
1450  518C      	MOVF gbl_FCV_Y, W, 1
1452  5D88      	SUBWF gbl_FCV_Y_TOUCH, W, 1
1454            label89
1454  E223      	BC	label95
1456            label90
1456  518F      	MOVF gbl_FCV_X+D'1', W, 1
1458  5D91      	SUBWF gbl_FCV_X_TOUCH+D'1', W, 1
145A  E102      	BNZ	label91
145C  518E      	MOVF gbl_FCV_X, W, 1
145E  5D90      	SUBWF gbl_FCV_X_TOUCH, W, 1
1460            label91
1460  E309      	BNC	label92
1462  29A6      	INCF gbl_FCV_HITBOX, W, 1
1464  6FA6      	MOVWF gbl_FCV_HITBOX, 1
1466  6BBF      	CLRF CompTempVar2674, 1
1468  0E18      	MOVLW 0x18
146A  278E      	ADDWF gbl_FCV_X, F, 1
146C  518F      	MOVF gbl_FCV_X+D'1', W, 1
146E  23BF      	ADDWFC CompTempVar2674, F, 1
1470  51BF      	MOVF CompTempVar2674, W, 1
1472  6F8F      	MOVWF gbl_FCV_X+D'1', 1
1474            label92
1474  5386      	MOVF gbl_FCV_X_SORTIE, F, 1
1476  5387      	MOVF gbl_FCV_X_SORTIE+D'1', F, 1
1478  2B86      	INCF gbl_FCV_X_SORTIE, F, 1
147A  B4D8      	BTFSC STATUS,Z
147C  2B87      	INCF gbl_FCV_X_SORTIE+D'1', F, 1
147E  6BBE      	CLRF CompTempVar2672, 1
1480  518F      	MOVF gbl_FCV_X+D'1', W, 1
1482  5D91      	SUBWF gbl_FCV_X_TOUCH+D'1', W, 1
1484  E104      	BNZ	label93
1486  518E      	MOVF gbl_FCV_X, W, 1
1488  6190      	CPFSLT gbl_FCV_X_TOUCH, 1
148A  D001      	BRA	label93
148C  D001      	BRA	label94
148E            label93
148E  A0D8      	BTFSS STATUS,C
1490            label94
1490  71BE      	BTG CompTempVar2672,0, 1
1492  53BE      	MOVF CompTempVar2672, F, 1
1494  E0E0      	BZ	label90
1496  EC3EF004  	CALL FCM_affich_00069
149A  D7D1      	BRA	label88
149C            label95
149C  0E0A      	MOVLW 0x0A
149E  25A6      	ADDWF gbl_FCV_HITBOX, W, 1
14A0  6FA6      	MOVWF gbl_FCV_HITBOX, 1
14A2  6BBE      	CLRF CompTempVar2678, 1
14A4  0E18      	MOVLW 0x18
14A6  278C      	ADDWF gbl_FCV_Y, F, 1
14A8  518D      	MOVF gbl_FCV_Y+D'1', W, 1
14AA  23BE      	ADDWFC CompTempVar2678, F, 1
14AC  51BE      	MOVF CompTempVar2678, W, 1
14AE  6F8D      	MOVWF gbl_FCV_Y+D'1', 1
14B0  D7C6      	BRA	label88
14B2            label96
14B2  EE00F005  	LFSR 0x00, gbl_FCV_TABLEAU
14B6  50E9      	MOVF FSR0L, W
14B8  51A6      	MOVF gbl_FCV_HITBOX, W, 1
14BA  26E9      	ADDWF FSR0L, F
14BC  0E02      	MOVLW 0x02
14BE  6EEF      	MOVWF INDF0
14C0  29AA      	INCF gbl_FCV_BATEAU, W, 1
14C2  6FAA      	MOVWF gbl_FCV_BATEAU, 1
14C4  6B86      	CLRF gbl_FCV_X_SORTIE, 1
14C6  6B87      	CLRF gbl_FCV_X_SORTIE+D'1', 1
14C8  6BA8      	CLRF gbl_FCV_APPUI_ECRAN, 1
14CA  6B8E      	CLRF gbl_FCV_X, 1
14CC  6B8F      	CLRF gbl_FCV_X+D'1', 1
14CE  6B8C      	CLRF gbl_FCV_Y, 1
14D0  6B8D      	CLRF gbl_FCV_Y+D'1', 1
14D2  29A3      	INCF gbl_FCV_CROISEUR, W, 1
14D4  6FA3      	MOVWF gbl_FCV_CROISEUR, 1
14D6  0012      	RETURN
14D8            ; } FCM_Croiseur function end

	ORG 0x000014D8
14D8            FCM_Contre_00063
14D8            ; { FCM_Contre_torpilleur ; function begin
14D8  0E01      	MOVLW 0x01
14DA  0100      	MOVLB 0x00
14DC  6FA6      	MOVWF gbl_FCV_HITBOX, 1
14DE  0E18      	MOVLW 0x18
14E0  6F8C      	MOVWF gbl_FCV_Y, 1
14E2  6B8D      	CLRF gbl_FCV_Y+D'1', 1
14E4  0E18      	MOVLW 0x18
14E6  6F8E      	MOVWF gbl_FCV_X, 1
14E8  6B8F      	CLRF gbl_FCV_X+D'1', 1
14EA            label97
14EA  0E01      	MOVLW 0x01
14EC  0100      	MOVLB 0x00
14EE  5D86      	SUBWF gbl_FCV_X_SORTIE, W, 1
14F0  E236      	BC	label105
14F2  6787      	TSTFSZ gbl_FCV_X_SORTIE+D'1', 1
14F4  D034      	BRA	label105
14F6  518D      	MOVF gbl_FCV_Y+D'1', W, 1
14F8  5D89      	SUBWF gbl_FCV_Y_TOUCH+D'1', W, 1
14FA  E102      	BNZ	label98
14FC  518C      	MOVF gbl_FCV_Y, W, 1
14FE  5D88      	SUBWF gbl_FCV_Y_TOUCH, W, 1
1500            label98
1500  E223      	BC	label104
1502            label99
1502  518F      	MOVF gbl_FCV_X+D'1', W, 1
1504  5D91      	SUBWF gbl_FCV_X_TOUCH+D'1', W, 1
1506  E102      	BNZ	label100
1508  518E      	MOVF gbl_FCV_X, W, 1
150A  5D90      	SUBWF gbl_FCV_X_TOUCH, W, 1
150C            label100
150C  E309      	BNC	label101
150E  29A6      	INCF gbl_FCV_HITBOX, W, 1
1510  6FA6      	MOVWF gbl_FCV_HITBOX, 1
1512  6BBF      	CLRF CompTempVar2682, 1
1514  0E18      	MOVLW 0x18
1516  278E      	ADDWF gbl_FCV_X, F, 1
1518  518F      	MOVF gbl_FCV_X+D'1', W, 1
151A  23BF      	ADDWFC CompTempVar2682, F, 1
151C  51BF      	MOVF CompTempVar2682, W, 1
151E  6F8F      	MOVWF gbl_FCV_X+D'1', 1
1520            label101
1520  5386      	MOVF gbl_FCV_X_SORTIE, F, 1
1522  5387      	MOVF gbl_FCV_X_SORTIE+D'1', F, 1
1524  2B86      	INCF gbl_FCV_X_SORTIE, F, 1
1526  B4D8      	BTFSC STATUS,Z
1528  2B87      	INCF gbl_FCV_X_SORTIE+D'1', F, 1
152A  6BBE      	CLRF CompTempVar2680, 1
152C  518F      	MOVF gbl_FCV_X+D'1', W, 1
152E  5D91      	SUBWF gbl_FCV_X_TOUCH+D'1', W, 1
1530  E104      	BNZ	label102
1532  518E      	MOVF gbl_FCV_X, W, 1
1534  6190      	CPFSLT gbl_FCV_X_TOUCH, 1
1536  D001      	BRA	label102
1538  D001      	BRA	label103
153A            label102
153A  A0D8      	BTFSS STATUS,C
153C            label103
153C  71BE      	BTG CompTempVar2680,0, 1
153E  53BE      	MOVF CompTempVar2680, F, 1
1540  E0E0      	BZ	label99
1542  EC3EF004  	CALL FCM_affich_00069
1546  D7D1      	BRA	label97
1548            label104
1548  0E0A      	MOVLW 0x0A
154A  25A6      	ADDWF gbl_FCV_HITBOX, W, 1
154C  6FA6      	MOVWF gbl_FCV_HITBOX, 1
154E  6BBE      	CLRF CompTempVar2686, 1
1550  0E18      	MOVLW 0x18
1552  278C      	ADDWF gbl_FCV_Y, F, 1
1554  518D      	MOVF gbl_FCV_Y+D'1', W, 1
1556  23BE      	ADDWFC CompTempVar2686, F, 1
1558  51BE      	MOVF CompTempVar2686, W, 1
155A  6F8D      	MOVWF gbl_FCV_Y+D'1', 1
155C  D7C6      	BRA	label97
155E            label105
155E  EE00F005  	LFSR 0x00, gbl_FCV_TABLEAU
1562  50E9      	MOVF FSR0L, W
1564  51A6      	MOVF gbl_FCV_HITBOX, W, 1
1566  26E9      	ADDWF FSR0L, F
1568  0E03      	MOVLW 0x03
156A  6EEF      	MOVWF INDF0
156C  29AA      	INCF gbl_FCV_BATEAU, W, 1
156E  6FAA      	MOVWF gbl_FCV_BATEAU, 1
1570  6B86      	CLRF gbl_FCV_X_SORTIE, 1
1572  6B87      	CLRF gbl_FCV_X_SORTIE+D'1', 1
1574  6BA8      	CLRF gbl_FCV_APPUI_ECRAN, 1
1576  6B8E      	CLRF gbl_FCV_X, 1
1578  6B8F      	CLRF gbl_FCV_X+D'1', 1
157A  6B8C      	CLRF gbl_FCV_Y, 1
157C  6B8D      	CLRF gbl_FCV_Y+D'1', 1
157E  29AD      	INCF gbl_FCV_CONTRE_TORPILLEUR, W, 1
1580  6FAD      	MOVWF gbl_FCV_CONTRE_TORPILLEUR, 1
1582  0012      	RETURN
1584            ; } FCM_Contre_torpilleur function end

	ORG 0x00001584
1584            FCM_Choix__00060
1584            ; { FCM_Choix_Bateaux ; function begin
1584  ECF2F001  	CALL FCM_Reinit_00070
1588  EC5CF004  	CALL FCM_Reinit_00071
158C  EC72F004  	CALL FCM_Messag_0006F
1590            label106
1590  0100      	MOVLB 0x00
1592  53A8      	MOVF gbl_FCV_APPUI_ECRAN, F, 1
1594  E103      	BNZ	label107
1596  EC6DF004  	CALL FCM_Recupe_00075
159A  D7FA      	BRA	label106
159C            label107
159C  EC18F006  	CALL FCM_Lectur_00067
15A0  0E64      	MOVLW 0x64
15A2  6FBE      	MOVWF delay_ms_00000_arg_del, 1
15A4  EC06F000  	CALL delay_ms_00000
15A8  0012      	RETURN
15AA            ; } FCM_Choix_Bateaux function end

	ORG 0x000015AA
15AA            FCD_0f051__0006C
15AA            ; { FCD_0f051_gLCD_EB076_4D1__Initialise ; function begin
15AA  0100      	MOVLB 0x00
15AC  6BBB      	CLRF FCD_0f051__0006C_2_ptmp, 1
15AE  9A94      	BCF gbl_trisc,5
15B0  53BB      	MOVF FCD_0f051__0006C_2_ptmp, F, 1
15B2  E004      	BZ	label108
15B4  0E20      	MOVLW 0x20
15B6  108B      	IORWF gbl_latc, W
15B8  6E82      	MOVWF gbl_portc
15BA  D003      	BRA	label109
15BC            label108
15BC  0EDF      	MOVLW 0xDF
15BE  148B      	ANDWF gbl_latc, W
15C0  6E82      	MOVWF gbl_portc
15C2            label109
15C2  ECD5F003  	CALL FC_CAL_UAR_00088
15C6  0E64      	MOVLW 0x64
15C8  6FBB      	MOVWF delay_us_00000_arg_del, 1
15CA  EC2EF000  	CALL delay_us_00000
15CE  0E0F      	MOVLW HIGH(gbl_portc+D'0')
15D0  6FBC      	MOVWF FC_CAL_Por_00042_arg_Port+D'1', 1
15D2  0E82      	MOVLW LOW(gbl_portc+D'0')
15D4  6FBB      	MOVWF FC_CAL_Por_00042_arg_Port, 1
15D6  0E0F      	MOVLW HIGH(gbl_trisc+D'0')
15D8  6FBE      	MOVWF FC_CAL_Por_00042_arg_Tris+D'1', 1
15DA  0E94      	MOVLW LOW(gbl_trisc+D'0')
15DC  6FBD      	MOVWF FC_CAL_Por_00042_arg_Tris, 1
15DE  0E20      	MOVLW 0x20
15E0  6FBF      	MOVWF FC_CAL_Por_00042_arg_InMask, 1
15E2  0E05      	MOVLW 0x05
15E4  6FC0      	MOVWF FC_CAL_Por_00042_arg_Shift, 1
15E6  EC26F004  	CALL FC_CAL_Por_00042
15EA  51C1      	MOVF CompTempVarRet1822, W, 1
15EC  6FBA      	MOVWF FCD_0f051__0006C_1_FCL_DUMMY, 1
15EE  0E03      	MOVLW 0x03
15F0  6FBB      	MOVWF delay_s_00000_arg_del, 1
15F2  EC33F000  	CALL delay_s_00000
15F6  6BFF      	CLRF FC_CAL_UAR_00086_arg_nTimeout, 1
15F8  EC50F000  	CALL FC_CAL_UAR_00086
15FC  0100      	MOVLB 0x00
15FE  6BFF      	CLRF FC_CAL_UAR_00086_arg_nTimeout, 1
1600  EC50F000  	CALL FC_CAL_UAR_00086
1604  0100      	MOVLB 0x00
1606  6BFF      	CLRF FC_CAL_UAR_00086_arg_nTimeout, 1
1608  EC50F000  	CALL FC_CAL_UAR_00086
160C  0E55      	MOVLW 0x55
160E  6F00      	MOVWF FC_CAL_UAR_00087_arg_nChar, 1
1610  6B01      	CLRF FC_CAL_UAR_00087_arg_nChar+D'1', 1
1612  EC46F000  	CALL FC_CAL_UAR_00087
1616  0100      	MOVLB 0x00
1618  69FF      	SETF FC_CAL_UAR_00086_arg_nTimeout, 1
161A  EC50F000  	CALL FC_CAL_UAR_00086
161E  0E51      	MOVLW 0x51
1620  6F00      	MOVWF FC_CAL_UAR_00087_arg_nChar, 1
1622  6B01      	CLRF FC_CAL_UAR_00087_arg_nChar+D'1', 1
1624  EC46F000  	CALL FC_CAL_UAR_00087
1628  0E0C      	MOVLW 0x0C
162A  6F00      	MOVWF FC_CAL_UAR_00087_arg_nChar, 1
162C  6B01      	CLRF FC_CAL_UAR_00087_arg_nChar+D'1', 1
162E  EC46F000  	CALL FC_CAL_UAR_00087
1632  0100      	MOVLB 0x00
1634  69FF      	SETF FC_CAL_UAR_00086_arg_nTimeout, 1
1636  EC50F000  	CALL FC_CAL_UAR_00086
163A  0E06      	MOVLW 0x06
163C  0100      	MOVLB 0x00
163E  6FBB      	MOVWF FC_CAL_UAR_00084_arg_new_baud, 1
1640  ECDEF003  	CALL FC_CAL_UAR_00084
1644  0E0A      	MOVLW 0x0A
1646  6FFF      	MOVWF FC_CAL_UAR_00086_arg_nTimeout, 1
1648  EC50F000  	CALL FC_CAL_UAR_00086
164C  0E0A      	MOVLW 0x0A
164E  0100      	MOVLB 0x00
1650  6FFF      	MOVWF FC_CAL_UAR_00086_arg_nTimeout, 1
1652  EC50F000  	CALL FC_CAL_UAR_00086
1656  0100      	MOVLB 0x00
1658  6BB7      	CLRF FCD_0f051__0006C_1_FCL_RED, 1
165A  33B7      	RRCF FCD_0f051__0006C_1_FCL_RED, F, 1
165C  33B7      	RRCF FCD_0f051__0006C_1_FCL_RED, F, 1
165E  33B7      	RRCF FCD_0f051__0006C_1_FCL_RED, F, 1
1660  0E1F      	MOVLW 0x1F
1662  17B7      	ANDWF FCD_0f051__0006C_1_FCL_RED, F, 1
1664  6BB8      	CLRF FCD_0f051__0006C_1_FCL_GREEN, 1
1666  33B8      	RRCF FCD_0f051__0006C_1_FCL_GREEN, F, 1
1668  33B8      	RRCF FCD_0f051__0006C_1_FCL_GREEN, F, 1
166A  0E3F      	MOVLW 0x3F
166C  17B8      	ANDWF FCD_0f051__0006C_1_FCL_GREEN, F, 1
166E  6BB9      	CLRF FCD_0f051__0006C_1_FCL_BLUE, 1
1670  33B9      	RRCF FCD_0f051__0006C_1_FCL_BLUE, F, 1
1672  33B9      	RRCF FCD_0f051__0006C_1_FCL_BLUE, F, 1
1674  33B9      	RRCF FCD_0f051__0006C_1_FCL_BLUE, F, 1
1676  0E1F      	MOVLW 0x1F
1678  17B9      	ANDWF FCD_0f051__0006C_1_FCL_BLUE, F, 1
167A  51B8      	MOVF FCD_0f051__0006C_1_FCL_GREEN, W, 1
167C  6FBB      	MOVWF CompTempVar2742, 1
167E  6B95      	CLRF gbl_FCV_0f051_gLCD_EB076_4_0000D+D'1', 1
1680  37BB      	RLCF CompTempVar2742, F, 1
1682  3795      	RLCF gbl_FCV_0f051_gLCD_EB076_4_0000D+D'1', F, 1
1684  37BB      	RLCF CompTempVar2742, F, 1
1686  3795      	RLCF gbl_FCV_0f051_gLCD_EB076_4_0000D+D'1', F, 1
1688  37BB      	RLCF CompTempVar2742, F, 1
168A  3795      	RLCF gbl_FCV_0f051_gLCD_EB076_4_0000D+D'1', F, 1
168C  37BB      	RLCF CompTempVar2742, F, 1
168E  3795      	RLCF gbl_FCV_0f051_gLCD_EB076_4_0000D+D'1', F, 1
1690  37BB      	RLCF CompTempVar2742, F, 1
1692  3795      	RLCF gbl_FCV_0f051_gLCD_EB076_4_0000D+D'1', F, 1
1694  0EE0      	MOVLW 0xE0
1696  17BB      	ANDWF CompTempVar2742, F, 1
1698  51BB      	MOVF CompTempVar2742, W, 1
169A  11B9      	IORWF FCD_0f051__0006C_1_FCL_BLUE, W, 1
169C  6F94      	MOVWF gbl_FCV_0f051_gLCD_EB076_4_0000D, 1
169E  6BBB      	CLRF CompTempVar2746, 1
16A0  51B7      	MOVF FCD_0f051__0006C_1_FCL_RED, W, 1
16A2  6FBC      	MOVWF CompTempVar2747, 1
16A4  90D8      	BCF STATUS,C
16A6  37BC      	RLCF CompTempVar2747, F, 1
16A8  90D8      	BCF STATUS,C
16AA  37BC      	RLCF CompTempVar2747, F, 1
16AC  90D8      	BCF STATUS,C
16AE  37BC      	RLCF CompTempVar2747, F, 1
16B0  51BB      	MOVF CompTempVar2746, W, 1
16B2  1394      	IORWF gbl_FCV_0f051_gLCD_EB076_4_0000D, F, 1
16B4  51BC      	MOVF CompTempVar2747, W, 1
16B6  1395      	IORWF gbl_FCV_0f051_gLCD_EB076_4_0000D+D'1', F, 1
16B8  69B7      	SETF FCD_0f051__0006C_1_FCL_RED, 1
16BA  33B7      	RRCF FCD_0f051__0006C_1_FCL_RED, F, 1
16BC  33B7      	RRCF FCD_0f051__0006C_1_FCL_RED, F, 1
16BE  33B7      	RRCF FCD_0f051__0006C_1_FCL_RED, F, 1
16C0  0E1F      	MOVLW 0x1F
16C2  17B7      	ANDWF FCD_0f051__0006C_1_FCL_RED, F, 1
16C4  69B8      	SETF FCD_0f051__0006C_1_FCL_GREEN, 1
16C6  33B8      	RRCF FCD_0f051__0006C_1_FCL_GREEN, F, 1
16C8  33B8      	RRCF FCD_0f051__0006C_1_FCL_GREEN, F, 1
16CA  0E3F      	MOVLW 0x3F
16CC  17B8      	ANDWF FCD_0f051__0006C_1_FCL_GREEN, F, 1
16CE  69B9      	SETF FCD_0f051__0006C_1_FCL_BLUE, 1
16D0  33B9      	RRCF FCD_0f051__0006C_1_FCL_BLUE, F, 1
16D2  33B9      	RRCF FCD_0f051__0006C_1_FCL_BLUE, F, 1
16D4  33B9      	RRCF FCD_0f051__0006C_1_FCL_BLUE, F, 1
16D6  0E1F      	MOVLW 0x1F
16D8  17B9      	ANDWF FCD_0f051__0006C_1_FCL_BLUE, F, 1
16DA  51B8      	MOVF FCD_0f051__0006C_1_FCL_GREEN, W, 1
16DC  6FBB      	MOVWF CompTempVar2753, 1
16DE  6B93      	CLRF gbl_FCV_0f051_gLCD_EB076_4_0000C+D'1', 1
16E0  37BB      	RLCF CompTempVar2753, F, 1
16E2  3793      	RLCF gbl_FCV_0f051_gLCD_EB076_4_0000C+D'1', F, 1
16E4  37BB      	RLCF CompTempVar2753, F, 1
16E6  3793      	RLCF gbl_FCV_0f051_gLCD_EB076_4_0000C+D'1', F, 1
16E8  37BB      	RLCF CompTempVar2753, F, 1
16EA  3793      	RLCF gbl_FCV_0f051_gLCD_EB076_4_0000C+D'1', F, 1
16EC  37BB      	RLCF CompTempVar2753, F, 1
16EE  3793      	RLCF gbl_FCV_0f051_gLCD_EB076_4_0000C+D'1', F, 1
16F0  37BB      	RLCF CompTempVar2753, F, 1
16F2  3793      	RLCF gbl_FCV_0f051_gLCD_EB076_4_0000C+D'1', F, 1
16F4  0EE0      	MOVLW 0xE0
16F6  17BB      	ANDWF CompTempVar2753, F, 1
16F8  51BB      	MOVF CompTempVar2753, W, 1
16FA  11B9      	IORWF FCD_0f051__0006C_1_FCL_BLUE, W, 1
16FC  6F92      	MOVWF gbl_FCV_0f051_gLCD_EB076_4_0000C, 1
16FE  6BBB      	CLRF CompTempVar2757, 1
1700  51B7      	MOVF FCD_0f051__0006C_1_FCL_RED, W, 1
1702  6FBC      	MOVWF CompTempVar2758, 1
1704  90D8      	BCF STATUS,C
1706  37BC      	RLCF CompTempVar2758, F, 1
1708  90D8      	BCF STATUS,C
170A  37BC      	RLCF CompTempVar2758, F, 1
170C  90D8      	BCF STATUS,C
170E  37BC      	RLCF CompTempVar2758, F, 1
1710  51BB      	MOVF CompTempVar2757, W, 1
1712  1392      	IORWF gbl_FCV_0f051_gLCD_EB076_4_0000C, F, 1
1714  51BC      	MOVF CompTempVar2758, W, 1
1716  1393      	IORWF gbl_FCV_0f051_gLCD_EB076_4_0000C+D'1', F, 1
1718  EC91F006  	CALL FCD_0f051__0006D
171C  0E0A      	MOVLW 0x0A
171E  0100      	MOVLB 0x00
1720  6FFF      	MOVWF FC_CAL_UAR_00086_arg_nTimeout, 1
1722  EC50F000  	CALL FC_CAL_UAR_00086
1726  0E0A      	MOVLW 0x0A
1728  0100      	MOVLB 0x00
172A  6FFF      	MOVWF FC_CAL_UAR_00086_arg_nTimeout, 1
172C  EC50F000  	CALL FC_CAL_UAR_00086
1730  0012      	RETURN
1732            ; } FCD_0f051_gLCD_EB076_4D1__Initialise function end

	ORG 0x00001732
1732            FCM_phase__00081
1732            ; { FCM_phase_jeu ; function begin
1732  0E01      	MOVLW 0x01
1734  0100      	MOVLB 0x00
1736  6FA6      	MOVWF gbl_FCV_HITBOX, 1
1738  0E18      	MOVLW 0x18
173A  6F8C      	MOVWF gbl_FCV_Y, 1
173C  6B8D      	CLRF gbl_FCV_Y+D'1', 1
173E  0E18      	MOVLW 0x18
1740  6F8E      	MOVWF gbl_FCV_X, 1
1742  6B8F      	CLRF gbl_FCV_X+D'1', 1
1744            label110
1744  0E01      	MOVLW 0x01
1746  5D86      	SUBWF gbl_FCV_X_SORTIE, W, 1
1748  E234      	BC	label118
174A  6787      	TSTFSZ gbl_FCV_X_SORTIE+D'1', 1
174C  D032      	BRA	label118
174E  518D      	MOVF gbl_FCV_Y+D'1', W, 1
1750  5D89      	SUBWF gbl_FCV_Y_TOUCH+D'1', W, 1
1752  E102      	BNZ	label111
1754  518C      	MOVF gbl_FCV_Y, W, 1
1756  5D88      	SUBWF gbl_FCV_Y_TOUCH, W, 1
1758            label111
1758  E221      	BC	label117
175A            label112
175A  518F      	MOVF gbl_FCV_X+D'1', W, 1
175C  5D91      	SUBWF gbl_FCV_X_TOUCH+D'1', W, 1
175E  E102      	BNZ	label113
1760  518E      	MOVF gbl_FCV_X, W, 1
1762  5D90      	SUBWF gbl_FCV_X_TOUCH, W, 1
1764            label113
1764  E309      	BNC	label114
1766  29A6      	INCF gbl_FCV_HITBOX, W, 1
1768  6FA6      	MOVWF gbl_FCV_HITBOX, 1
176A  6BB9      	CLRF CompTempVar2859, 1
176C  0E18      	MOVLW 0x18
176E  278E      	ADDWF gbl_FCV_X, F, 1
1770  518F      	MOVF gbl_FCV_X+D'1', W, 1
1772  23B9      	ADDWFC CompTempVar2859, F, 1
1774  51B9      	MOVF CompTempVar2859, W, 1
1776  6F8F      	MOVWF gbl_FCV_X+D'1', 1
1778            label114
1778  5386      	MOVF gbl_FCV_X_SORTIE, F, 1
177A  5387      	MOVF gbl_FCV_X_SORTIE+D'1', F, 1
177C  2B86      	INCF gbl_FCV_X_SORTIE, F, 1
177E  B4D8      	BTFSC STATUS,Z
1780  2B87      	INCF gbl_FCV_X_SORTIE+D'1', F, 1
1782  6BB8      	CLRF CompTempVar2857, 1
1784  518F      	MOVF gbl_FCV_X+D'1', W, 1
1786  5D91      	SUBWF gbl_FCV_X_TOUCH+D'1', W, 1
1788  E104      	BNZ	label115
178A  518E      	MOVF gbl_FCV_X, W, 1
178C  6190      	CPFSLT gbl_FCV_X_TOUCH, 1
178E  D001      	BRA	label115
1790  D001      	BRA	label116
1792            label115
1792  A0D8      	BTFSS STATUS,C
1794            label116
1794  71B8      	BTG CompTempVar2857,0, 1
1796  53B8      	MOVF CompTempVar2857, F, 1
1798  E0E0      	BZ	label112
179A  D7D4      	BRA	label110
179C            label117
179C  0E0A      	MOVLW 0x0A
179E  25A6      	ADDWF gbl_FCV_HITBOX, W, 1
17A0  6FA6      	MOVWF gbl_FCV_HITBOX, 1
17A2  6BB8      	CLRF CompTempVar2863, 1
17A4  0E18      	MOVLW 0x18
17A6  278C      	ADDWF gbl_FCV_Y, F, 1
17A8  518D      	MOVF gbl_FCV_Y+D'1', W, 1
17AA  23B8      	ADDWFC CompTempVar2863, F, 1
17AC  51B8      	MOVF CompTempVar2863, W, 1
17AE  6F8D      	MOVWF gbl_FCV_Y+D'1', 1
17B0  D7C9      	BRA	label110
17B2            label118
17B2  EE00F005  	LFSR 0x00, gbl_FCV_TABLEAU
17B6  50E9      	MOVF FSR0L, W
17B8  51A6      	MOVF gbl_FCV_HITBOX, W, 1
17BA  26E9      	ADDWF FSR0L, F
17BC  04EF      	DECF INDF0, W
17BE  E139      	BNZ	label119
17C0  EC0CF008  	CALL FCM_Touche_00066
17C4  53AB      	MOVF gbl_FCV_PORTE_AVION, F, 1
17C6  A4D8      	BTFSS STATUS,Z
17C8  D128      	BRA	label124
17CA  ECF2F001  	CALL FCM_Reinit_00070
17CE  0E64      	MOVLW 0x64
17D0  6FBE      	MOVWF delay_ms_00000_arg_del, 1
17D2  EC06F000  	CALL delay_ms_00000
17D6  0E20      	MOVLW 0x20
17D8  6FC0      	MOVWF CompTempVar2864, 1
17DA  6FC1      	MOVWF CompTempVar2864+D'1', 1
17DC  6FC2      	MOVWF CompTempVar2864+D'2', 1
17DE  6FC3      	MOVWF CompTempVar2864+D'3', 1
17E0  6FC4      	MOVWF CompTempVar2864+D'4', 1
17E2  6FC5      	MOVWF CompTempVar2864+D'5', 1
17E4  6FC6      	MOVWF CompTempVar2864+D'6', 1
17E6  6FC7      	MOVWF CompTempVar2864+D'7', 1
17E8  6FC8      	MOVWF CompTempVar2864+D'8', 1
17EA  6FC9      	MOVWF CompTempVar2864+D'9', 1
17EC  6FCA      	MOVWF CompTempVar2864+D'10', 1
17EE  6FCB      	MOVWF CompTempVar2864+D'11', 1
17F0  6FD1      	MOVWF CompTempVar2864+D'17', 1
17F2  6FD2      	MOVWF CompTempVar2864+D'18', 1
17F4  6FD3      	MOVWF CompTempVar2864+D'19', 1
17F6  0E43      	MOVLW 0x43
17F8  6FCC      	MOVWF CompTempVar2864+D'12', 1
17FA  0E65      	MOVLW 0x65
17FC  6FD0      	MOVWF CompTempVar2864+D'16', 1
17FE  0E6C      	MOVLW 0x6C
1800  6FCF      	MOVWF CompTempVar2864+D'15', 1
1802  0E6F      	MOVLW 0x6F
1804  6FCD      	MOVWF CompTempVar2864+D'13', 1
1806  0E75      	MOVLW 0x75
1808  6FCE      	MOVWF CompTempVar2864+D'14', 1
180A  6BD4      	CLRF CompTempVar2864+D'20', 1
180C  0E00      	MOVLW HIGH(CompTempVar2864+D'0')
180E  6FBF      	MOVWF FCD_0f051__0005D_arg_FCL_STR+D'1', 1
1810  0EC0      	MOVLW LOW(CompTempVar2864+D'0')
1812  6FBE      	MOVWF FCD_0f051__0005D_arg_FCL_STR, 1
1814  0E15      	MOVLW 0x15
1816  6FF5      	MOVWF FCD_0f051__0005D_arg_FCLsz_STR, 1
1818  6BF6      	CLRF FCD_0f051__0005D_arg_FCLsz_STR+D'1', 1
181A  6BF7      	CLRF FCD_0f051__0005D_arg_FCL_X1, 1
181C  6BF8      	CLRF FCD_0f051__0005D_arg_FCL_X1+D'1', 1
181E  0EF1      	MOVLW 0xF1
1820  6FF9      	MOVWF FCD_0f051__0005D_arg_FCL_Y1, 1
1822  6BFA      	CLRF FCD_0f051__0005D_arg_FCL_Y1+D'1', 1
1824  0E02      	MOVLW 0x02
1826  6FFB      	MOVWF FCD_0f051__0005D_arg_FCL_FONT, 1
1828  0E01      	MOVLW 0x01
182A  6FFC      	MOVWF FCD_0f051__0005D_arg_FCL_T_0005E, 1
182C  EC3FF003  	CALL FCD_0f051__0005D
1830  D0F4      	BRA	label124
1832            label119
1832  EE00F005  	LFSR 0x00, gbl_FCV_TABLEAU
1836  50E9      	MOVF FSR0L, W
1838  51A6      	MOVF gbl_FCV_HITBOX, W, 1
183A  26E9      	ADDWF FSR0L, F
183C  0E02      	MOVLW 0x02
183E  62EF      	CPFSEQ INDF0
1840  D039      	BRA	label120
1842  EC02F007  	CALL FCM_Touche_00080
1846  53A3      	MOVF gbl_FCV_CROISEUR, F, 1
1848  A4D8      	BTFSS STATUS,Z
184A  D0E7      	BRA	label124
184C  ECF2F001  	CALL FCM_Reinit_00070
1850  0E64      	MOVLW 0x64
1852  6FBE      	MOVWF delay_ms_00000_arg_del, 1
1854  EC06F000  	CALL delay_ms_00000
1858  0E20      	MOVLW 0x20
185A  6FC0      	MOVWF CompTempVar2867, 1
185C  6FC1      	MOVWF CompTempVar2867+D'1', 1
185E  6FC2      	MOVWF CompTempVar2867+D'2', 1
1860  6FC3      	MOVWF CompTempVar2867+D'3', 1
1862  6FC4      	MOVWF CompTempVar2867+D'4', 1
1864  6FC5      	MOVWF CompTempVar2867+D'5', 1
1866  6FC6      	MOVWF CompTempVar2867+D'6', 1
1868  6FC7      	MOVWF CompTempVar2867+D'7', 1
186A  6FC8      	MOVWF CompTempVar2867+D'8', 1
186C  6FC9      	MOVWF CompTempVar2867+D'9', 1
186E  6FCA      	MOVWF CompTempVar2867+D'10', 1
1870  6FCB      	MOVWF CompTempVar2867+D'11', 1
1872  6FD1      	MOVWF CompTempVar2867+D'17', 1
1874  6FD2      	MOVWF CompTempVar2867+D'18', 1
1876  6FD3      	MOVWF CompTempVar2867+D'19', 1
1878  0E43      	MOVLW 0x43
187A  6FCC      	MOVWF CompTempVar2867+D'12', 1
187C  0E65      	MOVLW 0x65
187E  6FD0      	MOVWF CompTempVar2867+D'16', 1
1880  0E6C      	MOVLW 0x6C
1882  6FCF      	MOVWF CompTempVar2867+D'15', 1
1884  0E6F      	MOVLW 0x6F
1886  6FCD      	MOVWF CompTempVar2867+D'13', 1
1888  0E75      	MOVLW 0x75
188A  6FCE      	MOVWF CompTempVar2867+D'14', 1
188C  6BD4      	CLRF CompTempVar2867+D'20', 1
188E  0E00      	MOVLW HIGH(CompTempVar2867+D'0')
1890  6FBF      	MOVWF FCD_0f051__0005D_arg_FCL_STR+D'1', 1
1892  0EC0      	MOVLW LOW(CompTempVar2867+D'0')
1894  6FBE      	MOVWF FCD_0f051__0005D_arg_FCL_STR, 1
1896  0E15      	MOVLW 0x15
1898  6FF5      	MOVWF FCD_0f051__0005D_arg_FCLsz_STR, 1
189A  6BF6      	CLRF FCD_0f051__0005D_arg_FCLsz_STR+D'1', 1
189C  6BF7      	CLRF FCD_0f051__0005D_arg_FCL_X1, 1
189E  6BF8      	CLRF FCD_0f051__0005D_arg_FCL_X1+D'1', 1
18A0  0EF1      	MOVLW 0xF1
18A2  6FF9      	MOVWF FCD_0f051__0005D_arg_FCL_Y1, 1
18A4  6BFA      	CLRF FCD_0f051__0005D_arg_FCL_Y1+D'1', 1
18A6  0E02      	MOVLW 0x02
18A8  6FFB      	MOVWF FCD_0f051__0005D_arg_FCL_FONT, 1
18AA  0E01      	MOVLW 0x01
18AC  6FFC      	MOVWF FCD_0f051__0005D_arg_FCL_T_0005E, 1
18AE  EC3FF003  	CALL FCD_0f051__0005D
18B2  D0B3      	BRA	label124
18B4            label120
18B4  EE00F005  	LFSR 0x00, gbl_FCV_TABLEAU
18B8  50E9      	MOVF FSR0L, W
18BA  51A6      	MOVF gbl_FCV_HITBOX, W, 1
18BC  26E9      	ADDWF FSR0L, F
18BE  0E03      	MOVLW 0x03
18C0  62EF      	CPFSEQ INDF0
18C2  D039      	BRA	label121
18C4  EC5FF007  	CALL FCM_Touche_0007E
18C8  53AD      	MOVF gbl_FCV_CONTRE_TORPILLEUR, F, 1
18CA  A4D8      	BTFSS STATUS,Z
18CC  D0A6      	BRA	label124
18CE  ECF2F001  	CALL FCM_Reinit_00070
18D2  0E64      	MOVLW 0x64
18D4  6FBE      	MOVWF delay_ms_00000_arg_del, 1
18D6  EC06F000  	CALL delay_ms_00000
18DA  0E20      	MOVLW 0x20
18DC  6FC0      	MOVWF CompTempVar2870, 1
18DE  6FC1      	MOVWF CompTempVar2870+D'1', 1
18E0  6FC2      	MOVWF CompTempVar2870+D'2', 1
18E2  6FC3      	MOVWF CompTempVar2870+D'3', 1
18E4  6FC4      	MOVWF CompTempVar2870+D'4', 1
18E6  6FC5      	MOVWF CompTempVar2870+D'5', 1
18E8  6FC6      	MOVWF CompTempVar2870+D'6', 1
18EA  6FC7      	MOVWF CompTempVar2870+D'7', 1
18EC  6FC8      	MOVWF CompTempVar2870+D'8', 1
18EE  6FC9      	MOVWF CompTempVar2870+D'9', 1
18F0  6FCA      	MOVWF CompTempVar2870+D'10', 1
18F2  6FCB      	MOVWF CompTempVar2870+D'11', 1
18F4  6FD1      	MOVWF CompTempVar2870+D'17', 1
18F6  6FD2      	MOVWF CompTempVar2870+D'18', 1
18F8  6FD3      	MOVWF CompTempVar2870+D'19', 1
18FA  0E43      	MOVLW 0x43
18FC  6FCC      	MOVWF CompTempVar2870+D'12', 1
18FE  0E65      	MOVLW 0x65
1900  6FD0      	MOVWF CompTempVar2870+D'16', 1
1902  0E6C      	MOVLW 0x6C
1904  6FCF      	MOVWF CompTempVar2870+D'15', 1
1906  0E6F      	MOVLW 0x6F
1908  6FCD      	MOVWF CompTempVar2870+D'13', 1
190A  0E75      	MOVLW 0x75
190C  6FCE      	MOVWF CompTempVar2870+D'14', 1
190E  6BD4      	CLRF CompTempVar2870+D'20', 1
1910  0E00      	MOVLW HIGH(CompTempVar2870+D'0')
1912  6FBF      	MOVWF FCD_0f051__0005D_arg_FCL_STR+D'1', 1
1914  0EC0      	MOVLW LOW(CompTempVar2870+D'0')
1916  6FBE      	MOVWF FCD_0f051__0005D_arg_FCL_STR, 1
1918  0E15      	MOVLW 0x15
191A  6FF5      	MOVWF FCD_0f051__0005D_arg_FCLsz_STR, 1
191C  6BF6      	CLRF FCD_0f051__0005D_arg_FCLsz_STR+D'1', 1
191E  6BF7      	CLRF FCD_0f051__0005D_arg_FCL_X1, 1
1920  6BF8      	CLRF FCD_0f051__0005D_arg_FCL_X1+D'1', 1
1922  0EF1      	MOVLW 0xF1
1924  6FF9      	MOVWF FCD_0f051__0005D_arg_FCL_Y1, 1
1926  6BFA      	CLRF FCD_0f051__0005D_arg_FCL_Y1+D'1', 1
1928  0E02      	MOVLW 0x02
192A  6FFB      	MOVWF FCD_0f051__0005D_arg_FCL_FONT, 1
192C  0E01      	MOVLW 0x01
192E  6FFC      	MOVWF FCD_0f051__0005D_arg_FCL_T_0005E, 1
1930  EC3FF003  	CALL FCD_0f051__0005D
1934  D072      	BRA	label124
1936            label121
1936  EE00F005  	LFSR 0x00, gbl_FCV_TABLEAU
193A  50E9      	MOVF FSR0L, W
193C  51A6      	MOVF gbl_FCV_HITBOX, W, 1
193E  26E9      	ADDWF FSR0L, F
1940  0E04      	MOVLW 0x04
1942  62EF      	CPFSEQ INDF0
1944  D038      	BRA	label122
1946  ECAFF007  	CALL FCM_Touche_0006A
194A  53A7      	MOVF gbl_FCV_SOUS_MARIN, F, 1
194C  E166      	BNZ	label124
194E  ECF2F001  	CALL FCM_Reinit_00070
1952  0E64      	MOVLW 0x64
1954  6FBE      	MOVWF delay_ms_00000_arg_del, 1
1956  EC06F000  	CALL delay_ms_00000
195A  0E20      	MOVLW 0x20
195C  6FC0      	MOVWF CompTempVar2873, 1
195E  6FC1      	MOVWF CompTempVar2873+D'1', 1
1960  6FC2      	MOVWF CompTempVar2873+D'2', 1
1962  6FC3      	MOVWF CompTempVar2873+D'3', 1
1964  6FC4      	MOVWF CompTempVar2873+D'4', 1
1966  6FC5      	MOVWF CompTempVar2873+D'5', 1
1968  6FC6      	MOVWF CompTempVar2873+D'6', 1
196A  6FC7      	MOVWF CompTempVar2873+D'7', 1
196C  6FC8      	MOVWF CompTempVar2873+D'8', 1
196E  6FC9      	MOVWF CompTempVar2873+D'9', 1
1970  6FCA      	MOVWF CompTempVar2873+D'10', 1
1972  6FCB      	MOVWF CompTempVar2873+D'11', 1
1974  6FD1      	MOVWF CompTempVar2873+D'17', 1
1976  6FD2      	MOVWF CompTempVar2873+D'18', 1
1978  6FD3      	MOVWF CompTempVar2873+D'19', 1
197A  0E43      	MOVLW 0x43
197C  6FCC      	MOVWF CompTempVar2873+D'12', 1
197E  0E65      	MOVLW 0x65
1980  6FD0      	MOVWF CompTempVar2873+D'16', 1
1982  0E6C      	MOVLW 0x6C
1984  6FCF      	MOVWF CompTempVar2873+D'15', 1
1986  0E6F      	MOVLW 0x6F
1988  6FCD      	MOVWF CompTempVar2873+D'13', 1
198A  0E75      	MOVLW 0x75
198C  6FCE      	MOVWF CompTempVar2873+D'14', 1
198E  6BD4      	CLRF CompTempVar2873+D'20', 1
1990  0E00      	MOVLW HIGH(CompTempVar2873+D'0')
1992  6FBF      	MOVWF FCD_0f051__0005D_arg_FCL_STR+D'1', 1
1994  0EC0      	MOVLW LOW(CompTempVar2873+D'0')
1996  6FBE      	MOVWF FCD_0f051__0005D_arg_FCL_STR, 1
1998  0E15      	MOVLW 0x15
199A  6FF5      	MOVWF FCD_0f051__0005D_arg_FCLsz_STR, 1
199C  6BF6      	CLRF FCD_0f051__0005D_arg_FCLsz_STR+D'1', 1
199E  6BF7      	CLRF FCD_0f051__0005D_arg_FCL_X1, 1
19A0  6BF8      	CLRF FCD_0f051__0005D_arg_FCL_X1+D'1', 1
19A2  0EF1      	MOVLW 0xF1
19A4  6FF9      	MOVWF FCD_0f051__0005D_arg_FCL_Y1, 1
19A6  6BFA      	CLRF FCD_0f051__0005D_arg_FCL_Y1+D'1', 1
19A8  0E02      	MOVLW 0x02
19AA  6FFB      	MOVWF FCD_0f051__0005D_arg_FCL_FONT, 1
19AC  0E01      	MOVLW 0x01
19AE  6FFC      	MOVWF FCD_0f051__0005D_arg_FCL_T_0005E, 1
19B0  EC3FF003  	CALL FCD_0f051__0005D
19B4  D032      	BRA	label124
19B6            label122
19B6  EE00F005  	LFSR 0x00, gbl_FCV_TABLEAU
19BA  50E9      	MOVF FSR0L, W
19BC  51A6      	MOVF gbl_FCV_HITBOX, W, 1
19BE  26E9      	ADDWF FSR0L, F
19C0  0E05      	MOVLW 0x05
19C2  62EF      	CPFSEQ INDF0
19C4  D028      	BRA	label123
19C6  EC69F008  	CALL FCM_Touche_0005B
19CA  53A4      	MOVF gbl_FCV_TORPILLEUR, F, 1
19CC  E126      	BNZ	label124
19CE  ECF2F001  	CALL FCM_Reinit_00070
19D2  0E64      	MOVLW 0x64
19D4  6FBE      	MOVWF delay_ms_00000_arg_del, 1
19D6  EC06F000  	CALL delay_ms_00000
19DA  0E43      	MOVLW 0x43
19DC  6FC0      	MOVWF CompTempVar2876, 1
19DE  0E6F      	MOVLW 0x6F
19E0  6FC1      	MOVWF CompTempVar2876+D'1', 1
19E2  0E75      	MOVLW 0x75
19E4  6FC2      	MOVWF CompTempVar2876+D'2', 1
19E6  0E6C      	MOVLW 0x6C
19E8  6FC3      	MOVWF CompTempVar2876+D'3', 1
19EA  0E65      	MOVLW 0x65
19EC  6FC4      	MOVWF CompTempVar2876+D'4', 1
19EE  6BC5      	CLRF CompTempVar2876+D'5', 1
19F0  0E00      	MOVLW HIGH(CompTempVar2876+D'0')
19F2  6FBF      	MOVWF FCD_0f051__0005D_arg_FCL_STR+D'1', 1
19F4  0EC0      	MOVLW LOW(CompTempVar2876+D'0')
19F6  6FBE      	MOVWF FCD_0f051__0005D_arg_FCL_STR, 1
19F8  0E06      	MOVLW 0x06
19FA  6FF5      	MOVWF FCD_0f051__0005D_arg_FCLsz_STR, 1
19FC  6BF6      	CLRF FCD_0f051__0005D_arg_FCLsz_STR+D'1', 1
19FE  6BF7      	CLRF FCD_0f051__0005D_arg_FCL_X1, 1
1A00  6BF8      	CLRF FCD_0f051__0005D_arg_FCL_X1+D'1', 1
1A02  0EF1      	MOVLW 0xF1
1A04  6FF9      	MOVWF FCD_0f051__0005D_arg_FCL_Y1, 1
1A06  6BFA      	CLRF FCD_0f051__0005D_arg_FCL_Y1+D'1', 1
1A08  0E02      	MOVLW 0x02
1A0A  6FFB      	MOVWF FCD_0f051__0005D_arg_FCL_FONT, 1
1A0C  0E01      	MOVLW 0x01
1A0E  6FFC      	MOVWF FCD_0f051__0005D_arg_FCL_T_0005E, 1
1A10  EC3FF003  	CALL FCD_0f051__0005D
1A14  D002      	BRA	label124
1A16            label123
1A16  ECC8F009  	CALL FCM_Manque_00000
1A1A            label124
1A1A  0100      	MOVLB 0x00
1A1C  6B86      	CLRF gbl_FCV_X_SORTIE, 1
1A1E  6B87      	CLRF gbl_FCV_X_SORTIE+D'1', 1
1A20  6B8E      	CLRF gbl_FCV_X, 1
1A22  6B8F      	CLRF gbl_FCV_X+D'1', 1
1A24  6B8C      	CLRF gbl_FCV_Y, 1
1A26  6B8D      	CLRF gbl_FCV_Y+D'1', 1
1A28  51A3      	MOVF gbl_FCV_CROISEUR, W, 1
1A2A  15A4      	ANDWF gbl_FCV_TORPILLEUR, W, 1
1A2C  6FB7      	MOVWF CompTempVar2856, 1
1A2E  51AB      	MOVF gbl_FCV_PORTE_AVION, W, 1
1A30  17B7      	ANDWF CompTempVar2856, F, 1
1A32  51AD      	MOVF gbl_FCV_CONTRE_TORPILLEUR, W, 1
1A34  17B7      	ANDWF CompTempVar2856, F, 1
1A36  51A7      	MOVF gbl_FCV_SOUS_MARIN, W, 1
1A38  17B7      	ANDWF CompTempVar2856, F, 1
1A3A  53B7      	MOVF CompTempVar2856, F, 1
1A3C  B4D8      	BTFSC STATUS,Z
1A3E  EC15F00A  	CALL FCM_Fin_Je_0007D
1A42  0E64      	MOVLW 0x64
1A44  6FBE      	MOVWF delay_ms_00000_arg_del, 1
1A46  EC06F000  	CALL delay_ms_00000
1A4A  0012      	RETURN
1A4C            ; } FCM_phase_jeu function end

	ORG 0x00001A4C
1A4C            FCM_Initia_0006B
1A4C            ; { FCM_Initialisation ; function begin
1A4C            label125
1A4C  EE00F005  	LFSR 0x00, gbl_FCV_TABLEAU
1A50  50E9      	MOVF FSR0L, W
1A52  0100      	MOVLB 0x00
1A54  51A6      	MOVF gbl_FCV_HITBOX, W, 1
1A56  26E9      	ADDWF FSR0L, F
1A58  0E00      	MOVLW 0x00
1A5A  6EEF      	MOVWF INDF0
1A5C  29A6      	INCF gbl_FCV_HITBOX, W, 1
1A5E  6FA6      	MOVWF gbl_FCV_HITBOX, 1
1A60  6BB7      	CLRF CompTempVar2729, 1
1A62  0E65      	MOVLW 0x65
1A64  63A6      	CPFSEQ gbl_FCV_HITBOX, 1
1A66  D001      	BRA	label126
1A68  2BB7      	INCF CompTempVar2729, F, 1
1A6A            label126
1A6A  53B7      	MOVF CompTempVar2729, F, 1
1A6C  E0EF      	BZ	label125
1A6E  EE00F005  	LFSR 0x00, gbl_FCV_TABLEAU
1A72  50E9      	MOVF FSR0L, W
1A74  51A6      	MOVF gbl_FCV_HITBOX, W, 1
1A76  6FB7      	MOVWF CompTempVar2733, 1
1A78  51B7      	MOVF CompTempVar2733, W, 1
1A7A  26E9      	ADDWF FSR0L, F
1A7C  50EF      	MOVF INDF0, W
1A7E  6FB8      	MOVWF CompTempVar2734, 1
1A80  0E05      	MOVLW LOW(gbl_FCV_TABLEAU+D'0')
1A82  6EE9      	MOVWF FSR0L
1A84  51AC      	MOVF gbl_FCV_JOUEUR1, W, 1
1A86  26E9      	ADDWF FSR0L, F
1A88  51B8      	MOVF CompTempVar2734, W, 1
1A8A  6EEF      	MOVWF INDF0
1A8C  ECD5F00A  	CALL FCD_0f051__0006C
1A90  EC91F006  	CALL FCD_0f051__0006D
1A94  ECBBF006  	CALL FCM_lignes_00000
1A98  6BBE      	CLRF FCD_0f051__0006E_arg_FCL_X1, 1
1A9A  6BBF      	CLRF FCD_0f051__0006E_arg_FCL_X1+D'1', 1
1A9C  6BC0      	CLRF FCD_0f051__0006E_arg_FCL_Y1, 1
1A9E  6BC1      	CLRF FCD_0f051__0006E_arg_FCL_Y1+D'1', 1
1AA0  0EF0      	MOVLW 0xF0
1AA2  6FC2      	MOVWF FCD_0f051__0006E_arg_FCL_X2, 1
1AA4  6BC3      	CLRF FCD_0f051__0006E_arg_FCL_X2+D'1', 1
1AA6  0EF0      	MOVLW 0xF0
1AA8  6FC4      	MOVWF FCD_0f051__0006E_arg_FCL_Y2, 1
1AAA  6BC5      	CLRF FCD_0f051__0006E_arg_FCL_Y2+D'1', 1
1AAC  ECC4F002  	CALL FCD_0f051__0006E
1AB0  0012      	RETURN
1AB2            ; } FCM_Initialisation function end

	ORG 0x00001AB2
1AB2            FCM_Hitbox_0005F
1AB2            ; { FCM_Hitbox_v2 ; function begin
1AB2            label127
1AB2  0100      	MOVLB 0x00
1AB4  6BB8      	CLRF CompTempVar2654, 1
1AB6  0E05      	MOVLW 0x05
1AB8  63AB      	CPFSEQ gbl_FCV_PORTE_AVION, 1
1ABA  D001      	BRA	label128
1ABC  2BB8      	INCF CompTempVar2654, F, 1
1ABE            label128
1ABE  67B8      	TSTFSZ CompTempVar2654, 1
1AC0  D008      	BRA	label129
1AC2  0E05      	MOVLW 0x05
1AC4  61AB      	CPFSLT gbl_FCV_PORTE_AVION, 1
1AC6  D7F5      	BRA	label127
1AC8  ECC2F00A  	CALL FCM_Choix__00060
1ACC  EC72F009  	CALL FCM_Porte__00061
1AD0  D7F0      	BRA	label127
1AD2            label129
1AD2  6BB9      	CLRF CompTempVar2656, 1
1AD4  0E04      	MOVLW 0x04
1AD6  63A3      	CPFSEQ gbl_FCV_CROISEUR, 1
1AD8  D001      	BRA	label130
1ADA  2BB9      	INCF CompTempVar2656, F, 1
1ADC            label130
1ADC  67B9      	TSTFSZ CompTempVar2656, 1
1ADE  D008      	BRA	label131
1AE0  0E05      	MOVLW 0x05
1AE2  63AB      	CPFSEQ gbl_FCV_PORTE_AVION, 1
1AE4  D7F6      	BRA	label129
1AE6  ECC2F00A  	CALL FCM_Choix__00060
1AEA  EC16F00A  	CALL FCM_Croise_00062
1AEE  D7F1      	BRA	label129
1AF0            label131
1AF0  6BBA      	CLRF CompTempVar2658, 1
1AF2  0E03      	MOVLW 0x03
1AF4  63AD      	CPFSEQ gbl_FCV_CONTRE_TORPILLEUR, 1
1AF6  D001      	BRA	label132
1AF8  2BBA      	INCF CompTempVar2658, F, 1
1AFA            label132
1AFA  67BA      	TSTFSZ CompTempVar2658, 1
1AFC  D005      	BRA	label133
1AFE  ECC2F00A  	CALL FCM_Choix__00060
1B02  EC6CF00A  	CALL FCM_Contre_00063
1B06  D7F4      	BRA	label131
1B08            label133
1B08  6BBB      	CLRF CompTempVar2660, 1
1B0A  0E03      	MOVLW 0x03
1B0C  63A7      	CPFSEQ gbl_FCV_SOUS_MARIN, 1
1B0E  D001      	BRA	label134
1B10  2BBB      	INCF CompTempVar2660, F, 1
1B12            label134
1B12  67BB      	TSTFSZ CompTempVar2660, 1
1B14  D005      	BRA	label135
1B16  ECC2F00A  	CALL FCM_Choix__00060
1B1A  EC1CF009  	CALL FCM_Sous_m_00064
1B1E  D7F4      	BRA	label133
1B20            label135
1B20  6BBC      	CLRF CompTempVar2662, 1
1B22  0E02      	MOVLW 0x02
1B24  63A4      	CPFSEQ gbl_FCV_TORPILLEUR, 1
1B26  D001      	BRA	label136
1B28  2BBC      	INCF CompTempVar2662, F, 1
1B2A            label136
1B2A  67BC      	TSTFSZ CompTempVar2662, 1
1B2C  D005      	BRA	label137
1B2E  ECC2F00A  	CALL FCM_Choix__00060
1B32  ECC6F008  	CALL FCM_Torpil_00065
1B36  D7F4      	BRA	label135
1B38            label137
1B38  6BBD      	CLRF CompTempVar2663, 1
1B3A  2BBD      	INCF CompTempVar2663, F, 1
1B3C  67A8      	TSTFSZ gbl_FCV_APPUI_ECRAN, 1
1B3E  91BD      	BCF CompTempVar2663,0, 1
1B40  53BD      	MOVF CompTempVar2663, F, 1
1B42  E0B7      	BZ	label127
1B44  0012      	RETURN
1B46            ; } FCM_Hitbox_v2 function end

	ORG 0x00001B46
1B46            FCM_Choix__00074
1B46            ; { FCM_Choix_Bateau_Toucher ; function begin
1B46  ECF2F001  	CALL FCM_Reinit_00070
1B4A  EC5CF004  	CALL FCM_Reinit_00071
1B4E            label138
1B4E  53A8      	MOVF gbl_FCV_APPUI_ECRAN, F, 1
1B50  E103      	BNZ	label139
1B52  EC6DF004  	CALL FCM_Recupe_00075
1B56  D7FB      	BRA	label138
1B58            label139
1B58  EC18F006  	CALL FCM_Lectur_00067
1B5C  0E64      	MOVLW 0x64
1B5E  6FBE      	MOVWF delay_ms_00000_arg_del, 1
1B60  EC06F000  	CALL delay_ms_00000
1B64  0012      	RETURN
1B66            ; } FCM_Choix_Bateau_Toucher function end

	ORG 0x00001B66
1B66            FCI_DELAYI_00046
1B66            ; { FCI_DELAYINT_MS ; function begin
1B66            label140
1B66  0EFF      	MOVLW 0xFF
1B68  65B7      	CPFSGT FCI_DELAYI_00046_arg_Delay, 1
1B6A  67B8      	TSTFSZ FCI_DELAYI_00046_arg_Delay+D'1', 1
1B6C  D001      	BRA	label141
1B6E  D00C      	BRA	label142
1B70            label141
1B70  69BE      	SETF delay_ms_00000_arg_del, 1
1B72  EC06F000  	CALL delay_ms_00000
1B76  0EFF      	MOVLW 0xFF
1B78  5DB7      	SUBWF FCI_DELAYI_00046_arg_Delay, W, 1
1B7A  6FB9      	MOVWF CompTempVar1838, 1
1B7C  59B7      	SUBWFB FCI_DELAYI_00046_arg_Delay, W, 1
1B7E  08FF      	SUBLW 0xFF
1B80  5FB8      	SUBWF FCI_DELAYI_00046_arg_Delay+D'1', F, 1
1B82  51B9      	MOVF CompTempVar1838, W, 1
1B84  6FB7      	MOVWF FCI_DELAYI_00046_arg_Delay, 1
1B86  D7EF      	BRA	label140
1B88            label142
1B88  0E00      	MOVLW 0x00
1B8A  65B7      	CPFSGT FCI_DELAYI_00046_arg_Delay, 1
1B8C  67B8      	TSTFSZ FCI_DELAYI_00046_arg_Delay+D'1', 1
1B8E  D001      	BRA	label143
1B90  0012      	RETURN
1B92            label143
1B92  51B7      	MOVF FCI_DELAYI_00046_arg_Delay, W, 1
1B94  6FBE      	MOVWF delay_ms_00000_arg_del, 1
1B96  EC06F000  	CALL delay_ms_00000
1B9A  0012      	RETURN
1B9C            ; } FCI_DELAYINT_MS function end

	ORG 0x00001B9C
1B9C            main
1B9C            ; { main ; function begin
1B9C  0E0F      	MOVLW 0x0F
1B9E  6EC1      	MOVWF gbl_adcon1
1BA0  EC26F00D  	CALL FCM_Initia_0006B
1BA4            label144
1BA4  ECF2F001  	CALL FCM_Reinit_00070
1BA8  EC5CF004  	CALL FCM_Reinit_00071
1BAC  EC72F004  	CALL FCM_Messag_0006F
1BB0            label145
1BB0  0100      	MOVLB 0x00
1BB2  53A8      	MOVF gbl_FCV_APPUI_ECRAN, F, 1
1BB4  E103      	BNZ	label146
1BB6  EC6DF004  	CALL FCM_Recupe_00075
1BBA  D7FA      	BRA	label145
1BBC            label146
1BBC  EC18F006  	CALL FCM_Lectur_00067
1BC0  EC59F00D  	CALL FCM_Hitbox_0005F
1BC4  0E64      	MOVLW 0x64
1BC6  6FBE      	MOVWF delay_ms_00000_arg_del, 1
1BC8  EC06F000  	CALL delay_ms_00000
1BCC  6BB7      	CLRF CompTempVar3136, 1
1BCE  0E11      	MOVLW 0x11
1BD0  61AA      	CPFSLT gbl_FCV_BATEAU, 1
1BD2  2BB7      	INCF CompTempVar3136, F, 1
1BD4  53B7      	MOVF CompTempVar3136, F, 1
1BD6  E0E6      	BZ	label144
1BD8  ECF2F001  	CALL FCM_Reinit_00070
1BDC  0E20      	MOVLW 0x20
1BDE  6FC0      	MOVWF CompTempVar3137, 1
1BE0  6FC1      	MOVWF CompTempVar3137+D'1', 1
1BE2  6FC2      	MOVWF CompTempVar3137+D'2', 1
1BE4  6FC3      	MOVWF CompTempVar3137+D'3', 1
1BE6  6FC6      	MOVWF CompTempVar3137+D'6', 1
1BE8  6FCE      	MOVWF CompTempVar3137+D'14', 1
1BEA  6FD1      	MOVWF CompTempVar3137+D'17', 1
1BEC  6FD8      	MOVWF CompTempVar3137+D'24', 1
1BEE  6FDA      	MOVWF CompTempVar3137+D'26', 1
1BF0  0E32      	MOVLW 0x32
1BF2  6FD9      	MOVWF CompTempVar3137+D'25', 1
1BF4  0E45      	MOVLW 0x45
1BF6  6FC4      	MOVWF CompTempVar3137+D'4', 1
1BF8  0E61      	MOVLW 0x61
1BFA  6FC7      	MOVWF CompTempVar3137+D'7', 1
1BFC  0E64      	MOVLW 0x64
1BFE  6FCF      	MOVWF CompTempVar3137+D'15', 1
1C00  0E65      	MOVLW 0x65
1C02  6FCA      	MOVWF CompTempVar3137+D'10', 1
1C04  6FCD      	MOVWF CompTempVar3137+D'13', 1
1C06  6FD5      	MOVWF CompTempVar3137+D'21', 1
1C08  0E6A      	MOVLW 0x6A
1C0A  6FD2      	MOVWF CompTempVar3137+D'18', 1
1C0C  0E6E      	MOVLW 0x6E
1C0E  6FC5      	MOVWF CompTempVar3137+D'5', 1
1C10  6FCB      	MOVWF CompTempVar3137+D'11', 1
1C12  0E6F      	MOVLW 0x6F
1C14  6FD3      	MOVWF CompTempVar3137+D'19', 1
1C16  0E72      	MOVLW 0x72
1C18  6FD7      	MOVWF CompTempVar3137+D'23', 1
1C1A  0E74      	MOVLW 0x74
1C1C  6FC8      	MOVWF CompTempVar3137+D'8', 1
1C1E  6FC9      	MOVWF CompTempVar3137+D'9', 1
1C20  6FCC      	MOVWF CompTempVar3137+D'12', 1
1C22  0E75      	MOVLW 0x75
1C24  6FD0      	MOVWF CompTempVar3137+D'16', 1
1C26  6FD4      	MOVWF CompTempVar3137+D'20', 1
1C28  6FD6      	MOVWF CompTempVar3137+D'22', 1
1C2A  6BDB      	CLRF CompTempVar3137+D'27', 1
1C2C  0E00      	MOVLW HIGH(CompTempVar3137+D'0')
1C2E  6FBF      	MOVWF FCD_0f051__0005D_arg_FCL_STR+D'1', 1
1C30  0EC0      	MOVLW LOW(CompTempVar3137+D'0')
1C32  6FBE      	MOVWF FCD_0f051__0005D_arg_FCL_STR, 1
1C34  0E1C      	MOVLW 0x1C
1C36  6FF5      	MOVWF FCD_0f051__0005D_arg_FCLsz_STR, 1
1C38  6BF6      	CLRF FCD_0f051__0005D_arg_FCLsz_STR+D'1', 1
1C3A  6BF7      	CLRF FCD_0f051__0005D_arg_FCL_X1, 1
1C3C  6BF8      	CLRF FCD_0f051__0005D_arg_FCL_X1+D'1', 1
1C3E  0EF1      	MOVLW 0xF1
1C40  6FF9      	MOVWF FCD_0f051__0005D_arg_FCL_Y1, 1
1C42  6BFA      	CLRF FCD_0f051__0005D_arg_FCL_Y1+D'1', 1
1C44  0E02      	MOVLW 0x02
1C46  6FFB      	MOVWF FCD_0f051__0005D_arg_FCL_FONT, 1
1C48  0E01      	MOVLW 0x01
1C4A  6FFC      	MOVWF FCD_0f051__0005D_arg_FCL_T_0005E, 1
1C4C  EC3FF003  	CALL FCD_0f051__0005D
1C50  0E02      	MOVLW 0x02
1C52  0100      	MOVLB 0x00
1C54  6FBB      	MOVWF delay_s_00000_arg_del, 1
1C56  EC33F000  	CALL delay_s_00000
1C5A            label147
1C5A  ECA3F00D  	CALL FCM_Choix__00074
1C5E  EC99F00B  	CALL FCM_phase__00081
1C62  6BA8      	CLRF gbl_FCV_APPUI_ECRAN, 1
1C64  0EF4      	MOVLW 0xF4
1C66  6FB7      	MOVWF FCI_DELAYI_00046_arg_Delay, 1
1C68  0E01      	MOVLW 0x01
1C6A  6FB8      	MOVWF FCI_DELAYI_00046_arg_Delay+D'1', 1
1C6C  ECB3F00D  	CALL FCI_DELAYI_00046
1C70  D7F4      	BRA	label147
1C72            ; } main function end

	ORG 0x00001C72
1C72            _startup
1C72  0ED5      	MOVLW 0xD5
1C74  6E6A      	MOVWF gbl_14_LSR
1C76  0EC4      	MOVLW 0xC4
1C78  6E6B      	MOVWF gbl_14_LSR+D'1'
1C7A  0EBB      	MOVLW 0xBB
1C7C  6E6C      	MOVWF gbl_14_LSR+D'2'
1C7E  0EDC      	MOVLW 0xDC
1C80  6E6D      	MOVWF gbl_14_LSR+D'3'
1C82  6A6E      	CLRF gbl_15_gbl_aSig
1C84  6A6F      	CLRF gbl_15_gbl_aSig+D'1'
1C86  6A70      	CLRF gbl_15_gbl_aSig+D'2'
1C88  6A71      	CLRF gbl_15_gbl_aSig+D'3'
1C8A  6A72      	CLRF gbl_15_gbl_bSig
1C8C  6A73      	CLRF gbl_15_gbl_bSig+D'1'
1C8E  6A74      	CLRF gbl_15_gbl_bSig+D'2'
1C90  6A75      	CLRF gbl_15_gbl_bSig+D'3'
1C92  6A76      	CLRF gbl_15_gbl_zSig
1C94  6A77      	CLRF gbl_15_gbl_zSig+D'1'
1C96  6A78      	CLRF gbl_15_gbl_zSig+D'2'
1C98  6A79      	CLRF gbl_15_gbl_zSig+D'3'
1C9A  0100      	MOVLB 0x00
1C9C  6B9D      	CLRF gbl_15_gbl_aExp, 1
1C9E  6B9E      	CLRF gbl_15_gbl_bExp, 1
1CA0  6A7E      	CLRF gbl_15_gbl_zExp
1CA2  6A7F      	CLRF gbl_15_gbl_zExp+D'1'
1CA4  6B9F      	CLRF gbl_15_gbl_aSign, 1
1CA6  6BA0      	CLRF gbl_15_gbl_bSign, 1
1CA8  6BA1      	CLRF gbl_15_gbl_zSign, 1
1CAA  6BA2      	CLRF gbl_15_gbl_zSigZero, 1
1CAC  6A7A      	CLRF gbl_15_gbl_ret
1CAE  6A7B      	CLRF gbl_15_gbl_ret+D'1'
1CB0  6A7C      	CLRF gbl_15_gbl_ret+D'2'
1CB2  6A7D      	CLRF gbl_15_gbl_ret+D'3'
1CB4  6B9B      	CLRF gbl_float_rounding_mode, 1
1CB6  6B9C      	CLRF gbl_float_exception_flags, 1
1CB8  6B9A      	CLRF gbl_float_detect_tininess, 1
1CBA  6BA3      	CLRF gbl_FCV_CROISEUR, 1
1CBC  6BA4      	CLRF gbl_FCV_TORPILLEUR, 1
1CBE  0E18      	MOVLW 0x18
1CC0  6F84      	MOVWF gbl_FCV_Y_LIGNE, 1
1CC2  6B85      	CLRF gbl_FCV_Y_LIGNE+D'1', 1
1CC4  6BA5      	CLRF gbl_FCV_NUM_CASE, 1
1CC6  6B86      	CLRF gbl_FCV_X_SORTIE, 1
1CC8  6B87      	CLRF gbl_FCV_X_SORTIE+D'1', 1
1CCA  6B88      	CLRF gbl_FCV_Y_TOUCH, 1
1CCC  6B89      	CLRF gbl_FCV_Y_TOUCH+D'1', 1
1CCE  0E01      	MOVLW 0x01
1CD0  6FA6      	MOVWF gbl_FCV_HITBOX, 1
1CD2  0E18      	MOVLW 0x18
1CD4  6F8A      	MOVWF gbl_FCV_X_LIGNE, 1
1CD6  6B8B      	CLRF gbl_FCV_X_LIGNE+D'1', 1
1CD8  0E18      	MOVLW 0x18
1CDA  6F8C      	MOVWF gbl_FCV_Y, 1
1CDC  6B8D      	CLRF gbl_FCV_Y+D'1', 1
1CDE  0E18      	MOVLW 0x18
1CE0  6F8E      	MOVWF gbl_FCV_X, 1
1CE2  6B8F      	CLRF gbl_FCV_X+D'1', 1
1CE4  6BA7      	CLRF gbl_FCV_SOUS_MARIN, 1
1CE6  6B90      	CLRF gbl_FCV_X_TOUCH, 1
1CE8  6B91      	CLRF gbl_FCV_X_TOUCH+D'1', 1
1CEA  6BA8      	CLRF gbl_FCV_APPUI_ECRAN, 1
1CEC  6BA9      	CLRF gbl_FCV_HITBOX_2, 1
1CEE  6BAA      	CLRF gbl_FCV_BATEAU, 1
1CF0  6BAB      	CLRF gbl_FCV_PORTE_AVION, 1
1CF2  6BAC      	CLRF gbl_FCV_JOUEUR1, 1
1CF4  6BAD      	CLRF gbl_FCV_CONTRE_TORPILLEUR, 1
1CF6  0E00      	MOVLW 0x00
1CF8  6FAE      	MOVWF gbl_FCD_00fb8_ASCII6__INTL_00000, 1
1CFA  0E01      	MOVLW 0x01
1CFC  6FAF      	MOVWF gbl_FCD_00fb7_ASCII7__INTL_00001, 1
1CFE  0E02      	MOVLW 0x02
1D00  6FB0      	MOVWF gbl_FCD_00fb6_ASCII5__INTL_00002, 1
1D02  0E03      	MOVLW 0x03
1D04  6FB1      	MOVWF gbl_FCD_00fb5_ASCII4__INTL_00003, 1
1D06  0E04      	MOVLW 0x04
1D08  6FB2      	MOVWF gbl_FCD_00fb4_ASCII3__INTL_00004, 1
1D0A  0E05      	MOVLW 0x05
1D0C  6FB3      	MOVWF gbl_FCD_00fb3_ASCII2__INTL_00005, 1
1D0E  0E06      	MOVLW 0x06
1D10  6FB4      	MOVWF gbl_FCD_00fb2_ASCII1__INTL_00006, 1
1D12  0E07      	MOVLW 0x07
1D14  6FB5      	MOVWF gbl_FCD_00fb1_ASCII0__INTL_00007, 1
1D16  6B80      	CLRF gbl_FCV_0ba71_Base_GLCD__P_00009, 1
1D18  6B81      	CLRF gbl_FCV_0ba71_Base_GLCD__P_00009+D'1', 1
1D1A  6B82      	CLRF gbl_FCV_0ba71_Base_GLCD__P_00009+D'2', 1
1D1C  6B83      	CLRF gbl_FCV_0ba71_Base_GLCD__P_00009+D'3', 1
1D1E  6BB6      	CLRF gbl_FCV_0ba71_Base_GLCD__O_0000B, 1
1D20  EFCEF00D  	GOTO	main
	ORG 0x00001D24
1D24            interrupt
1D24            ; { interrupt ; function begin
1D24  CFEAF001  	MOVFF FSR0H,  Int1Context
1D28  CFE9F002  	MOVFF FSR0L,  Int1Context+D'1'
1D2C  CFF4F003  	MOVFF PRODH,  Int1Context+D'2'
1D30  CFF3F004  	MOVFF PRODL,  Int1Context+D'3'
1D34  C004FFF3  	MOVFF Int1Context+D'3',  PRODL
1D38  C003FFF4  	MOVFF Int1Context+D'2',  PRODH
1D3C  C002FFE9  	MOVFF Int1Context+D'1',  FSR0L
1D40  C001FFEA  	MOVFF Int1Context,  FSR0H
1D44  0011      	RETFIE 1
1D46            ; } interrupt function end

	ORG 0x00300000
300000  32FF      	DW 0x32FF
300002  FEF9      	DW 0xFEF9
300004  79FF      	DW 0x79FF
300006  FFBA      	DW 0xFFBA
300008  FFFF      	DW 0xFFFF
30000A  FFFF      	DW 0xFFFF
30000C  FFFF      	DW 0xFFFF
