;/////////////////////////////////////////////////////////////////////////////////
;// Code Generator: BoostC Compiler - http://www.sourceboost.com
;// Version       : 7.20
;// License Type  : Pro License
;// Limitations   : PIC18 max code size:Unlimited, max RAM banks:Unlimited
;/////////////////////////////////////////////////////////////////////////////////

	ORG 0x00000000
0000  EF91F004  	GOTO	_startup
	ORG 0x00000008
0008  EFDFF004  	GOTO	interrupt
	ORG 0x0000000C
000C            delay_ms_00000
000C            ; { delay_ms ; function begin
000C  524D      	MOVF delay_ms_00000_arg_del, F
000E  0000      	NOP
0010  E101      	BNZ	label1
0012  0012      	RETURN
0014            label1
0014  0EF5      	MOVLW 0xF5
0016            label2
0016  0000      	NOP
0018  0000      	NOP
001A  0000      	NOP
001C  0000      	NOP
001E  0000      	NOP
0020  0000      	NOP
0022  0000      	NOP
0024  0000      	NOP
0026  0000      	NOP
0028  0000      	NOP
002A  0000      	NOP
002C  0000      	NOP
002E  0000      	NOP
0030  0000      	NOP
0032  0000      	NOP
0034  0000      	NOP
0036  0FFF      	ADDLW 0xFF
0038  A4D8      	BTFSS STATUS,Z
003A  D7ED      	BRA	label2
003C  0000      	NOP
003E  0000      	NOP
0040  0000      	NOP
0042  0000      	NOP
0044  0000      	NOP
0046  0000      	NOP
0048  0000      	NOP
004A  0000      	NOP
004C  0000      	NOP
004E  0000      	NOP
0050  0000      	NOP
0052  0000      	NOP
0054  0000      	NOP
0056  2E4D      	DECFSZ delay_ms_00000_arg_del, F
0058  D7DD      	BRA	label1
005A  0012      	RETURN
005C            ; } delay_ms function end

	ORG 0x0000005C
005C            delay_us_00000
005C            ; { delay_us ; function begin
005C            label3
005C  0000      	NOP
005E  0000      	NOP
0060  2E4C      	DECFSZ delay_us_00000_arg_del, F
0062  D7FC      	BRA	label3
0064  0012      	RETURN
0066            ; } delay_us function end

	ORG 0x00000066
0066            delay_s_00000
0066            ; { delay_s ; function begin
0066            label4
0066  0EFA      	MOVLW 0xFA
0068  6E4D      	MOVWF delay_ms_00000_arg_del
006A  EC06F000  	CALL delay_ms_00000
006E  0EFA      	MOVLW 0xFA
0070  6E4D      	MOVWF delay_ms_00000_arg_del
0072  EC06F000  	CALL delay_ms_00000
0076  0EFA      	MOVLW 0xFA
0078  6E4D      	MOVWF delay_ms_00000_arg_del
007A  EC06F000  	CALL delay_ms_00000
007E  0EFA      	MOVLW 0xFA
0080  6E4D      	MOVWF delay_ms_00000_arg_del
0082  EC06F000  	CALL delay_ms_00000
0086  2E4C      	DECFSZ delay_s_00000_arg_del, F
0088  D7EE      	BRA	label4
008A  0012      	RETURN
008C            ; } delay_s function end

	ORG 0x0000008C
008C            FC_CAL_UAR_00076
008C            ; { FC_CAL_UART_Send_1 ; function begin
008C            label5
008C  0E10      	MOVLW 0x10
008E  149E      	ANDWF gbl_pir1, W
0090  6E5F      	MOVWF CompTempVar2731
0092  525F      	MOVF CompTempVar2731, F
0094  E0FB      	BZ	label5
0096  505D      	MOVF FC_CAL_UAR_00076_arg_nChar, W
0098  6EAD      	MOVWF gbl_txreg
009A  0012      	RETURN
009C            ; } FC_CAL_UART_Send_1 function end

	ORG 0x0000009C
009C            FC_CAL_UAR_00075
009C            ; { FC_CAL_UART_Receive_1 ; function begin
009C  685E      	SETF FC_CAL_UAR_00075_1_retVal
009E  6A5F      	CLRF FC_CAL_UAR_00075_1_delay1
00A0  6A60      	CLRF FC_CAL_UAR_00075_1_regcheck
00A2  6A61      	CLRF FC_CAL_UAR_00075_1_bWaitForever
00A4  6A62      	CLRF FC_CAL_UAR_00075_1_rxStatus
00A6  6A65      	CLRF FC_CAL_UAR_00075_1_dummy
00A8  285D      	INCF FC_CAL_UAR_00075_arg_nTimeout, W
00AA  E102      	BNZ	label6
00AC  0E01      	MOVLW 0x01
00AE  6E61      	MOVWF FC_CAL_UAR_00075_1_bWaitForever
00B0            label6
00B0  5262      	MOVF FC_CAL_UAR_00075_1_rxStatus, F
00B2  E124      	BNZ	label11
00B4  5261      	MOVF FC_CAL_UAR_00075_1_bWaitForever, F
00B6  E118      	BNZ	label10
00B8  525D      	MOVF FC_CAL_UAR_00075_arg_nTimeout, F
00BA  E103      	BNZ	label7
00BC  0E01      	MOVLW 0x01
00BE  6E62      	MOVWF FC_CAL_UAR_00075_1_rxStatus
00C0  D013      	BRA	label10
00C2            label7
00C2  6A63      	CLRF FC_CAL_UAR_00075_1_delaycnt
00C4  6A64      	CLRF FC_CAL_UAR_00075_1_delaycnt+D'1'
00C6            label8
00C6  0E31      	MOVLW 0x31
00C8  5C63      	SUBWF FC_CAL_UAR_00075_1_delaycnt, W
00CA  E205      	BC	label9
00CC  6664      	TSTFSZ FC_CAL_UAR_00075_1_delaycnt+D'1'
00CE  D003      	BRA	label9
00D0  4A63      	INFSNZ FC_CAL_UAR_00075_1_delaycnt, F
00D2  2A64      	INCF FC_CAL_UAR_00075_1_delaycnt+D'1', F
00D4  D7F8      	BRA	label8
00D6            label9
00D6  285F      	INCF FC_CAL_UAR_00075_1_delay1, W
00D8  6E5F      	MOVWF FC_CAL_UAR_00075_1_delay1
00DA  0E64      	MOVLW 0x64
00DC  625F      	CPFSEQ FC_CAL_UAR_00075_1_delay1
00DE  D004      	BRA	label10
00E0  045D      	DECF FC_CAL_UAR_00075_arg_nTimeout, W
00E2  6E5D      	MOVWF FC_CAL_UAR_00075_arg_nTimeout
00E4  0004      	CLRWDT
00E6  6A5F      	CLRF FC_CAL_UAR_00075_1_delay1
00E8            label10
00E8  0E20      	MOVLW 0x20
00EA  149E      	ANDWF gbl_pir1, W
00EC  6E66      	MOVWF CompTempVar2728
00EE  5066      	MOVF CompTempVar2728, W
00F0  6E60      	MOVWF FC_CAL_UAR_00075_1_regcheck
00F2  5260      	MOVF FC_CAL_UAR_00075_1_regcheck, F
00F4  E0DD      	BZ	label6
00F6  0E02      	MOVLW 0x02
00F8  6E62      	MOVWF FC_CAL_UAR_00075_1_rxStatus
00FA  D7DA      	BRA	label6
00FC            label11
00FC  0E02      	MOVLW 0x02
00FE  6262      	CPFSEQ FC_CAL_UAR_00075_1_rxStatus
0100  D018      	BRA	label14
0102  0E04      	MOVLW 0x04
0104  14AB      	ANDWF gbl_rcsta, W
0106  6E66      	MOVWF CompTempVar2729
0108  5066      	MOVF CompTempVar2729, W
010A  6E60      	MOVWF FC_CAL_UAR_00075_1_regcheck
010C  5260      	MOVF FC_CAL_UAR_00075_1_regcheck, F
010E  E003      	BZ	label12
0110  50AE      	MOVF gbl_rcreg, W
0112  6E65      	MOVWF FC_CAL_UAR_00075_1_dummy
0114  D00E      	BRA	label14
0116            label12
0116  0E02      	MOVLW 0x02
0118  14AB      	ANDWF gbl_rcsta, W
011A  6E66      	MOVWF CompTempVar2730
011C  5066      	MOVF CompTempVar2730, W
011E  6E60      	MOVWF FC_CAL_UAR_00075_1_regcheck
0120  5260      	MOVF FC_CAL_UAR_00075_1_regcheck, F
0122  E003      	BZ	label13
0124  98AB      	BCF gbl_rcsta,4
0126  88AB      	BSF gbl_rcsta,4
0128  D004      	BRA	label14
012A            label13
012A  6A5E      	CLRF FC_CAL_UAR_00075_1_retVal
012C  50AE      	MOVF gbl_rcreg, W
012E  105E      	IORWF FC_CAL_UAR_00075_1_retVal, W
0130  6E5E      	MOVWF FC_CAL_UAR_00075_1_retVal
0132            label14
0132  505E      	MOVF FC_CAL_UAR_00075_1_retVal, W
0134  6E66      	MOVWF CompTempVarRet2727
0136  6A67      	CLRF CompTempVarRet2727+D'1'
0138  0012      	RETURN
013A            ; } FC_CAL_UART_Receive_1 function end

	ORG 0x0000013A
013A            FC_CAL_UAR_00074
013A            ; { FC_CAL_UART_Uninit_1 ; function begin
013A  6AAB      	CLRF gbl_rcsta
013C  6AAC      	CLRF gbl_txsta
013E  0012      	RETURN
0140            ; } FC_CAL_UART_Uninit_1 function end

	ORG 0x00000140
0140            FCD_0f051__0006A
0140            ; { FCD_0f051_gLCD_EB076_4D1__DrawRectangle ; function begin
0140  525B      	MOVF FCD_0f051__0006A_arg_FCL_T_0006B, F
0142  E14D      	BNZ	label15
0144  525C      	MOVF FCD_0f051__0006A_arg_FCL_SOLID, F
0146  E14B      	BNZ	label15
0148  0E70      	MOVLW 0x70
014A  6E5D      	MOVWF FC_CAL_UAR_00076_arg_nChar
014C  6A5E      	CLRF FC_CAL_UAR_00076_arg_nChar+D'1'
014E  EC46F000  	CALL FC_CAL_UAR_00076
0152  6A5D      	CLRF FC_CAL_UAR_00076_arg_nChar
0154  6A5E      	CLRF FC_CAL_UAR_00076_arg_nChar+D'1'
0156  EC46F000  	CALL FC_CAL_UAR_00076
015A  685D      	SETF FC_CAL_UAR_00075_arg_nTimeout
015C  EC4EF000  	CALL FC_CAL_UAR_00075
0160  0E72      	MOVLW 0x72
0162  6E5D      	MOVWF FC_CAL_UAR_00076_arg_nChar
0164  6A5E      	CLRF FC_CAL_UAR_00076_arg_nChar+D'1'
0166  EC46F000  	CALL FC_CAL_UAR_00076
016A  5054      	MOVF FCD_0f051__0006A_arg_FCL_X1+D'1', W
016C  6E5D      	MOVWF FC_CAL_UAR_00076_arg_nChar
016E  6A5E      	CLRF FC_CAL_UAR_00076_arg_nChar+D'1'
0170  EC46F000  	CALL FC_CAL_UAR_00076
0174  5053      	MOVF FCD_0f051__0006A_arg_FCL_X1, W
0176  6E5D      	MOVWF FC_CAL_UAR_00076_arg_nChar
0178  5054      	MOVF FCD_0f051__0006A_arg_FCL_X1+D'1', W
017A  6E5E      	MOVWF FC_CAL_UAR_00076_arg_nChar+D'1'
017C  EC46F000  	CALL FC_CAL_UAR_00076
0180  5056      	MOVF FCD_0f051__0006A_arg_FCL_Y1+D'1', W
0182  6E5D      	MOVWF FC_CAL_UAR_00076_arg_nChar
0184  6A5E      	CLRF FC_CAL_UAR_00076_arg_nChar+D'1'
0186  EC46F000  	CALL FC_CAL_UAR_00076
018A  5055      	MOVF FCD_0f051__0006A_arg_FCL_Y1, W
018C  6E5D      	MOVWF FC_CAL_UAR_00076_arg_nChar
018E  5056      	MOVF FCD_0f051__0006A_arg_FCL_Y1+D'1', W
0190  6E5E      	MOVWF FC_CAL_UAR_00076_arg_nChar+D'1'
0192  EC46F000  	CALL FC_CAL_UAR_00076
0196  5058      	MOVF FCD_0f051__0006A_arg_FCL_X2+D'1', W
0198  6E5D      	MOVWF FC_CAL_UAR_00076_arg_nChar
019A  6A5E      	CLRF FC_CAL_UAR_00076_arg_nChar+D'1'
019C  EC46F000  	CALL FC_CAL_UAR_00076
01A0  5057      	MOVF FCD_0f051__0006A_arg_FCL_X2, W
01A2  6E5D      	MOVWF FC_CAL_UAR_00076_arg_nChar
01A4  5058      	MOVF FCD_0f051__0006A_arg_FCL_X2+D'1', W
01A6  6E5E      	MOVWF FC_CAL_UAR_00076_arg_nChar+D'1'
01A8  EC46F000  	CALL FC_CAL_UAR_00076
01AC  505A      	MOVF FCD_0f051__0006A_arg_FCL_Y2+D'1', W
01AE  6E5D      	MOVWF FC_CAL_UAR_00076_arg_nChar
01B0  6A5E      	CLRF FC_CAL_UAR_00076_arg_nChar+D'1'
01B2  EC46F000  	CALL FC_CAL_UAR_00076
01B6  5059      	MOVF FCD_0f051__0006A_arg_FCL_Y2, W
01B8  6E5D      	MOVWF FC_CAL_UAR_00076_arg_nChar
01BA  505A      	MOVF FCD_0f051__0006A_arg_FCL_Y2+D'1', W
01BC  6E5E      	MOVWF FC_CAL_UAR_00076_arg_nChar+D'1'
01BE  EC46F000  	CALL FC_CAL_UAR_00076
01C2  502C      	MOVF gbl_FCV_0f051_gLCD_EB076_4_0000C+D'1', W
01C4  6E5D      	MOVWF FC_CAL_UAR_00076_arg_nChar
01C6  6A5E      	CLRF FC_CAL_UAR_00076_arg_nChar+D'1'
01C8  EC46F000  	CALL FC_CAL_UAR_00076
01CC  502B      	MOVF gbl_FCV_0f051_gLCD_EB076_4_0000C, W
01CE  6E5D      	MOVWF FC_CAL_UAR_00076_arg_nChar
01D0  502C      	MOVF gbl_FCV_0f051_gLCD_EB076_4_0000C+D'1', W
01D2  6E5E      	MOVWF FC_CAL_UAR_00076_arg_nChar+D'1'
01D4  EC46F000  	CALL FC_CAL_UAR_00076
01D8  685D      	SETF FC_CAL_UAR_00075_arg_nTimeout
01DA  EC4EF000  	CALL FC_CAL_UAR_00075
01DE            label15
01DE  0E70      	MOVLW 0x70
01E0  6E5D      	MOVWF FC_CAL_UAR_00076_arg_nChar
01E2  6A5E      	CLRF FC_CAL_UAR_00076_arg_nChar+D'1'
01E4  EC46F000  	CALL FC_CAL_UAR_00076
01E8  525C      	MOVF FCD_0f051__0006A_arg_FCL_SOLID, F
01EA  E005      	BZ	label16
01EC  6A5D      	CLRF FC_CAL_UAR_00076_arg_nChar
01EE  6A5E      	CLRF FC_CAL_UAR_00076_arg_nChar+D'1'
01F0  EC46F000  	CALL FC_CAL_UAR_00076
01F4  D005      	BRA	label17
01F6            label16
01F6  0E01      	MOVLW 0x01
01F8  6E5D      	MOVWF FC_CAL_UAR_00076_arg_nChar
01FA  6A5E      	CLRF FC_CAL_UAR_00076_arg_nChar+D'1'
01FC  EC46F000  	CALL FC_CAL_UAR_00076
0200            label17
0200  685D      	SETF FC_CAL_UAR_00075_arg_nTimeout
0202  EC4EF000  	CALL FC_CAL_UAR_00075
0206  0E72      	MOVLW 0x72
0208  6E5D      	MOVWF FC_CAL_UAR_00076_arg_nChar
020A  6A5E      	CLRF FC_CAL_UAR_00076_arg_nChar+D'1'
020C  EC46F000  	CALL FC_CAL_UAR_00076
0210  5054      	MOVF FCD_0f051__0006A_arg_FCL_X1+D'1', W
0212  6E5D      	MOVWF FC_CAL_UAR_00076_arg_nChar
0214  6A5E      	CLRF FC_CAL_UAR_00076_arg_nChar+D'1'
0216  EC46F000  	CALL FC_CAL_UAR_00076
021A  5053      	MOVF FCD_0f051__0006A_arg_FCL_X1, W
021C  6E5D      	MOVWF FC_CAL_UAR_00076_arg_nChar
021E  5054      	MOVF FCD_0f051__0006A_arg_FCL_X1+D'1', W
0220  6E5E      	MOVWF FC_CAL_UAR_00076_arg_nChar+D'1'
0222  EC46F000  	CALL FC_CAL_UAR_00076
0226  5056      	MOVF FCD_0f051__0006A_arg_FCL_Y1+D'1', W
0228  6E5D      	MOVWF FC_CAL_UAR_00076_arg_nChar
022A  6A5E      	CLRF FC_CAL_UAR_00076_arg_nChar+D'1'
022C  EC46F000  	CALL FC_CAL_UAR_00076
0230  5055      	MOVF FCD_0f051__0006A_arg_FCL_Y1, W
0232  6E5D      	MOVWF FC_CAL_UAR_00076_arg_nChar
0234  5056      	MOVF FCD_0f051__0006A_arg_FCL_Y1+D'1', W
0236  6E5E      	MOVWF FC_CAL_UAR_00076_arg_nChar+D'1'
0238  EC46F000  	CALL FC_CAL_UAR_00076
023C  5058      	MOVF FCD_0f051__0006A_arg_FCL_X2+D'1', W
023E  6E5D      	MOVWF FC_CAL_UAR_00076_arg_nChar
0240  6A5E      	CLRF FC_CAL_UAR_00076_arg_nChar+D'1'
0242  EC46F000  	CALL FC_CAL_UAR_00076
0246  5057      	MOVF FCD_0f051__0006A_arg_FCL_X2, W
0248  6E5D      	MOVWF FC_CAL_UAR_00076_arg_nChar
024A  5058      	MOVF FCD_0f051__0006A_arg_FCL_X2+D'1', W
024C  6E5E      	MOVWF FC_CAL_UAR_00076_arg_nChar+D'1'
024E  EC46F000  	CALL FC_CAL_UAR_00076
0252  505A      	MOVF FCD_0f051__0006A_arg_FCL_Y2+D'1', W
0254  6E5D      	MOVWF FC_CAL_UAR_00076_arg_nChar
0256  6A5E      	CLRF FC_CAL_UAR_00076_arg_nChar+D'1'
0258  EC46F000  	CALL FC_CAL_UAR_00076
025C  5059      	MOVF FCD_0f051__0006A_arg_FCL_Y2, W
025E  6E5D      	MOVWF FC_CAL_UAR_00076_arg_nChar
0260  505A      	MOVF FCD_0f051__0006A_arg_FCL_Y2+D'1', W
0262  6E5E      	MOVWF FC_CAL_UAR_00076_arg_nChar+D'1'
0264  EC46F000  	CALL FC_CAL_UAR_00076
0268  502E      	MOVF gbl_FCV_0f051_gLCD_EB076_4_0000D+D'1', W
026A  6E5D      	MOVWF FC_CAL_UAR_00076_arg_nChar
026C  6A5E      	CLRF FC_CAL_UAR_00076_arg_nChar+D'1'
026E  EC46F000  	CALL FC_CAL_UAR_00076
0272  502D      	MOVF gbl_FCV_0f051_gLCD_EB076_4_0000D, W
0274  6E5D      	MOVWF FC_CAL_UAR_00076_arg_nChar
0276  502E      	MOVF gbl_FCV_0f051_gLCD_EB076_4_0000D+D'1', W
0278  6E5E      	MOVWF FC_CAL_UAR_00076_arg_nChar+D'1'
027A  EC46F000  	CALL FC_CAL_UAR_00076
027E  685D      	SETF FC_CAL_UAR_00075_arg_nTimeout
0280  EC4EF000  	CALL FC_CAL_UAR_00075
0284  0012      	RETURN
0286            ; } FCD_0f051_gLCD_EB076_4D1__DrawRectangle function end

	ORG 0x00000286
0286            FCD_0f051__0005D
0286            ; { FCD_0f051_gLCD_EB076_4D1__SetForegroundColour ; function begin
0286  3253      	RRCF FCD_0f051__0005D_arg_FCL_RED, F
0288  3253      	RRCF FCD_0f051__0005D_arg_FCL_RED, F
028A  3253      	RRCF FCD_0f051__0005D_arg_FCL_RED, F
028C  0E1F      	MOVLW 0x1F
028E  1653      	ANDWF FCD_0f051__0005D_arg_FCL_RED, F
0290  3254      	RRCF FCD_0f051__0005D_arg_FCL_GREEN, F
0292  3254      	RRCF FCD_0f051__0005D_arg_FCL_GREEN, F
0294  0E3F      	MOVLW 0x3F
0296  1654      	ANDWF FCD_0f051__0005D_arg_FCL_GREEN, F
0298  3255      	RRCF FCD_0f051__0005D_arg_FCL_BLUE, F
029A  3255      	RRCF FCD_0f051__0005D_arg_FCL_BLUE, F
029C  3255      	RRCF FCD_0f051__0005D_arg_FCL_BLUE, F
029E  0E1F      	MOVLW 0x1F
02A0  1655      	ANDWF FCD_0f051__0005D_arg_FCL_BLUE, F
02A2  5054      	MOVF FCD_0f051__0005D_arg_FCL_GREEN, W
02A4  6E56      	MOVWF CompTempVar2640
02A6  6A2E      	CLRF gbl_FCV_0f051_gLCD_EB076_4_0000D+D'1'
02A8  3656      	RLCF CompTempVar2640, F
02AA  362E      	RLCF gbl_FCV_0f051_gLCD_EB076_4_0000D+D'1', F
02AC  3656      	RLCF CompTempVar2640, F
02AE  362E      	RLCF gbl_FCV_0f051_gLCD_EB076_4_0000D+D'1', F
02B0  3656      	RLCF CompTempVar2640, F
02B2  362E      	RLCF gbl_FCV_0f051_gLCD_EB076_4_0000D+D'1', F
02B4  3656      	RLCF CompTempVar2640, F
02B6  362E      	RLCF gbl_FCV_0f051_gLCD_EB076_4_0000D+D'1', F
02B8  3656      	RLCF CompTempVar2640, F
02BA  362E      	RLCF gbl_FCV_0f051_gLCD_EB076_4_0000D+D'1', F
02BC  0EE0      	MOVLW 0xE0
02BE  1656      	ANDWF CompTempVar2640, F
02C0  5056      	MOVF CompTempVar2640, W
02C2  1055      	IORWF FCD_0f051__0005D_arg_FCL_BLUE, W
02C4  6E2D      	MOVWF gbl_FCV_0f051_gLCD_EB076_4_0000D
02C6  6A56      	CLRF CompTempVar2644
02C8  5053      	MOVF FCD_0f051__0005D_arg_FCL_RED, W
02CA  6E57      	MOVWF CompTempVar2645
02CC  90D8      	BCF STATUS,C
02CE  3657      	RLCF CompTempVar2645, F
02D0  90D8      	BCF STATUS,C
02D2  3657      	RLCF CompTempVar2645, F
02D4  90D8      	BCF STATUS,C
02D6  3657      	RLCF CompTempVar2645, F
02D8  5056      	MOVF CompTempVar2644, W
02DA  122D      	IORWF gbl_FCV_0f051_gLCD_EB076_4_0000D, F
02DC  5057      	MOVF CompTempVar2645, W
02DE  122E      	IORWF gbl_FCV_0f051_gLCD_EB076_4_0000D+D'1', F
02E0  0012      	RETURN
02E2            ; } FCD_0f051_gLCD_EB076_4D1__SetForegroundColour function end

	ORG 0x000002E2
02E2            FC_CAL_UAR_00077
02E2            ; { FC_CAL_UART_Init_1 ; function begin
02E2  84AC      	BSF gbl_txsta,2
02E4  0E7F      	MOVLW 0x7F
02E6  6EAF      	MOVWF gbl_spbrg
02E8  6AAB      	CLRF gbl_rcsta
02EA  8EAB      	BSF gbl_rcsta,7
02EC  8AAC      	BSF gbl_txsta,5
02EE  88AB      	BSF gbl_rcsta,4
02F0  9A9D      	BCF gbl_pie1,5
02F2  0012      	RETURN
02F4            ; } FC_CAL_UART_Init_1 function end

	ORG 0x000002F4
02F4            FC_CAL_UAR_00073
02F4            ; { FC_CAL_UART_UpdateBaud_1 ; function begin
02F4  0E07      	MOVLW 0x07
02F6  644C      	CPFSGT FC_CAL_UAR_00073_arg_new_baud
02F8  D001      	BRA	label18
02FA  0012      	RETURN
02FC            label18
02FC  524C      	MOVF FC_CAL_UAR_00073_arg_new_baud, F
02FE  E104      	BNZ	label19
0300  684D      	SETF FC_CAL_UAR_00073_1_baudrate
0302  0E01      	MOVLW 0x01
0304  6E4E      	MOVWF FC_CAL_UAR_00073_1_baudmode
0306  D02F      	BRA	label26
0308            label19
0308  044C      	DECF FC_CAL_UAR_00073_arg_new_baud, W
030A  E105      	BNZ	label20
030C  0E7F      	MOVLW 0x7F
030E  6E4D      	MOVWF FC_CAL_UAR_00073_1_baudrate
0310  0E01      	MOVLW 0x01
0312  6E4E      	MOVWF FC_CAL_UAR_00073_1_baudmode
0314  D028      	BRA	label26
0316            label20
0316  0E02      	MOVLW 0x02
0318  624C      	CPFSEQ FC_CAL_UAR_00073_arg_new_baud
031A  D003      	BRA	label21
031C  684D      	SETF FC_CAL_UAR_00073_1_baudrate
031E  6A4E      	CLRF FC_CAL_UAR_00073_1_baudmode
0320  D022      	BRA	label26
0322            label21
0322  0E03      	MOVLW 0x03
0324  624C      	CPFSEQ FC_CAL_UAR_00073_arg_new_baud
0326  D004      	BRA	label22
0328  0E7F      	MOVLW 0x7F
032A  6E4D      	MOVWF FC_CAL_UAR_00073_1_baudrate
032C  6A4E      	CLRF FC_CAL_UAR_00073_1_baudmode
032E  D01B      	BRA	label26
0330            label22
0330  0E04      	MOVLW 0x04
0332  624C      	CPFSEQ FC_CAL_UAR_00073_arg_new_baud
0334  D004      	BRA	label23
0336  0E3F      	MOVLW 0x3F
0338  6E4D      	MOVWF FC_CAL_UAR_00073_1_baudrate
033A  6A4E      	CLRF FC_CAL_UAR_00073_1_baudmode
033C  D014      	BRA	label26
033E            label23
033E  0E05      	MOVLW 0x05
0340  624C      	CPFSEQ FC_CAL_UAR_00073_arg_new_baud
0342  D004      	BRA	label24
0344  0E1F      	MOVLW 0x1F
0346  6E4D      	MOVWF FC_CAL_UAR_00073_1_baudrate
0348  6A4E      	CLRF FC_CAL_UAR_00073_1_baudmode
034A  D00D      	BRA	label26
034C            label24
034C  0E06      	MOVLW 0x06
034E  624C      	CPFSEQ FC_CAL_UAR_00073_arg_new_baud
0350  D004      	BRA	label25
0352  0E14      	MOVLW 0x14
0354  6E4D      	MOVWF FC_CAL_UAR_00073_1_baudrate
0356  6A4E      	CLRF FC_CAL_UAR_00073_1_baudmode
0358  D006      	BRA	label26
035A            label25
035A  0E07      	MOVLW 0x07
035C  624C      	CPFSEQ FC_CAL_UAR_00073_arg_new_baud
035E  D003      	BRA	label26
0360  0E0A      	MOVLW 0x0A
0362  6E4D      	MOVWF FC_CAL_UAR_00073_1_baudrate
0364  6A4E      	CLRF FC_CAL_UAR_00073_1_baudmode
0366            label26
0366  EC9DF000  	CALL FC_CAL_UAR_00074
036A  044E      	DECF FC_CAL_UAR_00073_1_baudmode, W
036C  E102      	BNZ	label27
036E  94AC      	BCF gbl_txsta,2
0370  D001      	BRA	label28
0372            label27
0372  84AC      	BSF gbl_txsta,2
0374            label28
0374  504D      	MOVF FC_CAL_UAR_00073_1_baudrate, W
0376  6EAF      	MOVWF gbl_spbrg
0378  6AAB      	CLRF gbl_rcsta
037A  8EAB      	BSF gbl_rcsta,7
037C  8AAC      	BSF gbl_txsta,5
037E  88AB      	BSF gbl_rcsta,4
0380  9A9D      	BCF gbl_pie1,5
0382  0012      	RETURN
0384            ; } FC_CAL_UART_UpdateBaud_1 function end

	ORG 0x00000384
0384            FC_CAL_Por_00042
0384            ; { FC_CAL_Port_In_DDR__x ; function begin
0384  504F      	MOVF FC_CAL_Por_00042_arg_Tris+D'1', W
0386  6EEA      	MOVWF FSR0H
0388  504E      	MOVF FC_CAL_Por_00042_arg_Tris, W
038A  6EE9      	MOVWF FSR0L
038C  5050      	MOVF FC_CAL_Por_00042_arg_InMask, W
038E  10EF      	IORWF INDF0, W
0390  6E52      	MOVWF CompTempVar1825
0392  5052      	MOVF CompTempVar1825, W
0394  6EEF      	MOVWF INDF0
0396  504D      	MOVF FC_CAL_Por_00042_arg_Port+D'1', W
0398  6EEA      	MOVWF FSR0H
039A  504C      	MOVF FC_CAL_Por_00042_arg_Port, W
039C  6EE9      	MOVWF FSR0L
039E  5050      	MOVF FC_CAL_Por_00042_arg_InMask, W
03A0  14EF      	ANDWF INDF0, W
03A2  6E52      	MOVWF CompTempVarRet1822
03A4  5051      	MOVF FC_CAL_Por_00042_arg_Shift, W
03A6  6E53      	MOVWF CompTempVar1827
03A8            label29
03A8  B4D8      	BTFSC STATUS,Z
03AA  0012      	RETURN
03AC  90D8      	BCF STATUS,C
03AE  3252      	RRCF CompTempVarRet1822, F
03B0  0653      	DECF CompTempVar1827, F
03B2  D7FA      	BRA	label29
03B4            ; } FC_CAL_Port_In_DDR__x function end

	ORG 0x000003B4
03B4            FCM_parame_00066
03B4            ; { FCM_parametres_bateau ; function begin
03B4  5050      	MOVF FCM_parame_00066_arg_FCL_C_00067, W
03B6  6E53      	MOVWF FCD_0f051__0005D_arg_FCL_RED
03B8  5052      	MOVF FCM_parame_00066_arg_FCL_C_00069, W
03BA  6E54      	MOVWF FCD_0f051__0005D_arg_FCL_GREEN
03BC  5051      	MOVF FCM_parame_00066_arg_FCL_C_00068, W
03BE  6E55      	MOVWF FCD_0f051__0005D_arg_FCL_BLUE
03C0  EC43F001  	CALL FCD_0f051__0005D
03C4  5048      	MOVF FCM_parame_00066_arg_FCL_POS_X1, W
03C6  6E53      	MOVWF FCD_0f051__0006A_arg_FCL_X1
03C8  5049      	MOVF FCM_parame_00066_arg_FCL_POS_X1+D'1', W
03CA  6E54      	MOVWF FCD_0f051__0006A_arg_FCL_X1+D'1'
03CC  504C      	MOVF FCM_parame_00066_arg_FCL_POS_Y1, W
03CE  6E55      	MOVWF FCD_0f051__0006A_arg_FCL_Y1
03D0  504D      	MOVF FCM_parame_00066_arg_FCL_POS_Y1+D'1', W
03D2  6E56      	MOVWF FCD_0f051__0006A_arg_FCL_Y1+D'1'
03D4  504A      	MOVF FCM_parame_00066_arg_FCL_POS_X2, W
03D6  6E57      	MOVWF FCD_0f051__0006A_arg_FCL_X2
03D8  504B      	MOVF FCM_parame_00066_arg_FCL_POS_X2+D'1', W
03DA  6E58      	MOVWF FCD_0f051__0006A_arg_FCL_X2+D'1'
03DC  504E      	MOVF FCM_parame_00066_arg_FCL_POS_Y2, W
03DE  6E59      	MOVWF FCD_0f051__0006A_arg_FCL_Y2
03E0  504F      	MOVF FCM_parame_00066_arg_FCL_POS_Y2+D'1', W
03E2  6E5A      	MOVWF FCD_0f051__0006A_arg_FCL_Y2+D'1'
03E4  6A5B      	CLRF FCD_0f051__0006A_arg_FCL_T_0006B
03E6  0E01      	MOVLW 0x01
03E8  6E5C      	MOVWF FCD_0f051__0006A_arg_FCL_SOLID
03EA  ECA0F000  	CALL FCD_0f051__0006A
03EE  0012      	RETURN
03F0            ; } FCM_parametres_bateau function end

	ORG 0x000003F0
03F0            FCD_0f051__00071
03F0            ; { FCD_0f051_gLCD_EB076_4D1__DrawLine ; function begin
03F0  6A51      	CLRF FCD_0f051__00071_1_FCL_D1
03F2  6A52      	CLRF FCD_0f051__00071_1_FCL_D1+D'1'
03F4  0E01      	MOVLW 0x01
03F6  6E53      	MOVWF FCD_0f051__00071_1_FCL_YINC
03F8  6A54      	CLRF FCD_0f051__00071_1_FCL_YINC+D'1'
03FA  0E01      	MOVLW 0x01
03FC  6E55      	MOVWF FCD_0f051__00071_1_FCL_XINC
03FE  6A56      	CLRF FCD_0f051__00071_1_FCL_XINC+D'1'
0400  0E4C      	MOVLW 0x4C
0402  6E5D      	MOVWF FC_CAL_UAR_00076_arg_nChar
0404  6A5E      	CLRF FC_CAL_UAR_00076_arg_nChar+D'1'
0406  EC46F000  	CALL FC_CAL_UAR_00076
040A  504A      	MOVF FCD_0f051__00071_arg_FCL_X1+D'1', W
040C  6E5D      	MOVWF FC_CAL_UAR_00076_arg_nChar
040E  6A5E      	CLRF FC_CAL_UAR_00076_arg_nChar+D'1'
0410  EC46F000  	CALL FC_CAL_UAR_00076
0414  5049      	MOVF FCD_0f051__00071_arg_FCL_X1, W
0416  6E5D      	MOVWF FC_CAL_UAR_00076_arg_nChar
0418  504A      	MOVF FCD_0f051__00071_arg_FCL_X1+D'1', W
041A  6E5E      	MOVWF FC_CAL_UAR_00076_arg_nChar+D'1'
041C  EC46F000  	CALL FC_CAL_UAR_00076
0420  504C      	MOVF FCD_0f051__00071_arg_FCL_Y1+D'1', W
0422  6E5D      	MOVWF FC_CAL_UAR_00076_arg_nChar
0424  6A5E      	CLRF FC_CAL_UAR_00076_arg_nChar+D'1'
0426  EC46F000  	CALL FC_CAL_UAR_00076
042A  504B      	MOVF FCD_0f051__00071_arg_FCL_Y1, W
042C  6E5D      	MOVWF FC_CAL_UAR_00076_arg_nChar
042E  504C      	MOVF FCD_0f051__00071_arg_FCL_Y1+D'1', W
0430  6E5E      	MOVWF FC_CAL_UAR_00076_arg_nChar+D'1'
0432  EC46F000  	CALL FC_CAL_UAR_00076
0436  504E      	MOVF FCD_0f051__00071_arg_FCL_X2+D'1', W
0438  6E5D      	MOVWF FC_CAL_UAR_00076_arg_nChar
043A  6A5E      	CLRF FC_CAL_UAR_00076_arg_nChar+D'1'
043C  EC46F000  	CALL FC_CAL_UAR_00076
0440  504D      	MOVF FCD_0f051__00071_arg_FCL_X2, W
0442  6E5D      	MOVWF FC_CAL_UAR_00076_arg_nChar
0444  504E      	MOVF FCD_0f051__00071_arg_FCL_X2+D'1', W
0446  6E5E      	MOVWF FC_CAL_UAR_00076_arg_nChar+D'1'
0448  EC46F000  	CALL FC_CAL_UAR_00076
044C  5050      	MOVF FCD_0f051__00071_arg_FCL_Y2+D'1', W
044E  6E5D      	MOVWF FC_CAL_UAR_00076_arg_nChar
0450  6A5E      	CLRF FC_CAL_UAR_00076_arg_nChar+D'1'
0452  EC46F000  	CALL FC_CAL_UAR_00076
0456  504F      	MOVF FCD_0f051__00071_arg_FCL_Y2, W
0458  6E5D      	MOVWF FC_CAL_UAR_00076_arg_nChar
045A  5050      	MOVF FCD_0f051__00071_arg_FCL_Y2+D'1', W
045C  6E5E      	MOVWF FC_CAL_UAR_00076_arg_nChar+D'1'
045E  EC46F000  	CALL FC_CAL_UAR_00076
0462  502E      	MOVF gbl_FCV_0f051_gLCD_EB076_4_0000D+D'1', W
0464  6E5D      	MOVWF FC_CAL_UAR_00076_arg_nChar
0466  6A5E      	CLRF FC_CAL_UAR_00076_arg_nChar+D'1'
0468  EC46F000  	CALL FC_CAL_UAR_00076
046C  502D      	MOVF gbl_FCV_0f051_gLCD_EB076_4_0000D, W
046E  6E5D      	MOVWF FC_CAL_UAR_00076_arg_nChar
0470  502E      	MOVF gbl_FCV_0f051_gLCD_EB076_4_0000D+D'1', W
0472  6E5E      	MOVWF FC_CAL_UAR_00076_arg_nChar+D'1'
0474  EC46F000  	CALL FC_CAL_UAR_00076
0478  685D      	SETF FC_CAL_UAR_00075_arg_nTimeout
047A  EC4EF000  	CALL FC_CAL_UAR_00075
047E  0012      	RETURN
0480            ; } FCD_0f051_gLCD_EB076_4D1__DrawLine function end

	ORG 0x00000480
0480            FCD_0f051__00062
0480            ; { FCD_0f051_gLCD_EB076_4D1__ClearDisplay ; function begin
0480  6A4C      	CLRF FCD_0f051__00062_1_FCL_Y
0482  6A4D      	CLRF FCD_0f051__00062_1_FCL_Y+D'1'
0484  6A4E      	CLRF FCD_0f051__00062_1_FCL_X
0486  6A4F      	CLRF FCD_0f051__00062_1_FCL_X+D'1'
0488  0E42      	MOVLW 0x42
048A  6E5D      	MOVWF FC_CAL_UAR_00076_arg_nChar
048C  6A5E      	CLRF FC_CAL_UAR_00076_arg_nChar+D'1'
048E  EC46F000  	CALL FC_CAL_UAR_00076
0492  502C      	MOVF gbl_FCV_0f051_gLCD_EB076_4_0000C+D'1', W
0494  6E5D      	MOVWF FC_CAL_UAR_00076_arg_nChar
0496  6A5E      	CLRF FC_CAL_UAR_00076_arg_nChar+D'1'
0498  EC46F000  	CALL FC_CAL_UAR_00076
049C  502B      	MOVF gbl_FCV_0f051_gLCD_EB076_4_0000C, W
049E  6E5D      	MOVWF FC_CAL_UAR_00076_arg_nChar
04A0  502C      	MOVF gbl_FCV_0f051_gLCD_EB076_4_0000C+D'1', W
04A2  6E5E      	MOVWF FC_CAL_UAR_00076_arg_nChar+D'1'
04A4  EC46F000  	CALL FC_CAL_UAR_00076
04A8  685D      	SETF FC_CAL_UAR_00075_arg_nTimeout
04AA  EC4EF000  	CALL FC_CAL_UAR_00075
04AE  0E45      	MOVLW 0x45
04B0  6E5D      	MOVWF FC_CAL_UAR_00076_arg_nChar
04B2  6A5E      	CLRF FC_CAL_UAR_00076_arg_nChar+D'1'
04B4  EC46F000  	CALL FC_CAL_UAR_00076
04B8  685D      	SETF FC_CAL_UAR_00075_arg_nTimeout
04BA  EC4EF000  	CALL FC_CAL_UAR_00075
04BE  0012      	RETURN
04C0            ; } FCD_0f051_gLCD_EB076_4D1__ClearDisplay function end

	ORG 0x000004C0
04C0            FCM_lignes_00000
04C0            ; { FCM_lignes ; function begin
04C0  0E18      	MOVLW 0x18
04C2  6E23      	MOVWF gbl_FCV_X_LIGNE
04C4  6A24      	CLRF gbl_FCV_X_LIGNE+D'1'
04C6  0E18      	MOVLW 0x18
04C8  6E1F      	MOVWF gbl_FCV_Y_LIGNE
04CA  6A20      	CLRF gbl_FCV_Y_LIGNE+D'1'
04CC            label30
04CC  5023      	MOVF gbl_FCV_X_LIGNE, W
04CE  6E49      	MOVWF FCD_0f051__00071_arg_FCL_X1
04D0  5024      	MOVF gbl_FCV_X_LIGNE+D'1', W
04D2  6E4A      	MOVWF FCD_0f051__00071_arg_FCL_X1+D'1'
04D4  6A4B      	CLRF FCD_0f051__00071_arg_FCL_Y1
04D6  6A4C      	CLRF FCD_0f051__00071_arg_FCL_Y1+D'1'
04D8  5023      	MOVF gbl_FCV_X_LIGNE, W
04DA  6E4D      	MOVWF FCD_0f051__00071_arg_FCL_X2
04DC  5024      	MOVF gbl_FCV_X_LIGNE+D'1', W
04DE  6E4E      	MOVWF FCD_0f051__00071_arg_FCL_X2+D'1'
04E0  0EF0      	MOVLW 0xF0
04E2  6E4F      	MOVWF FCD_0f051__00071_arg_FCL_Y2
04E4  6A50      	CLRF FCD_0f051__00071_arg_FCL_Y2+D'1'
04E6  ECF8F001  	CALL FCD_0f051__00071
04EA  6A49      	CLRF CompTempVar2679
04EC  0E18      	MOVLW 0x18
04EE  2623      	ADDWF gbl_FCV_X_LIGNE, F
04F0  5024      	MOVF gbl_FCV_X_LIGNE+D'1', W
04F2  2249      	ADDWFC CompTempVar2679, F
04F4  5049      	MOVF CompTempVar2679, W
04F6  6E24      	MOVWF gbl_FCV_X_LIGNE+D'1'
04F8  6A48      	CLRF CompTempVar2677
04FA  0EF0      	MOVLW 0xF0
04FC  6223      	CPFSEQ gbl_FCV_X_LIGNE
04FE  D003      	BRA	label31
0500  5024      	MOVF gbl_FCV_X_LIGNE+D'1', W
0502  B4D8      	BTFSC STATUS,Z
0504  2A48      	INCF CompTempVar2677, F
0506            label31
0506  5248      	MOVF CompTempVar2677, F
0508  E0E1      	BZ	label30
050A            label32
050A  6A49      	CLRF FCD_0f051__00071_arg_FCL_X1
050C  6A4A      	CLRF FCD_0f051__00071_arg_FCL_X1+D'1'
050E  501F      	MOVF gbl_FCV_Y_LIGNE, W
0510  6E4B      	MOVWF FCD_0f051__00071_arg_FCL_Y1
0512  5020      	MOVF gbl_FCV_Y_LIGNE+D'1', W
0514  6E4C      	MOVWF FCD_0f051__00071_arg_FCL_Y1+D'1'
0516  0EF0      	MOVLW 0xF0
0518  6E4D      	MOVWF FCD_0f051__00071_arg_FCL_X2
051A  6A4E      	CLRF FCD_0f051__00071_arg_FCL_X2+D'1'
051C  501F      	MOVF gbl_FCV_Y_LIGNE, W
051E  6E4F      	MOVWF FCD_0f051__00071_arg_FCL_Y2
0520  5020      	MOVF gbl_FCV_Y_LIGNE+D'1', W
0522  6E50      	MOVWF FCD_0f051__00071_arg_FCL_Y2+D'1'
0524  ECF8F001  	CALL FCD_0f051__00071
0528  6A49      	CLRF CompTempVar2682
052A  0E18      	MOVLW 0x18
052C  261F      	ADDWF gbl_FCV_Y_LIGNE, F
052E  5020      	MOVF gbl_FCV_Y_LIGNE+D'1', W
0530  2249      	ADDWFC CompTempVar2682, F
0532  5049      	MOVF CompTempVar2682, W
0534  6E20      	MOVWF gbl_FCV_Y_LIGNE+D'1'
0536  6A48      	CLRF CompTempVar2680
0538  0EF0      	MOVLW 0xF0
053A  641F      	CPFSGT gbl_FCV_Y_LIGNE
053C  6620      	TSTFSZ gbl_FCV_Y_LIGNE+D'1'
053E  D001      	BRA	label33
0540  2A48      	INCF CompTempVar2680, F
0542            label33
0542  5248      	MOVF CompTempVar2680, F
0544  E1E2      	BNZ	label32
0546  0012      	RETURN
0548            ; } FCM_lignes function end

	ORG 0x00000548
0548            FCM_affich_0005C
0548            ; { FCM_affichage_bateau ; function begin
0548            label34
0548  0E44      	MOVLW 0x44
054A  623C      	CPFSEQ gbl_FCV_HITBOX
054C  D7FD      	BRA	label34
054E  0EA8      	MOVLW 0xA8
0550  6E48      	MOVWF FCM_parame_00066_arg_FCL_POS_X1
0552  6A49      	CLRF FCM_parame_00066_arg_FCL_POS_X1+D'1'
0554  0EC0      	MOVLW 0xC0
0556  6E4A      	MOVWF FCM_parame_00066_arg_FCL_POS_X2
0558  6A4B      	CLRF FCM_parame_00066_arg_FCL_POS_X2+D'1'
055A  0E90      	MOVLW 0x90
055C  6E4C      	MOVWF FCM_parame_00066_arg_FCL_POS_Y1
055E  6A4D      	CLRF FCM_parame_00066_arg_FCL_POS_Y1+D'1'
0560  0EA8      	MOVLW 0xA8
0562  6E4E      	MOVWF FCM_parame_00066_arg_FCL_POS_Y2
0564  6A4F      	CLRF FCM_parame_00066_arg_FCL_POS_Y2+D'1'
0566  0E32      	MOVLW 0x32
0568  6E50      	MOVWF FCM_parame_00066_arg_FCL_C_00067
056A  6E51      	MOVWF FCM_parame_00066_arg_FCL_C_00068
056C  6E52      	MOVWF FCM_parame_00066_arg_FCL_C_00069
056E  ECDAF001  	CALL FCM_parame_00066
0572  D7EA      	BRA	label34
0574            ; } FCM_affichage_bateau function end

	ORG 0x00000574
0574            FCD_0f051__00070
0574            ; { FCD_0f051_gLCD_EB076_4D1__G4D_GetTouchCoordinatesPicaso ; function begin
0574  0E6F      	MOVLW 0x6F
0576  6E5D      	MOVWF FC_CAL_UAR_00076_arg_nChar
0578  6A5E      	CLRF FC_CAL_UAR_00076_arg_nChar+D'1'
057A  EC46F000  	CALL FC_CAL_UAR_00076
057E  0E04      	MOVLW 0x04
0580  6E5D      	MOVWF FC_CAL_UAR_00076_arg_nChar
0582  6A5E      	CLRF FC_CAL_UAR_00076_arg_nChar+D'1'
0584  EC46F000  	CALL FC_CAL_UAR_00076
0588  685D      	SETF FC_CAL_UAR_00075_arg_nTimeout
058A  EC4EF000  	CALL FC_CAL_UAR_00075
058E  685D      	SETF FC_CAL_UAR_00075_arg_nTimeout
0590  EC4EF000  	CALL FC_CAL_UAR_00075
0594  5066      	MOVF CompTempVarRet2727, W
0596  6E49      	MOVWF FCD_0f051__00070_1_FCR_RETVAL
0598  685D      	SETF FC_CAL_UAR_00075_arg_nTimeout
059A  EC4EF000  	CALL FC_CAL_UAR_00075
059E  685D      	SETF FC_CAL_UAR_00075_arg_nTimeout
05A0  EC4EF000  	CALL FC_CAL_UAR_00075
05A4  5249      	MOVF FCD_0f051__00070_1_FCR_RETVAL, F
05A6  E032      	BZ	label35
05A8  0E6F      	MOVLW 0x6F
05AA  6E5D      	MOVWF FC_CAL_UAR_00076_arg_nChar
05AC  6A5E      	CLRF FC_CAL_UAR_00076_arg_nChar+D'1'
05AE  EC46F000  	CALL FC_CAL_UAR_00076
05B2  0E05      	MOVLW 0x05
05B4  6E5D      	MOVWF FC_CAL_UAR_00076_arg_nChar
05B6  6A5E      	CLRF FC_CAL_UAR_00076_arg_nChar+D'1'
05B8  EC46F000  	CALL FC_CAL_UAR_00076
05BC  685D      	SETF FC_CAL_UAR_00075_arg_nTimeout
05BE  EC4EF000  	CALL FC_CAL_UAR_00075
05C2  5066      	MOVF CompTempVarRet2727, W
05C4  6E31      	MOVWF gbl_FCV_0f051_gLCD_EB076_4_0000F
05C6  5067      	MOVF CompTempVarRet2727+D'1', W
05C8  6E32      	MOVWF gbl_FCV_0f051_gLCD_EB076_4_0000F+D'1'
05CA  685D      	SETF FC_CAL_UAR_00075_arg_nTimeout
05CC  EC4EF000  	CALL FC_CAL_UAR_00075
05D0  5066      	MOVF CompTempVarRet2727, W
05D2  6E48      	MOVWF FCD_0f051__00070_1_FCL_TEMP
05D4  6A4A      	CLRF CompTempVar2709
05D6  5031      	MOVF gbl_FCV_0f051_gLCD_EB076_4_0000F, W
05D8  6E32      	MOVWF gbl_FCV_0f051_gLCD_EB076_4_0000F+D'1'
05DA  504A      	MOVF CompTempVar2709, W
05DC  6E31      	MOVWF gbl_FCV_0f051_gLCD_EB076_4_0000F
05DE  5048      	MOVF FCD_0f051__00070_1_FCL_TEMP, W
05E0  1231      	IORWF gbl_FCV_0f051_gLCD_EB076_4_0000F, F
05E2  5232      	MOVF gbl_FCV_0f051_gLCD_EB076_4_0000F+D'1', F
05E4  685D      	SETF FC_CAL_UAR_00075_arg_nTimeout
05E6  EC4EF000  	CALL FC_CAL_UAR_00075
05EA  5066      	MOVF CompTempVarRet2727, W
05EC  6E2F      	MOVWF gbl_FCV_0f051_gLCD_EB076_4_0000E
05EE  5067      	MOVF CompTempVarRet2727+D'1', W
05F0  6E30      	MOVWF gbl_FCV_0f051_gLCD_EB076_4_0000E+D'1'
05F2  685D      	SETF FC_CAL_UAR_00075_arg_nTimeout
05F4  EC4EF000  	CALL FC_CAL_UAR_00075
05F8  5066      	MOVF CompTempVarRet2727, W
05FA  6E48      	MOVWF FCD_0f051__00070_1_FCL_TEMP
05FC  6A4A      	CLRF CompTempVar2713
05FE  502F      	MOVF gbl_FCV_0f051_gLCD_EB076_4_0000E, W
0600  6E30      	MOVWF gbl_FCV_0f051_gLCD_EB076_4_0000E+D'1'
0602  504A      	MOVF CompTempVar2713, W
0604  6E2F      	MOVWF gbl_FCV_0f051_gLCD_EB076_4_0000E
0606  5048      	MOVF FCD_0f051__00070_1_FCL_TEMP, W
0608  122F      	IORWF gbl_FCV_0f051_gLCD_EB076_4_0000E, F
060A  5230      	MOVF gbl_FCV_0f051_gLCD_EB076_4_0000E+D'1', F
060C            label35
060C  5049      	MOVF FCD_0f051__00070_1_FCR_RETVAL, W
060E  6E4A      	MOVWF CompTempVarRet2708
0610  0012      	RETURN
0612            ; } FCD_0f051_gLCD_EB076_4D1__G4D_GetTouchCoordinatesPicaso function end

	ORG 0x00000612
0612            FCD_0f051__00065
0612            ; { FCD_0f051_gLCD_EB076_4D1__G4D_EnableTouchscreenPicaso ; function begin
0612  0E59      	MOVLW 0x59
0614  6E5D      	MOVWF FC_CAL_UAR_00076_arg_nChar
0616  6A5E      	CLRF FC_CAL_UAR_00076_arg_nChar+D'1'
0618  EC46F000  	CALL FC_CAL_UAR_00076
061C  0E05      	MOVLW 0x05
061E  6E5D      	MOVWF FC_CAL_UAR_00076_arg_nChar
0620  6A5E      	CLRF FC_CAL_UAR_00076_arg_nChar+D'1'
0622  EC46F000  	CALL FC_CAL_UAR_00076
0626  6A5D      	CLRF FC_CAL_UAR_00076_arg_nChar
0628  6A5E      	CLRF FC_CAL_UAR_00076_arg_nChar+D'1'
062A  EC46F000  	CALL FC_CAL_UAR_00076
062E  685D      	SETF FC_CAL_UAR_00075_arg_nTimeout
0630  EC4EF000  	CALL FC_CAL_UAR_00075
0634  5066      	MOVF CompTempVarRet2727, W
0636  6E48      	MOVWF FCD_0f051__00065_1_FCR_RETVAL
0638  0E59      	MOVLW 0x59
063A  6E5D      	MOVWF FC_CAL_UAR_00076_arg_nChar
063C  6A5E      	CLRF FC_CAL_UAR_00076_arg_nChar+D'1'
063E  EC46F000  	CALL FC_CAL_UAR_00076
0642  0E05      	MOVLW 0x05
0644  6E5D      	MOVWF FC_CAL_UAR_00076_arg_nChar
0646  6A5E      	CLRF FC_CAL_UAR_00076_arg_nChar+D'1'
0648  EC46F000  	CALL FC_CAL_UAR_00076
064C  0E02      	MOVLW 0x02
064E  6E5D      	MOVWF FC_CAL_UAR_00076_arg_nChar
0650  6A5E      	CLRF FC_CAL_UAR_00076_arg_nChar+D'1'
0652  EC46F000  	CALL FC_CAL_UAR_00076
0656  685D      	SETF FC_CAL_UAR_00075_arg_nTimeout
0658  EC4EF000  	CALL FC_CAL_UAR_00075
065C  5066      	MOVF CompTempVarRet2727, W
065E  6E48      	MOVWF FCD_0f051__00065_1_FCR_RETVAL
0660  0E06      	MOVLW 0x06
0662  6248      	CPFSEQ FCD_0f051__00065_1_FCR_RETVAL
0664  D002      	BRA	label36
0666  6A48      	CLRF FCD_0f051__00065_1_FCR_RETVAL
0668  D001      	BRA	label37
066A            label36
066A  6848      	SETF FCD_0f051__00065_1_FCR_RETVAL
066C            label37
066C  5048      	MOVF FCD_0f051__00065_1_FCR_RETVAL, W
066E  6E49      	MOVWF CompTempVarRet2684
0670  0012      	RETURN
0672            ; } FCD_0f051_gLCD_EB076_4D1__G4D_EnableTouchscreenPicaso function end

	ORG 0x00000672
0672            FCD_0f051__00064
0672            ; { FCD_0f051_gLCD_EB076_4D1__G4D_DisableTouchscreenPicaso ; function begin
0672  0E59      	MOVLW 0x59
0674  6E5D      	MOVWF FC_CAL_UAR_00076_arg_nChar
0676  6A5E      	CLRF FC_CAL_UAR_00076_arg_nChar+D'1'
0678  EC46F000  	CALL FC_CAL_UAR_00076
067C  0E05      	MOVLW 0x05
067E  6E5D      	MOVWF FC_CAL_UAR_00076_arg_nChar
0680  6A5E      	CLRF FC_CAL_UAR_00076_arg_nChar+D'1'
0682  EC46F000  	CALL FC_CAL_UAR_00076
0686  0E01      	MOVLW 0x01
0688  6E5D      	MOVWF FC_CAL_UAR_00076_arg_nChar
068A  6A5E      	CLRF FC_CAL_UAR_00076_arg_nChar+D'1'
068C  EC46F000  	CALL FC_CAL_UAR_00076
0690  685D      	SETF FC_CAL_UAR_00075_arg_nTimeout
0692  EC4EF000  	CALL FC_CAL_UAR_00075
0696  5066      	MOVF CompTempVarRet2727, W
0698  6E48      	MOVWF FCD_0f051__00064_1_FCR_RETVAL
069A  0E06      	MOVLW 0x06
069C  6248      	CPFSEQ FCD_0f051__00064_1_FCR_RETVAL
069E  D002      	BRA	label38
06A0  6A48      	CLRF FCD_0f051__00064_1_FCR_RETVAL
06A2  D001      	BRA	label39
06A4            label38
06A4  6848      	SETF FCD_0f051__00064_1_FCR_RETVAL
06A6            label39
06A6  5048      	MOVF FCD_0f051__00064_1_FCR_RETVAL, W
06A8  6E49      	MOVWF CompTempVarRet2683
06AA  0012      	RETURN
06AC            ; } FCD_0f051_gLCD_EB076_4D1__G4D_DisableTouchscreenPicaso function end

	ORG 0x000006AC
06AC            FCD_0f051__00061
06AC            ; { FCD_0f051_gLCD_EB076_4D1__Initialise ; function begin
06AC  6A4C      	CLRF FCD_0f051__00061_2_ptmp
06AE  9A94      	BCF gbl_trisc,5
06B0  524C      	MOVF FCD_0f051__00061_2_ptmp, F
06B2  E004      	BZ	label40
06B4  0E20      	MOVLW 0x20
06B6  108B      	IORWF gbl_latc, W
06B8  6E82      	MOVWF gbl_portc
06BA  D003      	BRA	label41
06BC            label40
06BC  0EDF      	MOVLW 0xDF
06BE  148B      	ANDWF gbl_latc, W
06C0  6E82      	MOVWF gbl_portc
06C2            label41
06C2  EC71F001  	CALL FC_CAL_UAR_00077
06C6  0E64      	MOVLW 0x64
06C8  6E4C      	MOVWF delay_us_00000_arg_del
06CA  EC2EF000  	CALL delay_us_00000
06CE  0E0F      	MOVLW HIGH(gbl_portc+D'0')
06D0  6E4D      	MOVWF FC_CAL_Por_00042_arg_Port+D'1'
06D2  0E82      	MOVLW LOW(gbl_portc+D'0')
06D4  6E4C      	MOVWF FC_CAL_Por_00042_arg_Port
06D6  0E0F      	MOVLW HIGH(gbl_trisc+D'0')
06D8  6E4F      	MOVWF FC_CAL_Por_00042_arg_Tris+D'1'
06DA  0E94      	MOVLW LOW(gbl_trisc+D'0')
06DC  6E4E      	MOVWF FC_CAL_Por_00042_arg_Tris
06DE  0E20      	MOVLW 0x20
06E0  6E50      	MOVWF FC_CAL_Por_00042_arg_InMask
06E2  0E05      	MOVLW 0x05
06E4  6E51      	MOVWF FC_CAL_Por_00042_arg_Shift
06E6  ECC2F001  	CALL FC_CAL_Por_00042
06EA  5052      	MOVF CompTempVarRet1822, W
06EC  6E4B      	MOVWF FCD_0f051__00061_1_FCL_DUMMY
06EE  0E03      	MOVLW 0x03
06F0  6E4C      	MOVWF delay_s_00000_arg_del
06F2  EC33F000  	CALL delay_s_00000
06F6  6A5D      	CLRF FC_CAL_UAR_00075_arg_nTimeout
06F8  EC4EF000  	CALL FC_CAL_UAR_00075
06FC  6A5D      	CLRF FC_CAL_UAR_00075_arg_nTimeout
06FE  EC4EF000  	CALL FC_CAL_UAR_00075
0702  6A5D      	CLRF FC_CAL_UAR_00075_arg_nTimeout
0704  EC4EF000  	CALL FC_CAL_UAR_00075
0708  0E55      	MOVLW 0x55
070A  6E5D      	MOVWF FC_CAL_UAR_00076_arg_nChar
070C  6A5E      	CLRF FC_CAL_UAR_00076_arg_nChar+D'1'
070E  EC46F000  	CALL FC_CAL_UAR_00076
0712  685D      	SETF FC_CAL_UAR_00075_arg_nTimeout
0714  EC4EF000  	CALL FC_CAL_UAR_00075
0718  0E51      	MOVLW 0x51
071A  6E5D      	MOVWF FC_CAL_UAR_00076_arg_nChar
071C  6A5E      	CLRF FC_CAL_UAR_00076_arg_nChar+D'1'
071E  EC46F000  	CALL FC_CAL_UAR_00076
0722  0E0C      	MOVLW 0x0C
0724  6E5D      	MOVWF FC_CAL_UAR_00076_arg_nChar
0726  6A5E      	CLRF FC_CAL_UAR_00076_arg_nChar+D'1'
0728  EC46F000  	CALL FC_CAL_UAR_00076
072C  685D      	SETF FC_CAL_UAR_00075_arg_nTimeout
072E  EC4EF000  	CALL FC_CAL_UAR_00075
0732  0E06      	MOVLW 0x06
0734  6E4C      	MOVWF FC_CAL_UAR_00073_arg_new_baud
0736  EC7AF001  	CALL FC_CAL_UAR_00073
073A  0E0A      	MOVLW 0x0A
073C  6E5D      	MOVWF FC_CAL_UAR_00075_arg_nTimeout
073E  EC4EF000  	CALL FC_CAL_UAR_00075
0742  0E0A      	MOVLW 0x0A
0744  6E5D      	MOVWF FC_CAL_UAR_00075_arg_nTimeout
0746  EC4EF000  	CALL FC_CAL_UAR_00075
074A  6A48      	CLRF FCD_0f051__00061_1_FCL_RED
074C  3248      	RRCF FCD_0f051__00061_1_FCL_RED, F
074E  3248      	RRCF FCD_0f051__00061_1_FCL_RED, F
0750  3248      	RRCF FCD_0f051__00061_1_FCL_RED, F
0752  0E1F      	MOVLW 0x1F
0754  1648      	ANDWF FCD_0f051__00061_1_FCL_RED, F
0756  6A49      	CLRF FCD_0f051__00061_1_FCL_GREEN
0758  3249      	RRCF FCD_0f051__00061_1_FCL_GREEN, F
075A  3249      	RRCF FCD_0f051__00061_1_FCL_GREEN, F
075C  0E3F      	MOVLW 0x3F
075E  1649      	ANDWF FCD_0f051__00061_1_FCL_GREEN, F
0760  6A4A      	CLRF FCD_0f051__00061_1_FCL_BLUE
0762  324A      	RRCF FCD_0f051__00061_1_FCL_BLUE, F
0764  324A      	RRCF FCD_0f051__00061_1_FCL_BLUE, F
0766  324A      	RRCF FCD_0f051__00061_1_FCL_BLUE, F
0768  0E1F      	MOVLW 0x1F
076A  164A      	ANDWF FCD_0f051__00061_1_FCL_BLUE, F
076C  5049      	MOVF FCD_0f051__00061_1_FCL_GREEN, W
076E  6E4C      	MOVWF CompTempVar2656
0770  6A2E      	CLRF gbl_FCV_0f051_gLCD_EB076_4_0000D+D'1'
0772  364C      	RLCF CompTempVar2656, F
0774  362E      	RLCF gbl_FCV_0f051_gLCD_EB076_4_0000D+D'1', F
0776  364C      	RLCF CompTempVar2656, F
0778  362E      	RLCF gbl_FCV_0f051_gLCD_EB076_4_0000D+D'1', F
077A  364C      	RLCF CompTempVar2656, F
077C  362E      	RLCF gbl_FCV_0f051_gLCD_EB076_4_0000D+D'1', F
077E  364C      	RLCF CompTempVar2656, F
0780  362E      	RLCF gbl_FCV_0f051_gLCD_EB076_4_0000D+D'1', F
0782  364C      	RLCF CompTempVar2656, F
0784  362E      	RLCF gbl_FCV_0f051_gLCD_EB076_4_0000D+D'1', F
0786  0EE0      	MOVLW 0xE0
0788  164C      	ANDWF CompTempVar2656, F
078A  504C      	MOVF CompTempVar2656, W
078C  104A      	IORWF FCD_0f051__00061_1_FCL_BLUE, W
078E  6E2D      	MOVWF gbl_FCV_0f051_gLCD_EB076_4_0000D
0790  6A4C      	CLRF CompTempVar2660
0792  5048      	MOVF FCD_0f051__00061_1_FCL_RED, W
0794  6E4D      	MOVWF CompTempVar2661
0796  90D8      	BCF STATUS,C
0798  364D      	RLCF CompTempVar2661, F
079A  90D8      	BCF STATUS,C
079C  364D      	RLCF CompTempVar2661, F
079E  90D8      	BCF STATUS,C
07A0  364D      	RLCF CompTempVar2661, F
07A2  504C      	MOVF CompTempVar2660, W
07A4  122D      	IORWF gbl_FCV_0f051_gLCD_EB076_4_0000D, F
07A6  504D      	MOVF CompTempVar2661, W
07A8  122E      	IORWF gbl_FCV_0f051_gLCD_EB076_4_0000D+D'1', F
07AA  6848      	SETF FCD_0f051__00061_1_FCL_RED
07AC  3248      	RRCF FCD_0f051__00061_1_FCL_RED, F
07AE  3248      	RRCF FCD_0f051__00061_1_FCL_RED, F
07B0  3248      	RRCF FCD_0f051__00061_1_FCL_RED, F
07B2  0E1F      	MOVLW 0x1F
07B4  1648      	ANDWF FCD_0f051__00061_1_FCL_RED, F
07B6  6849      	SETF FCD_0f051__00061_1_FCL_GREEN
07B8  3249      	RRCF FCD_0f051__00061_1_FCL_GREEN, F
07BA  3249      	RRCF FCD_0f051__00061_1_FCL_GREEN, F
07BC  0E3F      	MOVLW 0x3F
07BE  1649      	ANDWF FCD_0f051__00061_1_FCL_GREEN, F
07C0  684A      	SETF FCD_0f051__00061_1_FCL_BLUE
07C2  324A      	RRCF FCD_0f051__00061_1_FCL_BLUE, F
07C4  324A      	RRCF FCD_0f051__00061_1_FCL_BLUE, F
07C6  324A      	RRCF FCD_0f051__00061_1_FCL_BLUE, F
07C8  0E1F      	MOVLW 0x1F
07CA  164A      	ANDWF FCD_0f051__00061_1_FCL_BLUE, F
07CC  5049      	MOVF FCD_0f051__00061_1_FCL_GREEN, W
07CE  6E4C      	MOVWF CompTempVar2667
07D0  6A2C      	CLRF gbl_FCV_0f051_gLCD_EB076_4_0000C+D'1'
07D2  364C      	RLCF CompTempVar2667, F
07D4  362C      	RLCF gbl_FCV_0f051_gLCD_EB076_4_0000C+D'1', F
07D6  364C      	RLCF CompTempVar2667, F
07D8  362C      	RLCF gbl_FCV_0f051_gLCD_EB076_4_0000C+D'1', F
07DA  364C      	RLCF CompTempVar2667, F
07DC  362C      	RLCF gbl_FCV_0f051_gLCD_EB076_4_0000C+D'1', F
07DE  364C      	RLCF CompTempVar2667, F
07E0  362C      	RLCF gbl_FCV_0f051_gLCD_EB076_4_0000C+D'1', F
07E2  364C      	RLCF CompTempVar2667, F
07E4  362C      	RLCF gbl_FCV_0f051_gLCD_EB076_4_0000C+D'1', F
07E6  0EE0      	MOVLW 0xE0
07E8  164C      	ANDWF CompTempVar2667, F
07EA  504C      	MOVF CompTempVar2667, W
07EC  104A      	IORWF FCD_0f051__00061_1_FCL_BLUE, W
07EE  6E2B      	MOVWF gbl_FCV_0f051_gLCD_EB076_4_0000C
07F0  6A4C      	CLRF CompTempVar2671
07F2  5048      	MOVF FCD_0f051__00061_1_FCL_RED, W
07F4  6E4D      	MOVWF CompTempVar2672
07F6  90D8      	BCF STATUS,C
07F8  364D      	RLCF CompTempVar2672, F
07FA  90D8      	BCF STATUS,C
07FC  364D      	RLCF CompTempVar2672, F
07FE  90D8      	BCF STATUS,C
0800  364D      	RLCF CompTempVar2672, F
0802  504C      	MOVF CompTempVar2671, W
0804  122B      	IORWF gbl_FCV_0f051_gLCD_EB076_4_0000C, F
0806  504D      	MOVF CompTempVar2672, W
0808  122C      	IORWF gbl_FCV_0f051_gLCD_EB076_4_0000C+D'1', F
080A  EC40F002  	CALL FCD_0f051__00062
080E  0E0A      	MOVLW 0x0A
0810  6E5D      	MOVWF FC_CAL_UAR_00075_arg_nTimeout
0812  EC4EF000  	CALL FC_CAL_UAR_00075
0816  0E0A      	MOVLW 0x0A
0818  6E5D      	MOVWF FC_CAL_UAR_00075_arg_nTimeout
081A  EC4EF000  	CALL FC_CAL_UAR_00075
081E  0012      	RETURN
0820            ; } FCD_0f051_gLCD_EB076_4D1__Initialise function end

	ORG 0x00000820
0820            FCD_0f051__0005F
0820            ; { FCD_0f051_gLCD_EB076_4D1__G4D_ReadTouchCoordinatesPicaso ; function begin
0820  6A49      	CLRF FCD_0f051__0005F_1_FCR_RETVAL
0822  6A4A      	CLRF FCD_0f051__0005F_1_FCR_RETVAL+D'1'
0824  5248      	MOVF FCD_0f051__0005F_arg_FCL_AXIS, F
0826  E007      	BZ	label43
0828  0E78      	MOVLW 0x78
082A  6248      	CPFSEQ FCD_0f051__0005F_arg_FCL_AXIS
082C  D001      	BRA	label42
082E  D003      	BRA	label43
0830            label42
0830  0E58      	MOVLW 0x58
0832  6248      	CPFSEQ FCD_0f051__0005F_arg_FCL_AXIS
0834  D004      	BRA	label44
0836            label43
0836  5031      	MOVF gbl_FCV_0f051_gLCD_EB076_4_0000F, W
0838  6E49      	MOVWF FCD_0f051__0005F_1_FCR_RETVAL
083A  5032      	MOVF gbl_FCV_0f051_gLCD_EB076_4_0000F+D'1', W
083C  6E4A      	MOVWF FCD_0f051__0005F_1_FCR_RETVAL+D'1'
083E            label44
083E  0448      	DECF FCD_0f051__0005F_arg_FCL_AXIS, W
0840  E007      	BZ	label46
0842  0E79      	MOVLW 0x79
0844  6248      	CPFSEQ FCD_0f051__0005F_arg_FCL_AXIS
0846  D001      	BRA	label45
0848  D003      	BRA	label46
084A            label45
084A  0E59      	MOVLW 0x59
084C  6248      	CPFSEQ FCD_0f051__0005F_arg_FCL_AXIS
084E  D004      	BRA	label47
0850            label46
0850  502F      	MOVF gbl_FCV_0f051_gLCD_EB076_4_0000E, W
0852  6E49      	MOVWF FCD_0f051__0005F_1_FCR_RETVAL
0854  5030      	MOVF gbl_FCV_0f051_gLCD_EB076_4_0000E+D'1', W
0856  6E4A      	MOVWF FCD_0f051__0005F_1_FCR_RETVAL+D'1'
0858            label47
0858  5049      	MOVF FCD_0f051__0005F_1_FCR_RETVAL, W
085A  6E4B      	MOVWF CompTempVarRet2648
085C  504A      	MOVF FCD_0f051__0005F_1_FCR_RETVAL+D'1', W
085E  6E4C      	MOVWF CompTempVarRet2648+D'1'
0860  0012      	RETURN
0862            ; } FCD_0f051_gLCD_EB076_4D1__G4D_ReadTouchCoordinatesPicaso function end

	ORG 0x00000862
0862            FCM_Reinit_00063
0862            ; { FCM_Reinitialisation_tactile ; function begin
0862  EC39F003  	CALL FCD_0f051__00064
0866  EC09F003  	CALL FCD_0f051__00065
086A  0012      	RETURN
086C            ; } FCM_Reinitialisation_tactile function end

	ORG 0x0000086C
086C            FCM_Recupe_0006F
086C            ; { FCM_Recuperation_coordonees ; function begin
086C  ECBAF002  	CALL FCD_0f051__00070
0870  504A      	MOVF CompTempVarRet2708, W
0872  6E3D      	MOVWF gbl_FCV_APPUI_ECRAN
0874  0012      	RETURN
0876            ; } FCM_Recuperation_coordonees function end

	ORG 0x00000876
0876            FCM_Lectur_0005E
0876            ; { FCM_Lecture_Coordonnes ; function begin
0876  6A48      	CLRF FCD_0f051__0005F_arg_FCL_AXIS
0878  EC10F004  	CALL FCD_0f051__0005F
087C  504B      	MOVF CompTempVarRet2648, W
087E  6E29      	MOVWF gbl_FCV_X_TOUCH
0880  504C      	MOVF CompTempVarRet2648+D'1', W
0882  6E2A      	MOVWF gbl_FCV_X_TOUCH+D'1'
0884  0E01      	MOVLW 0x01
0886  6E48      	MOVWF FCD_0f051__0005F_arg_FCL_AXIS
0888  EC10F004  	CALL FCD_0f051__0005F
088C  504B      	MOVF CompTempVarRet2648, W
088E  6E21      	MOVWF gbl_FCV_Y_TOUCH
0890  504C      	MOVF CompTempVarRet2648+D'1', W
0892  6E22      	MOVWF gbl_FCV_Y_TOUCH+D'1'
0894  0012      	RETURN
0896            ; } FCM_Lecture_Coordonnes function end

	ORG 0x00000896
0896            FCM_Initia_00060
0896            ; { FCM_Initialisation ; function begin
0896  EC56F003  	CALL FCD_0f051__00061
089A  EC40F002  	CALL FCD_0f051__00062
089E  EC60F002  	CALL FCM_lignes_00000
08A2  0012      	RETURN
08A4            ; } FCM_Initialisation function end

	ORG 0x000008A4
08A4            FCM_Hitbox_0005B
08A4            ; { FCM_Hitbox_v2 ; function begin
08A4  0E01      	MOVLW 0x01
08A6  6E3C      	MOVWF gbl_FCV_HITBOX
08A8  0E18      	MOVLW 0x18
08AA  6E25      	MOVWF gbl_FCV_Y
08AC  6A26      	CLRF gbl_FCV_Y+D'1'
08AE  0E18      	MOVLW 0x18
08B0  6E27      	MOVWF gbl_FCV_X
08B2  6A28      	CLRF gbl_FCV_X+D'1'
08B4            label48
08B4  5026      	MOVF gbl_FCV_Y+D'1', W
08B6  5C22      	SUBWF gbl_FCV_Y_TOUCH+D'1', W
08B8  E102      	BNZ	label49
08BA  5025      	MOVF gbl_FCV_Y, W
08BC  5C21      	SUBWF gbl_FCV_Y_TOUCH, W
08BE            label49
08BE  E213      	BC	label53
08C0            label50
08C0  5028      	MOVF gbl_FCV_X+D'1', W
08C2  5C2A      	SUBWF gbl_FCV_X_TOUCH+D'1', W
08C4  E102      	BNZ	label51
08C6  5027      	MOVF gbl_FCV_X, W
08C8  5C29      	SUBWF gbl_FCV_X_TOUCH, W
08CA            label51
08CA  E203      	BC	label52
08CC  ECA4F002  	CALL FCM_affich_0005C
08D0  D7F7      	BRA	label50
08D2            label52
08D2  283C      	INCF gbl_FCV_HITBOX, W
08D4  6E3C      	MOVWF gbl_FCV_HITBOX
08D6  6A48      	CLRF CompTempVar2634
08D8  0E18      	MOVLW 0x18
08DA  2627      	ADDWF gbl_FCV_X, F
08DC  5028      	MOVF gbl_FCV_X+D'1', W
08DE  2248      	ADDWFC CompTempVar2634, F
08E0  5048      	MOVF CompTempVar2634, W
08E2  6E28      	MOVWF gbl_FCV_X+D'1'
08E4  D7ED      	BRA	label50
08E6            label53
08E6  0E0A      	MOVLW 0x0A
08E8  243C      	ADDWF gbl_FCV_HITBOX, W
08EA  6E3C      	MOVWF gbl_FCV_HITBOX
08EC  6A48      	CLRF CompTempVar2636
08EE  0E18      	MOVLW 0x18
08F0  2625      	ADDWF gbl_FCV_Y, F
08F2  5026      	MOVF gbl_FCV_Y+D'1', W
08F4  2248      	ADDWFC CompTempVar2636, F
08F6  5048      	MOVF CompTempVar2636, W
08F8  6E26      	MOVWF gbl_FCV_Y+D'1'
08FA  D7DC      	BRA	label48
08FC            ; } FCM_Hitbox_v2 function end

	ORG 0x000008FC
08FC            main
08FC            ; { main ; function begin
08FC  0E0F      	MOVLW 0x0F
08FE  6EC1      	MOVWF gbl_adcon1
0900  EC4BF004  	CALL FCM_Initia_00060
0904            label54
0904  EC31F004  	CALL FCM_Reinit_00063
0908            label55
0908  523D      	MOVF gbl_FCV_APPUI_ECRAN, F
090A  E103      	BNZ	label56
090C  EC36F004  	CALL FCM_Recupe_0006F
0910  D7FB      	BRA	label55
0912            label56
0912  EC3BF004  	CALL FCM_Lectur_0005E
0916  EC52F004  	CALL FCM_Hitbox_0005B
091A  ECA4F002  	CALL FCM_affich_0005C
091E  6A3D      	CLRF gbl_FCV_APPUI_ECRAN
0920  D7F1      	BRA	label54
0922            ; } main function end

	ORG 0x00000922
0922            _startup
0922  0ED5      	MOVLW 0xD5
0924  6E05      	MOVWF gbl_14_LSR
0926  0EC4      	MOVLW 0xC4
0928  6E06      	MOVWF gbl_14_LSR+D'1'
092A  0EBB      	MOVLW 0xBB
092C  6E07      	MOVWF gbl_14_LSR+D'2'
092E  0EDC      	MOVLW 0xDC
0930  6E08      	MOVWF gbl_14_LSR+D'3'
0932  6A09      	CLRF gbl_15_gbl_aSig
0934  6A0A      	CLRF gbl_15_gbl_aSig+D'1'
0936  6A0B      	CLRF gbl_15_gbl_aSig+D'2'
0938  6A0C      	CLRF gbl_15_gbl_aSig+D'3'
093A  6A0D      	CLRF gbl_15_gbl_bSig
093C  6A0E      	CLRF gbl_15_gbl_bSig+D'1'
093E  6A0F      	CLRF gbl_15_gbl_bSig+D'2'
0940  6A10      	CLRF gbl_15_gbl_bSig+D'3'
0942  6A11      	CLRF gbl_15_gbl_zSig
0944  6A12      	CLRF gbl_15_gbl_zSig+D'1'
0946  6A13      	CLRF gbl_15_gbl_zSig+D'2'
0948  6A14      	CLRF gbl_15_gbl_zSig+D'3'
094A  6A36      	CLRF gbl_15_gbl_aExp
094C  6A37      	CLRF gbl_15_gbl_bExp
094E  6A1D      	CLRF gbl_15_gbl_zExp
0950  6A1E      	CLRF gbl_15_gbl_zExp+D'1'
0952  6A38      	CLRF gbl_15_gbl_aSign
0954  6A39      	CLRF gbl_15_gbl_bSign
0956  6A3A      	CLRF gbl_15_gbl_zSign
0958  6A3B      	CLRF gbl_15_gbl_zSigZero
095A  6A15      	CLRF gbl_15_gbl_ret
095C  6A16      	CLRF gbl_15_gbl_ret+D'1'
095E  6A17      	CLRF gbl_15_gbl_ret+D'2'
0960  6A18      	CLRF gbl_15_gbl_ret+D'3'
0962  6A34      	CLRF gbl_float_rounding_mode
0964  6A35      	CLRF gbl_float_exception_flags
0966  6A33      	CLRF gbl_float_detect_tininess
0968  0E18      	MOVLW 0x18
096A  6E1F      	MOVWF gbl_FCV_Y_LIGNE
096C  6A20      	CLRF gbl_FCV_Y_LIGNE+D'1'
096E  6A21      	CLRF gbl_FCV_Y_TOUCH
0970  6A22      	CLRF gbl_FCV_Y_TOUCH+D'1'
0972  0E01      	MOVLW 0x01
0974  6E3C      	MOVWF gbl_FCV_HITBOX
0976  0E18      	MOVLW 0x18
0978  6E23      	MOVWF gbl_FCV_X_LIGNE
097A  6A24      	CLRF gbl_FCV_X_LIGNE+D'1'
097C  0E18      	MOVLW 0x18
097E  6E25      	MOVWF gbl_FCV_Y
0980  6A26      	CLRF gbl_FCV_Y+D'1'
0982  0E18      	MOVLW 0x18
0984  6E27      	MOVWF gbl_FCV_X
0986  6A28      	CLRF gbl_FCV_X+D'1'
0988  6A29      	CLRF gbl_FCV_X_TOUCH
098A  6A2A      	CLRF gbl_FCV_X_TOUCH+D'1'
098C  6A3D      	CLRF gbl_FCV_APPUI_ECRAN
098E  6A3E      	CLRF gbl_FCV_HITBOX_2
0990  0E00      	MOVLW 0x00
0992  6E3F      	MOVWF gbl_FCD_00fb8_ASCII6__INTL_00000
0994  0E01      	MOVLW 0x01
0996  6E40      	MOVWF gbl_FCD_00fb7_ASCII7__INTL_00001
0998  0E02      	MOVLW 0x02
099A  6E41      	MOVWF gbl_FCD_00fb6_ASCII5__INTL_00002
099C  0E03      	MOVLW 0x03
099E  6E42      	MOVWF gbl_FCD_00fb5_ASCII4__INTL_00003
09A0  0E04      	MOVLW 0x04
09A2  6E43      	MOVWF gbl_FCD_00fb4_ASCII3__INTL_00004
09A4  0E05      	MOVLW 0x05
09A6  6E44      	MOVWF gbl_FCD_00fb3_ASCII2__INTL_00005
09A8  0E06      	MOVLW 0x06
09AA  6E45      	MOVWF gbl_FCD_00fb2_ASCII1__INTL_00006
09AC  0E07      	MOVLW 0x07
09AE  6E46      	MOVWF gbl_FCD_00fb1_ASCII0__INTL_00007
09B0  6A19      	CLRF gbl_FCV_0ba71_Base_GLCD__P_00009
09B2  6A1A      	CLRF gbl_FCV_0ba71_Base_GLCD__P_00009+D'1'
09B4  6A1B      	CLRF gbl_FCV_0ba71_Base_GLCD__P_00009+D'2'
09B6  6A1C      	CLRF gbl_FCV_0ba71_Base_GLCD__P_00009+D'3'
09B8  6A47      	CLRF gbl_FCV_0ba71_Base_GLCD__O_0000B
09BA  EF7EF004  	GOTO	main
	ORG 0x000009BE
09BE            interrupt
09BE            ; { interrupt ; function begin
09BE  CFEAF001  	MOVFF FSR0H,  Int1Context
09C2  CFE9F002  	MOVFF FSR0L,  Int1Context+D'1'
09C6  CFF4F003  	MOVFF PRODH,  Int1Context+D'2'
09CA  CFF3F004  	MOVFF PRODL,  Int1Context+D'3'
09CE  C004FFF3  	MOVFF Int1Context+D'3',  PRODL
09D2  C003FFF4  	MOVFF Int1Context+D'2',  PRODH
09D6  C002FFE9  	MOVFF Int1Context+D'1',  FSR0L
09DA  C001FFEA  	MOVFF Int1Context,  FSR0H
09DE  0011      	RETFIE 1
09E0            ; } interrupt function end

	ORG 0x00300000
300000  32FF      	DW 0x32FF
300002  FEFF      	DW 0xFEFF
300004  FBFF      	DW 0xFBFF
300006  FFBA      	DW 0xFFBA
300008  FFFF      	DW 0xFFFF
30000A  FFFF      	DW 0xFFFF
30000C  FFFF      	DW 0xFFFF
