;/////////////////////////////////////////////////////////////////////////////////
;// Code Generator: BoostC Compiler - http://www.sourceboost.com
;// Version       : 7.20
;// License Type  : Pro License
;// Limitations   : PIC18 max code size:Unlimited, max RAM banks:Unlimited
;/////////////////////////////////////////////////////////////////////////////////

	ORG 0x00000000
0000  EF5AF003  	GOTO	_startup
	ORG 0x00000008
0008  EF9AF003  	GOTO	interrupt
	ORG 0x0000000C
000C            delay_ms_00000
000C            ; { delay_ms ; function begin
000C  5248      	MOVF delay_ms_00000_arg_del, F
000E  0000      	NOP
0010  E101      	BNZ	label1
0012  0012      	RETURN
0014            label1
0014  0EF5      	MOVLW 0xF5
0016            label2
0016  0000      	NOP
0018  0000      	NOP
001A  0000      	NOP
001C  0000      	NOP
001E  0000      	NOP
0020  0000      	NOP
0022  0000      	NOP
0024  0000      	NOP
0026  0000      	NOP
0028  0000      	NOP
002A  0000      	NOP
002C  0000      	NOP
002E  0000      	NOP
0030  0000      	NOP
0032  0000      	NOP
0034  0000      	NOP
0036  0FFF      	ADDLW 0xFF
0038  A4D8      	BTFSS STATUS,Z
003A  D7ED      	BRA	label2
003C  0000      	NOP
003E  0000      	NOP
0040  0000      	NOP
0042  0000      	NOP
0044  0000      	NOP
0046  0000      	NOP
0048  0000      	NOP
004A  0000      	NOP
004C  0000      	NOP
004E  0000      	NOP
0050  0000      	NOP
0052  0000      	NOP
0054  0000      	NOP
0056  2E48      	DECFSZ delay_ms_00000_arg_del, F
0058  D7DD      	BRA	label1
005A  0012      	RETURN
005C            ; } delay_ms function end

	ORG 0x0000005C
005C            delay_us_00000
005C            ; { delay_us ; function begin
005C            label3
005C  0000      	NOP
005E  0000      	NOP
0060  2E47      	DECFSZ delay_us_00000_arg_del, F
0062  D7FC      	BRA	label3
0064  0012      	RETURN
0066            ; } delay_us function end

	ORG 0x00000066
0066            delay_s_00000
0066            ; { delay_s ; function begin
0066            label4
0066  0EFA      	MOVLW 0xFA
0068  6E48      	MOVWF delay_ms_00000_arg_del
006A  EC06F000  	CALL delay_ms_00000
006E  0EFA      	MOVLW 0xFA
0070  6E48      	MOVWF delay_ms_00000_arg_del
0072  EC06F000  	CALL delay_ms_00000
0076  0EFA      	MOVLW 0xFA
0078  6E48      	MOVWF delay_ms_00000_arg_del
007A  EC06F000  	CALL delay_ms_00000
007E  0EFA      	MOVLW 0xFA
0080  6E48      	MOVWF delay_ms_00000_arg_del
0082  EC06F000  	CALL delay_ms_00000
0086  2E47      	DECFSZ delay_s_00000_arg_del, F
0088  D7EE      	BRA	label4
008A  0012      	RETURN
008C            ; } delay_s function end

	ORG 0x0000008C
008C            FC_CAL_UAR_00073
008C            ; { FC_CAL_UART_Send_1 ; function begin
008C            label5
008C  0E10      	MOVLW 0x10
008E  149E      	ANDWF gbl_pir1, W
0090  6E54      	MOVWF CompTempVar2727
0092  5254      	MOVF CompTempVar2727, F
0094  E0FB      	BZ	label5
0096  5052      	MOVF FC_CAL_UAR_00073_arg_nChar, W
0098  6EAD      	MOVWF gbl_txreg
009A  0012      	RETURN
009C            ; } FC_CAL_UART_Send_1 function end

	ORG 0x0000009C
009C            FC_CAL_UAR_00072
009C            ; { FC_CAL_UART_Receive_1 ; function begin
009C  6853      	SETF FC_CAL_UAR_00072_1_retVal
009E  6A54      	CLRF FC_CAL_UAR_00072_1_delay1
00A0  6A55      	CLRF FC_CAL_UAR_00072_1_regcheck
00A2  6A56      	CLRF FC_CAL_UAR_00072_1_bWaitForever
00A4  6A57      	CLRF FC_CAL_UAR_00072_1_rxStatus
00A6  6A5A      	CLRF FC_CAL_UAR_00072_1_dummy
00A8  2852      	INCF FC_CAL_UAR_00072_arg_nTimeout, W
00AA  E102      	BNZ	label6
00AC  0E01      	MOVLW 0x01
00AE  6E56      	MOVWF FC_CAL_UAR_00072_1_bWaitForever
00B0            label6
00B0  5257      	MOVF FC_CAL_UAR_00072_1_rxStatus, F
00B2  E124      	BNZ	label11
00B4  5256      	MOVF FC_CAL_UAR_00072_1_bWaitForever, F
00B6  E118      	BNZ	label10
00B8  5252      	MOVF FC_CAL_UAR_00072_arg_nTimeout, F
00BA  E103      	BNZ	label7
00BC  0E01      	MOVLW 0x01
00BE  6E57      	MOVWF FC_CAL_UAR_00072_1_rxStatus
00C0  D013      	BRA	label10
00C2            label7
00C2  6A58      	CLRF FC_CAL_UAR_00072_1_delaycnt
00C4  6A59      	CLRF FC_CAL_UAR_00072_1_delaycnt+D'1'
00C6            label8
00C6  0E31      	MOVLW 0x31
00C8  5C58      	SUBWF FC_CAL_UAR_00072_1_delaycnt, W
00CA  E205      	BC	label9
00CC  6659      	TSTFSZ FC_CAL_UAR_00072_1_delaycnt+D'1'
00CE  D003      	BRA	label9
00D0  4A58      	INFSNZ FC_CAL_UAR_00072_1_delaycnt, F
00D2  2A59      	INCF FC_CAL_UAR_00072_1_delaycnt+D'1', F
00D4  D7F8      	BRA	label8
00D6            label9
00D6  2854      	INCF FC_CAL_UAR_00072_1_delay1, W
00D8  6E54      	MOVWF FC_CAL_UAR_00072_1_delay1
00DA  0E64      	MOVLW 0x64
00DC  6254      	CPFSEQ FC_CAL_UAR_00072_1_delay1
00DE  D004      	BRA	label10
00E0  0452      	DECF FC_CAL_UAR_00072_arg_nTimeout, W
00E2  6E52      	MOVWF FC_CAL_UAR_00072_arg_nTimeout
00E4  0004      	CLRWDT
00E6  6A54      	CLRF FC_CAL_UAR_00072_1_delay1
00E8            label10
00E8  0E20      	MOVLW 0x20
00EA  149E      	ANDWF gbl_pir1, W
00EC  6E5B      	MOVWF CompTempVar2724
00EE  505B      	MOVF CompTempVar2724, W
00F0  6E55      	MOVWF FC_CAL_UAR_00072_1_regcheck
00F2  5255      	MOVF FC_CAL_UAR_00072_1_regcheck, F
00F4  E0DD      	BZ	label6
00F6  0E02      	MOVLW 0x02
00F8  6E57      	MOVWF FC_CAL_UAR_00072_1_rxStatus
00FA  D7DA      	BRA	label6
00FC            label11
00FC  0E02      	MOVLW 0x02
00FE  6257      	CPFSEQ FC_CAL_UAR_00072_1_rxStatus
0100  D018      	BRA	label14
0102  0E04      	MOVLW 0x04
0104  14AB      	ANDWF gbl_rcsta, W
0106  6E5B      	MOVWF CompTempVar2725
0108  505B      	MOVF CompTempVar2725, W
010A  6E55      	MOVWF FC_CAL_UAR_00072_1_regcheck
010C  5255      	MOVF FC_CAL_UAR_00072_1_regcheck, F
010E  E003      	BZ	label12
0110  50AE      	MOVF gbl_rcreg, W
0112  6E5A      	MOVWF FC_CAL_UAR_00072_1_dummy
0114  D00E      	BRA	label14
0116            label12
0116  0E02      	MOVLW 0x02
0118  14AB      	ANDWF gbl_rcsta, W
011A  6E5B      	MOVWF CompTempVar2726
011C  505B      	MOVF CompTempVar2726, W
011E  6E55      	MOVWF FC_CAL_UAR_00072_1_regcheck
0120  5255      	MOVF FC_CAL_UAR_00072_1_regcheck, F
0122  E003      	BZ	label13
0124  98AB      	BCF gbl_rcsta,4
0126  88AB      	BSF gbl_rcsta,4
0128  D004      	BRA	label14
012A            label13
012A  6A53      	CLRF FC_CAL_UAR_00072_1_retVal
012C  50AE      	MOVF gbl_rcreg, W
012E  1053      	IORWF FC_CAL_UAR_00072_1_retVal, W
0130  6E53      	MOVWF FC_CAL_UAR_00072_1_retVal
0132            label14
0132  5053      	MOVF FC_CAL_UAR_00072_1_retVal, W
0134  6E5B      	MOVWF CompTempVarRet2723
0136  6A5C      	CLRF CompTempVarRet2723+D'1'
0138  0012      	RETURN
013A            ; } FC_CAL_UART_Receive_1 function end

	ORG 0x0000013A
013A            FC_CAL_UAR_00071
013A            ; { FC_CAL_UART_Uninit_1 ; function begin
013A  6AAB      	CLRF gbl_rcsta
013C  6AAC      	CLRF gbl_txsta
013E  0012      	RETURN
0140            ; } FC_CAL_UART_Uninit_1 function end

	ORG 0x00000140
0140            FC_CAL_UAR_00074
0140            ; { FC_CAL_UART_Init_1 ; function begin
0140  84AC      	BSF gbl_txsta,2
0142  0E7F      	MOVLW 0x7F
0144  6EAF      	MOVWF gbl_spbrg
0146  6AAB      	CLRF gbl_rcsta
0148  8EAB      	BSF gbl_rcsta,7
014A  8AAC      	BSF gbl_txsta,5
014C  88AB      	BSF gbl_rcsta,4
014E  9A9D      	BCF gbl_pie1,5
0150  0012      	RETURN
0152            ; } FC_CAL_UART_Init_1 function end

	ORG 0x00000152
0152            FC_CAL_UAR_00070
0152            ; { FC_CAL_UART_UpdateBaud_1 ; function begin
0152  0E07      	MOVLW 0x07
0154  6447      	CPFSGT FC_CAL_UAR_00070_arg_new_baud
0156  D001      	BRA	label15
0158  0012      	RETURN
015A            label15
015A  5247      	MOVF FC_CAL_UAR_00070_arg_new_baud, F
015C  E104      	BNZ	label16
015E  6848      	SETF FC_CAL_UAR_00070_1_baudrate
0160  0E01      	MOVLW 0x01
0162  6E49      	MOVWF FC_CAL_UAR_00070_1_baudmode
0164  D02F      	BRA	label23
0166            label16
0166  0447      	DECF FC_CAL_UAR_00070_arg_new_baud, W
0168  E105      	BNZ	label17
016A  0E7F      	MOVLW 0x7F
016C  6E48      	MOVWF FC_CAL_UAR_00070_1_baudrate
016E  0E01      	MOVLW 0x01
0170  6E49      	MOVWF FC_CAL_UAR_00070_1_baudmode
0172  D028      	BRA	label23
0174            label17
0174  0E02      	MOVLW 0x02
0176  6247      	CPFSEQ FC_CAL_UAR_00070_arg_new_baud
0178  D003      	BRA	label18
017A  6848      	SETF FC_CAL_UAR_00070_1_baudrate
017C  6A49      	CLRF FC_CAL_UAR_00070_1_baudmode
017E  D022      	BRA	label23
0180            label18
0180  0E03      	MOVLW 0x03
0182  6247      	CPFSEQ FC_CAL_UAR_00070_arg_new_baud
0184  D004      	BRA	label19
0186  0E7F      	MOVLW 0x7F
0188  6E48      	MOVWF FC_CAL_UAR_00070_1_baudrate
018A  6A49      	CLRF FC_CAL_UAR_00070_1_baudmode
018C  D01B      	BRA	label23
018E            label19
018E  0E04      	MOVLW 0x04
0190  6247      	CPFSEQ FC_CAL_UAR_00070_arg_new_baud
0192  D004      	BRA	label20
0194  0E3F      	MOVLW 0x3F
0196  6E48      	MOVWF FC_CAL_UAR_00070_1_baudrate
0198  6A49      	CLRF FC_CAL_UAR_00070_1_baudmode
019A  D014      	BRA	label23
019C            label20
019C  0E05      	MOVLW 0x05
019E  6247      	CPFSEQ FC_CAL_UAR_00070_arg_new_baud
01A0  D004      	BRA	label21
01A2  0E1F      	MOVLW 0x1F
01A4  6E48      	MOVWF FC_CAL_UAR_00070_1_baudrate
01A6  6A49      	CLRF FC_CAL_UAR_00070_1_baudmode
01A8  D00D      	BRA	label23
01AA            label21
01AA  0E06      	MOVLW 0x06
01AC  6247      	CPFSEQ FC_CAL_UAR_00070_arg_new_baud
01AE  D004      	BRA	label22
01B0  0E14      	MOVLW 0x14
01B2  6E48      	MOVWF FC_CAL_UAR_00070_1_baudrate
01B4  6A49      	CLRF FC_CAL_UAR_00070_1_baudmode
01B6  D006      	BRA	label23
01B8            label22
01B8  0E07      	MOVLW 0x07
01BA  6247      	CPFSEQ FC_CAL_UAR_00070_arg_new_baud
01BC  D003      	BRA	label23
01BE  0E0A      	MOVLW 0x0A
01C0  6E48      	MOVWF FC_CAL_UAR_00070_1_baudrate
01C2  6A49      	CLRF FC_CAL_UAR_00070_1_baudmode
01C4            label23
01C4  EC9DF000  	CALL FC_CAL_UAR_00071
01C8  0449      	DECF FC_CAL_UAR_00070_1_baudmode, W
01CA  E102      	BNZ	label24
01CC  94AC      	BCF gbl_txsta,2
01CE  D001      	BRA	label25
01D0            label24
01D0  84AC      	BSF gbl_txsta,2
01D2            label25
01D2  5048      	MOVF FC_CAL_UAR_00070_1_baudrate, W
01D4  6EAF      	MOVWF gbl_spbrg
01D6  6AAB      	CLRF gbl_rcsta
01D8  8EAB      	BSF gbl_rcsta,7
01DA  8AAC      	BSF gbl_txsta,5
01DC  88AB      	BSF gbl_rcsta,4
01DE  9A9D      	BCF gbl_pie1,5
01E0  0012      	RETURN
01E2            ; } FC_CAL_UART_UpdateBaud_1 function end

	ORG 0x000001E2
01E2            FC_CAL_Por_00042
01E2            ; { FC_CAL_Port_In_DDR__x ; function begin
01E2  504A      	MOVF FC_CAL_Por_00042_arg_Tris+D'1', W
01E4  6EEA      	MOVWF FSR0H
01E6  5049      	MOVF FC_CAL_Por_00042_arg_Tris, W
01E8  6EE9      	MOVWF FSR0L
01EA  504B      	MOVF FC_CAL_Por_00042_arg_InMask, W
01EC  10EF      	IORWF INDF0, W
01EE  6E4D      	MOVWF CompTempVar1825
01F0  504D      	MOVF CompTempVar1825, W
01F2  6EEF      	MOVWF INDF0
01F4  5048      	MOVF FC_CAL_Por_00042_arg_Port+D'1', W
01F6  6EEA      	MOVWF FSR0H
01F8  5047      	MOVF FC_CAL_Por_00042_arg_Port, W
01FA  6EE9      	MOVWF FSR0L
01FC  504B      	MOVF FC_CAL_Por_00042_arg_InMask, W
01FE  14EF      	ANDWF INDF0, W
0200  6E4D      	MOVWF CompTempVarRet1822
0202  504C      	MOVF FC_CAL_Por_00042_arg_Shift, W
0204  6E4E      	MOVWF CompTempVar1827
0206            label26
0206  B4D8      	BTFSC STATUS,Z
0208  0012      	RETURN
020A  90D8      	BCF STATUS,C
020C  324D      	RRCF CompTempVarRet1822, F
020E  064E      	DECF CompTempVar1827, F
0210  D7FA      	BRA	label26
0212            ; } FC_CAL_Port_In_DDR__x function end

	ORG 0x00000212
0212            FCD_0f051__0006E
0212            ; { FCD_0f051_gLCD_EB076_4D1__DrawLine ; function begin
0212  6A4C      	CLRF FCD_0f051__0006E_1_FCL_D1
0214  6A4D      	CLRF FCD_0f051__0006E_1_FCL_D1+D'1'
0216  0E01      	MOVLW 0x01
0218  6E4E      	MOVWF FCD_0f051__0006E_1_FCL_YINC
021A  6A4F      	CLRF FCD_0f051__0006E_1_FCL_YINC+D'1'
021C  0E01      	MOVLW 0x01
021E  6E50      	MOVWF FCD_0f051__0006E_1_FCL_XINC
0220  6A51      	CLRF FCD_0f051__0006E_1_FCL_XINC+D'1'
0222  0E4C      	MOVLW 0x4C
0224  6E52      	MOVWF FC_CAL_UAR_00073_arg_nChar
0226  6A53      	CLRF FC_CAL_UAR_00073_arg_nChar+D'1'
0228  EC46F000  	CALL FC_CAL_UAR_00073
022C  5045      	MOVF FCD_0f051__0006E_arg_FCL_X1+D'1', W
022E  6E52      	MOVWF FC_CAL_UAR_00073_arg_nChar
0230  6A53      	CLRF FC_CAL_UAR_00073_arg_nChar+D'1'
0232  EC46F000  	CALL FC_CAL_UAR_00073
0236  5044      	MOVF FCD_0f051__0006E_arg_FCL_X1, W
0238  6E52      	MOVWF FC_CAL_UAR_00073_arg_nChar
023A  5045      	MOVF FCD_0f051__0006E_arg_FCL_X1+D'1', W
023C  6E53      	MOVWF FC_CAL_UAR_00073_arg_nChar+D'1'
023E  EC46F000  	CALL FC_CAL_UAR_00073
0242  5047      	MOVF FCD_0f051__0006E_arg_FCL_Y1+D'1', W
0244  6E52      	MOVWF FC_CAL_UAR_00073_arg_nChar
0246  6A53      	CLRF FC_CAL_UAR_00073_arg_nChar+D'1'
0248  EC46F000  	CALL FC_CAL_UAR_00073
024C  5046      	MOVF FCD_0f051__0006E_arg_FCL_Y1, W
024E  6E52      	MOVWF FC_CAL_UAR_00073_arg_nChar
0250  5047      	MOVF FCD_0f051__0006E_arg_FCL_Y1+D'1', W
0252  6E53      	MOVWF FC_CAL_UAR_00073_arg_nChar+D'1'
0254  EC46F000  	CALL FC_CAL_UAR_00073
0258  5049      	MOVF FCD_0f051__0006E_arg_FCL_X2+D'1', W
025A  6E52      	MOVWF FC_CAL_UAR_00073_arg_nChar
025C  6A53      	CLRF FC_CAL_UAR_00073_arg_nChar+D'1'
025E  EC46F000  	CALL FC_CAL_UAR_00073
0262  5048      	MOVF FCD_0f051__0006E_arg_FCL_X2, W
0264  6E52      	MOVWF FC_CAL_UAR_00073_arg_nChar
0266  5049      	MOVF FCD_0f051__0006E_arg_FCL_X2+D'1', W
0268  6E53      	MOVWF FC_CAL_UAR_00073_arg_nChar+D'1'
026A  EC46F000  	CALL FC_CAL_UAR_00073
026E  504B      	MOVF FCD_0f051__0006E_arg_FCL_Y2+D'1', W
0270  6E52      	MOVWF FC_CAL_UAR_00073_arg_nChar
0272  6A53      	CLRF FC_CAL_UAR_00073_arg_nChar+D'1'
0274  EC46F000  	CALL FC_CAL_UAR_00073
0278  504A      	MOVF FCD_0f051__0006E_arg_FCL_Y2, W
027A  6E52      	MOVWF FC_CAL_UAR_00073_arg_nChar
027C  504B      	MOVF FCD_0f051__0006E_arg_FCL_Y2+D'1', W
027E  6E53      	MOVWF FC_CAL_UAR_00073_arg_nChar+D'1'
0280  EC46F000  	CALL FC_CAL_UAR_00073
0284  502A      	MOVF gbl_FCV_0f051_gLCD_EB076_4_0000D+D'1', W
0286  6E52      	MOVWF FC_CAL_UAR_00073_arg_nChar
0288  6A53      	CLRF FC_CAL_UAR_00073_arg_nChar+D'1'
028A  EC46F000  	CALL FC_CAL_UAR_00073
028E  5029      	MOVF gbl_FCV_0f051_gLCD_EB076_4_0000D, W
0290  6E52      	MOVWF FC_CAL_UAR_00073_arg_nChar
0292  502A      	MOVF gbl_FCV_0f051_gLCD_EB076_4_0000D+D'1', W
0294  6E53      	MOVWF FC_CAL_UAR_00073_arg_nChar+D'1'
0296  EC46F000  	CALL FC_CAL_UAR_00073
029A  6852      	SETF FC_CAL_UAR_00072_arg_nTimeout
029C  EC4EF000  	CALL FC_CAL_UAR_00072
02A0  0012      	RETURN
02A2            ; } FCD_0f051_gLCD_EB076_4D1__DrawLine function end

	ORG 0x000002A2
02A2            FCD_0f051__00064
02A2            ; { FCD_0f051_gLCD_EB076_4D1__ClearDisplay ; function begin
02A2  6A47      	CLRF FCD_0f051__00064_1_FCL_Y
02A4  6A48      	CLRF FCD_0f051__00064_1_FCL_Y+D'1'
02A6  6A49      	CLRF FCD_0f051__00064_1_FCL_X
02A8  6A4A      	CLRF FCD_0f051__00064_1_FCL_X+D'1'
02AA  0E42      	MOVLW 0x42
02AC  6E52      	MOVWF FC_CAL_UAR_00073_arg_nChar
02AE  6A53      	CLRF FC_CAL_UAR_00073_arg_nChar+D'1'
02B0  EC46F000  	CALL FC_CAL_UAR_00073
02B4  5028      	MOVF gbl_FCV_0f051_gLCD_EB076_4_0000C+D'1', W
02B6  6E52      	MOVWF FC_CAL_UAR_00073_arg_nChar
02B8  6A53      	CLRF FC_CAL_UAR_00073_arg_nChar+D'1'
02BA  EC46F000  	CALL FC_CAL_UAR_00073
02BE  5027      	MOVF gbl_FCV_0f051_gLCD_EB076_4_0000C, W
02C0  6E52      	MOVWF FC_CAL_UAR_00073_arg_nChar
02C2  5028      	MOVF gbl_FCV_0f051_gLCD_EB076_4_0000C+D'1', W
02C4  6E53      	MOVWF FC_CAL_UAR_00073_arg_nChar+D'1'
02C6  EC46F000  	CALL FC_CAL_UAR_00073
02CA  6852      	SETF FC_CAL_UAR_00072_arg_nTimeout
02CC  EC4EF000  	CALL FC_CAL_UAR_00072
02D0  0E45      	MOVLW 0x45
02D2  6E52      	MOVWF FC_CAL_UAR_00073_arg_nChar
02D4  6A53      	CLRF FC_CAL_UAR_00073_arg_nChar+D'1'
02D6  EC46F000  	CALL FC_CAL_UAR_00073
02DA  6852      	SETF FC_CAL_UAR_00072_arg_nTimeout
02DC  EC4EF000  	CALL FC_CAL_UAR_00072
02E0  0012      	RETURN
02E2            ; } FCD_0f051_gLCD_EB076_4D1__ClearDisplay function end

	ORG 0x000002E2
02E2            FCM_lignes_00000
02E2            ; { FCM_lignes ; function begin
02E2  0E18      	MOVLW 0x18
02E4  6E21      	MOVWF gbl_FCV_X_LIGNE
02E6  6A22      	CLRF gbl_FCV_X_LIGNE+D'1'
02E8  0E18      	MOVLW 0x18
02EA  6E1F      	MOVWF gbl_FCV_Y_LIGNE
02EC  6A20      	CLRF gbl_FCV_Y_LIGNE+D'1'
02EE            label27
02EE  5021      	MOVF gbl_FCV_X_LIGNE, W
02F0  6E44      	MOVWF FCD_0f051__0006E_arg_FCL_X1
02F2  5022      	MOVF gbl_FCV_X_LIGNE+D'1', W
02F4  6E45      	MOVWF FCD_0f051__0006E_arg_FCL_X1+D'1'
02F6  6A46      	CLRF FCD_0f051__0006E_arg_FCL_Y1
02F8  6A47      	CLRF FCD_0f051__0006E_arg_FCL_Y1+D'1'
02FA  5021      	MOVF gbl_FCV_X_LIGNE, W
02FC  6E48      	MOVWF FCD_0f051__0006E_arg_FCL_X2
02FE  5022      	MOVF gbl_FCV_X_LIGNE+D'1', W
0300  6E49      	MOVWF FCD_0f051__0006E_arg_FCL_X2+D'1'
0302  0EF0      	MOVLW 0xF0
0304  6E4A      	MOVWF FCD_0f051__0006E_arg_FCL_Y2
0306  6A4B      	CLRF FCD_0f051__0006E_arg_FCL_Y2+D'1'
0308  EC09F001  	CALL FCD_0f051__0006E
030C  6A44      	CLRF CompTempVar2694
030E  0E18      	MOVLW 0x18
0310  2621      	ADDWF gbl_FCV_X_LIGNE, F
0312  5022      	MOVF gbl_FCV_X_LIGNE+D'1', W
0314  2244      	ADDWFC CompTempVar2694, F
0316  5044      	MOVF CompTempVar2694, W
0318  6E22      	MOVWF gbl_FCV_X_LIGNE+D'1'
031A  6A43      	CLRF CompTempVar2692
031C  0EF0      	MOVLW 0xF0
031E  6221      	CPFSEQ gbl_FCV_X_LIGNE
0320  D003      	BRA	label28
0322  5022      	MOVF gbl_FCV_X_LIGNE+D'1', W
0324  B4D8      	BTFSC STATUS,Z
0326  2A43      	INCF CompTempVar2692, F
0328            label28
0328  5243      	MOVF CompTempVar2692, F
032A  E0E1      	BZ	label27
032C            label29
032C  6A44      	CLRF FCD_0f051__0006E_arg_FCL_X1
032E  6A45      	CLRF FCD_0f051__0006E_arg_FCL_X1+D'1'
0330  501F      	MOVF gbl_FCV_Y_LIGNE, W
0332  6E46      	MOVWF FCD_0f051__0006E_arg_FCL_Y1
0334  5020      	MOVF gbl_FCV_Y_LIGNE+D'1', W
0336  6E47      	MOVWF FCD_0f051__0006E_arg_FCL_Y1+D'1'
0338  0EF0      	MOVLW 0xF0
033A  6E48      	MOVWF FCD_0f051__0006E_arg_FCL_X2
033C  6A49      	CLRF FCD_0f051__0006E_arg_FCL_X2+D'1'
033E  501F      	MOVF gbl_FCV_Y_LIGNE, W
0340  6E4A      	MOVWF FCD_0f051__0006E_arg_FCL_Y2
0342  5020      	MOVF gbl_FCV_Y_LIGNE+D'1', W
0344  6E4B      	MOVWF FCD_0f051__0006E_arg_FCL_Y2+D'1'
0346  EC09F001  	CALL FCD_0f051__0006E
034A  6A44      	CLRF CompTempVar2697
034C  0E18      	MOVLW 0x18
034E  261F      	ADDWF gbl_FCV_Y_LIGNE, F
0350  5020      	MOVF gbl_FCV_Y_LIGNE+D'1', W
0352  2244      	ADDWFC CompTempVar2697, F
0354  5044      	MOVF CompTempVar2697, W
0356  6E20      	MOVWF gbl_FCV_Y_LIGNE+D'1'
0358  6A43      	CLRF CompTempVar2695
035A  0EF0      	MOVLW 0xF0
035C  641F      	CPFSGT gbl_FCV_Y_LIGNE
035E  6620      	TSTFSZ gbl_FCV_Y_LIGNE+D'1'
0360  D001      	BRA	label30
0362  2A43      	INCF CompTempVar2695, F
0364            label30
0364  5243      	MOVF CompTempVar2695, F
0366  E1E2      	BNZ	label29
0368  0012      	RETURN
036A            ; } FCM_lignes function end

	ORG 0x0000036A
036A            FCD_0f051__0006D
036A            ; { FCD_0f051_gLCD_EB076_4D1__G4D_GetTouchCoordinatesPicaso ; function begin
036A  0E6F      	MOVLW 0x6F
036C  6E52      	MOVWF FC_CAL_UAR_00073_arg_nChar
036E  6A53      	CLRF FC_CAL_UAR_00073_arg_nChar+D'1'
0370  EC46F000  	CALL FC_CAL_UAR_00073
0374  0E04      	MOVLW 0x04
0376  6E52      	MOVWF FC_CAL_UAR_00073_arg_nChar
0378  6A53      	CLRF FC_CAL_UAR_00073_arg_nChar+D'1'
037A  EC46F000  	CALL FC_CAL_UAR_00073
037E  6852      	SETF FC_CAL_UAR_00072_arg_nTimeout
0380  EC4EF000  	CALL FC_CAL_UAR_00072
0384  6852      	SETF FC_CAL_UAR_00072_arg_nTimeout
0386  EC4EF000  	CALL FC_CAL_UAR_00072
038A  505B      	MOVF CompTempVarRet2723, W
038C  6E44      	MOVWF FCD_0f051__0006D_1_FCR_RETVAL
038E  6852      	SETF FC_CAL_UAR_00072_arg_nTimeout
0390  EC4EF000  	CALL FC_CAL_UAR_00072
0394  6852      	SETF FC_CAL_UAR_00072_arg_nTimeout
0396  EC4EF000  	CALL FC_CAL_UAR_00072
039A  5244      	MOVF FCD_0f051__0006D_1_FCR_RETVAL, F
039C  E032      	BZ	label31
039E  0E6F      	MOVLW 0x6F
03A0  6E52      	MOVWF FC_CAL_UAR_00073_arg_nChar
03A2  6A53      	CLRF FC_CAL_UAR_00073_arg_nChar+D'1'
03A4  EC46F000  	CALL FC_CAL_UAR_00073
03A8  0E05      	MOVLW 0x05
03AA  6E52      	MOVWF FC_CAL_UAR_00073_arg_nChar
03AC  6A53      	CLRF FC_CAL_UAR_00073_arg_nChar+D'1'
03AE  EC46F000  	CALL FC_CAL_UAR_00073
03B2  6852      	SETF FC_CAL_UAR_00072_arg_nTimeout
03B4  EC4EF000  	CALL FC_CAL_UAR_00072
03B8  505B      	MOVF CompTempVarRet2723, W
03BA  6E2D      	MOVWF gbl_FCV_0f051_gLCD_EB076_4_0000F
03BC  505C      	MOVF CompTempVarRet2723+D'1', W
03BE  6E2E      	MOVWF gbl_FCV_0f051_gLCD_EB076_4_0000F+D'1'
03C0  6852      	SETF FC_CAL_UAR_00072_arg_nTimeout
03C2  EC4EF000  	CALL FC_CAL_UAR_00072
03C6  505B      	MOVF CompTempVarRet2723, W
03C8  6E43      	MOVWF FCD_0f051__0006D_1_FCL_TEMP
03CA  6A45      	CLRF CompTempVar2705
03CC  502D      	MOVF gbl_FCV_0f051_gLCD_EB076_4_0000F, W
03CE  6E2E      	MOVWF gbl_FCV_0f051_gLCD_EB076_4_0000F+D'1'
03D0  5045      	MOVF CompTempVar2705, W
03D2  6E2D      	MOVWF gbl_FCV_0f051_gLCD_EB076_4_0000F
03D4  5043      	MOVF FCD_0f051__0006D_1_FCL_TEMP, W
03D6  122D      	IORWF gbl_FCV_0f051_gLCD_EB076_4_0000F, F
03D8  522E      	MOVF gbl_FCV_0f051_gLCD_EB076_4_0000F+D'1', F
03DA  6852      	SETF FC_CAL_UAR_00072_arg_nTimeout
03DC  EC4EF000  	CALL FC_CAL_UAR_00072
03E0  505B      	MOVF CompTempVarRet2723, W
03E2  6E2B      	MOVWF gbl_FCV_0f051_gLCD_EB076_4_0000E
03E4  505C      	MOVF CompTempVarRet2723+D'1', W
03E6  6E2C      	MOVWF gbl_FCV_0f051_gLCD_EB076_4_0000E+D'1'
03E8  6852      	SETF FC_CAL_UAR_00072_arg_nTimeout
03EA  EC4EF000  	CALL FC_CAL_UAR_00072
03EE  505B      	MOVF CompTempVarRet2723, W
03F0  6E43      	MOVWF FCD_0f051__0006D_1_FCL_TEMP
03F2  6A45      	CLRF CompTempVar2709
03F4  502B      	MOVF gbl_FCV_0f051_gLCD_EB076_4_0000E, W
03F6  6E2C      	MOVWF gbl_FCV_0f051_gLCD_EB076_4_0000E+D'1'
03F8  5045      	MOVF CompTempVar2709, W
03FA  6E2B      	MOVWF gbl_FCV_0f051_gLCD_EB076_4_0000E
03FC  5043      	MOVF FCD_0f051__0006D_1_FCL_TEMP, W
03FE  122B      	IORWF gbl_FCV_0f051_gLCD_EB076_4_0000E, F
0400  522C      	MOVF gbl_FCV_0f051_gLCD_EB076_4_0000E+D'1', F
0402            label31
0402  5044      	MOVF FCD_0f051__0006D_1_FCR_RETVAL, W
0404  6E45      	MOVWF CompTempVarRet2704
0406  0012      	RETURN
0408            ; } FCD_0f051_gLCD_EB076_4D1__G4D_GetTouchCoordinatesPicaso function end

	ORG 0x00000408
0408            FCD_0f051__00067
0408            ; { FCD_0f051_gLCD_EB076_4D1__G4D_EnableTouchscreenPicaso ; function begin
0408  0E59      	MOVLW 0x59
040A  6E52      	MOVWF FC_CAL_UAR_00073_arg_nChar
040C  6A53      	CLRF FC_CAL_UAR_00073_arg_nChar+D'1'
040E  EC46F000  	CALL FC_CAL_UAR_00073
0412  0E05      	MOVLW 0x05
0414  6E52      	MOVWF FC_CAL_UAR_00073_arg_nChar
0416  6A53      	CLRF FC_CAL_UAR_00073_arg_nChar+D'1'
0418  EC46F000  	CALL FC_CAL_UAR_00073
041C  6A52      	CLRF FC_CAL_UAR_00073_arg_nChar
041E  6A53      	CLRF FC_CAL_UAR_00073_arg_nChar+D'1'
0420  EC46F000  	CALL FC_CAL_UAR_00073
0424  6852      	SETF FC_CAL_UAR_00072_arg_nTimeout
0426  EC4EF000  	CALL FC_CAL_UAR_00072
042A  505B      	MOVF CompTempVarRet2723, W
042C  6E43      	MOVWF FCD_0f051__00067_1_FCR_RETVAL
042E  0E59      	MOVLW 0x59
0430  6E52      	MOVWF FC_CAL_UAR_00073_arg_nChar
0432  6A53      	CLRF FC_CAL_UAR_00073_arg_nChar+D'1'
0434  EC46F000  	CALL FC_CAL_UAR_00073
0438  0E05      	MOVLW 0x05
043A  6E52      	MOVWF FC_CAL_UAR_00073_arg_nChar
043C  6A53      	CLRF FC_CAL_UAR_00073_arg_nChar+D'1'
043E  EC46F000  	CALL FC_CAL_UAR_00073
0442  0E02      	MOVLW 0x02
0444  6E52      	MOVWF FC_CAL_UAR_00073_arg_nChar
0446  6A53      	CLRF FC_CAL_UAR_00073_arg_nChar+D'1'
0448  EC46F000  	CALL FC_CAL_UAR_00073
044C  6852      	SETF FC_CAL_UAR_00072_arg_nTimeout
044E  EC4EF000  	CALL FC_CAL_UAR_00072
0452  505B      	MOVF CompTempVarRet2723, W
0454  6E43      	MOVWF FCD_0f051__00067_1_FCR_RETVAL
0456  0E06      	MOVLW 0x06
0458  6243      	CPFSEQ FCD_0f051__00067_1_FCR_RETVAL
045A  D002      	BRA	label32
045C  6A43      	CLRF FCD_0f051__00067_1_FCR_RETVAL
045E  D001      	BRA	label33
0460            label32
0460  6843      	SETF FCD_0f051__00067_1_FCR_RETVAL
0462            label33
0462  5043      	MOVF FCD_0f051__00067_1_FCR_RETVAL, W
0464  6E44      	MOVWF CompTempVarRet2699
0466  0012      	RETURN
0468            ; } FCD_0f051_gLCD_EB076_4D1__G4D_EnableTouchscreenPicaso function end

	ORG 0x00000468
0468            FCD_0f051__00066
0468            ; { FCD_0f051_gLCD_EB076_4D1__G4D_DisableTouchscreenPicaso ; function begin
0468  0E59      	MOVLW 0x59
046A  6E52      	MOVWF FC_CAL_UAR_00073_arg_nChar
046C  6A53      	CLRF FC_CAL_UAR_00073_arg_nChar+D'1'
046E  EC46F000  	CALL FC_CAL_UAR_00073
0472  0E05      	MOVLW 0x05
0474  6E52      	MOVWF FC_CAL_UAR_00073_arg_nChar
0476  6A53      	CLRF FC_CAL_UAR_00073_arg_nChar+D'1'
0478  EC46F000  	CALL FC_CAL_UAR_00073
047C  0E01      	MOVLW 0x01
047E  6E52      	MOVWF FC_CAL_UAR_00073_arg_nChar
0480  6A53      	CLRF FC_CAL_UAR_00073_arg_nChar+D'1'
0482  EC46F000  	CALL FC_CAL_UAR_00073
0486  6852      	SETF FC_CAL_UAR_00072_arg_nTimeout
0488  EC4EF000  	CALL FC_CAL_UAR_00072
048C  505B      	MOVF CompTempVarRet2723, W
048E  6E43      	MOVWF FCD_0f051__00066_1_FCR_RETVAL
0490  0E06      	MOVLW 0x06
0492  6243      	CPFSEQ FCD_0f051__00066_1_FCR_RETVAL
0494  D002      	BRA	label34
0496  6A43      	CLRF FCD_0f051__00066_1_FCR_RETVAL
0498  D001      	BRA	label35
049A            label34
049A  6843      	SETF FCD_0f051__00066_1_FCR_RETVAL
049C            label35
049C  5043      	MOVF FCD_0f051__00066_1_FCR_RETVAL, W
049E  6E44      	MOVWF CompTempVarRet2698
04A0  0012      	RETURN
04A2            ; } FCD_0f051_gLCD_EB076_4D1__G4D_DisableTouchscreenPicaso function end

	ORG 0x000004A2
04A2            FCD_0f051__00063
04A2            ; { FCD_0f051_gLCD_EB076_4D1__Initialise ; function begin
04A2  6A47      	CLRF FCD_0f051__00063_2_ptmp
04A4  9A94      	BCF gbl_trisc,5
04A6  5247      	MOVF FCD_0f051__00063_2_ptmp, F
04A8  E004      	BZ	label36
04AA  0E20      	MOVLW 0x20
04AC  108B      	IORWF gbl_latc, W
04AE  6E82      	MOVWF gbl_portc
04B0  D003      	BRA	label37
04B2            label36
04B2  0EDF      	MOVLW 0xDF
04B4  148B      	ANDWF gbl_latc, W
04B6  6E82      	MOVWF gbl_portc
04B8            label37
04B8  ECA0F000  	CALL FC_CAL_UAR_00074
04BC  0E64      	MOVLW 0x64
04BE  6E47      	MOVWF delay_us_00000_arg_del
04C0  EC2EF000  	CALL delay_us_00000
04C4  0E0F      	MOVLW HIGH(gbl_portc+D'0')
04C6  6E48      	MOVWF FC_CAL_Por_00042_arg_Port+D'1'
04C8  0E82      	MOVLW LOW(gbl_portc+D'0')
04CA  6E47      	MOVWF FC_CAL_Por_00042_arg_Port
04CC  0E0F      	MOVLW HIGH(gbl_trisc+D'0')
04CE  6E4A      	MOVWF FC_CAL_Por_00042_arg_Tris+D'1'
04D0  0E94      	MOVLW LOW(gbl_trisc+D'0')
04D2  6E49      	MOVWF FC_CAL_Por_00042_arg_Tris
04D4  0E20      	MOVLW 0x20
04D6  6E4B      	MOVWF FC_CAL_Por_00042_arg_InMask
04D8  0E05      	MOVLW 0x05
04DA  6E4C      	MOVWF FC_CAL_Por_00042_arg_Shift
04DC  ECF1F000  	CALL FC_CAL_Por_00042
04E0  504D      	MOVF CompTempVarRet1822, W
04E2  6E46      	MOVWF FCD_0f051__00063_1_FCL_DUMMY
04E4  0E03      	MOVLW 0x03
04E6  6E47      	MOVWF delay_s_00000_arg_del
04E8  EC33F000  	CALL delay_s_00000
04EC  6A52      	CLRF FC_CAL_UAR_00072_arg_nTimeout
04EE  EC4EF000  	CALL FC_CAL_UAR_00072
04F2  6A52      	CLRF FC_CAL_UAR_00072_arg_nTimeout
04F4  EC4EF000  	CALL FC_CAL_UAR_00072
04F8  6A52      	CLRF FC_CAL_UAR_00072_arg_nTimeout
04FA  EC4EF000  	CALL FC_CAL_UAR_00072
04FE  0E55      	MOVLW 0x55
0500  6E52      	MOVWF FC_CAL_UAR_00073_arg_nChar
0502  6A53      	CLRF FC_CAL_UAR_00073_arg_nChar+D'1'
0504  EC46F000  	CALL FC_CAL_UAR_00073
0508  6852      	SETF FC_CAL_UAR_00072_arg_nTimeout
050A  EC4EF000  	CALL FC_CAL_UAR_00072
050E  0E51      	MOVLW 0x51
0510  6E52      	MOVWF FC_CAL_UAR_00073_arg_nChar
0512  6A53      	CLRF FC_CAL_UAR_00073_arg_nChar+D'1'
0514  EC46F000  	CALL FC_CAL_UAR_00073
0518  0E0C      	MOVLW 0x0C
051A  6E52      	MOVWF FC_CAL_UAR_00073_arg_nChar
051C  6A53      	CLRF FC_CAL_UAR_00073_arg_nChar+D'1'
051E  EC46F000  	CALL FC_CAL_UAR_00073
0522  6852      	SETF FC_CAL_UAR_00072_arg_nTimeout
0524  EC4EF000  	CALL FC_CAL_UAR_00072
0528  0E06      	MOVLW 0x06
052A  6E47      	MOVWF FC_CAL_UAR_00070_arg_new_baud
052C  ECA9F000  	CALL FC_CAL_UAR_00070
0530  0E0A      	MOVLW 0x0A
0532  6E52      	MOVWF FC_CAL_UAR_00072_arg_nTimeout
0534  EC4EF000  	CALL FC_CAL_UAR_00072
0538  0E0A      	MOVLW 0x0A
053A  6E52      	MOVWF FC_CAL_UAR_00072_arg_nTimeout
053C  EC4EF000  	CALL FC_CAL_UAR_00072
0540  6A43      	CLRF FCD_0f051__00063_1_FCL_RED
0542  3243      	RRCF FCD_0f051__00063_1_FCL_RED, F
0544  3243      	RRCF FCD_0f051__00063_1_FCL_RED, F
0546  3243      	RRCF FCD_0f051__00063_1_FCL_RED, F
0548  0E1F      	MOVLW 0x1F
054A  1643      	ANDWF FCD_0f051__00063_1_FCL_RED, F
054C  6A44      	CLRF FCD_0f051__00063_1_FCL_GREEN
054E  3244      	RRCF FCD_0f051__00063_1_FCL_GREEN, F
0550  3244      	RRCF FCD_0f051__00063_1_FCL_GREEN, F
0552  0E3F      	MOVLW 0x3F
0554  1644      	ANDWF FCD_0f051__00063_1_FCL_GREEN, F
0556  6A45      	CLRF FCD_0f051__00063_1_FCL_BLUE
0558  3245      	RRCF FCD_0f051__00063_1_FCL_BLUE, F
055A  3245      	RRCF FCD_0f051__00063_1_FCL_BLUE, F
055C  3245      	RRCF FCD_0f051__00063_1_FCL_BLUE, F
055E  0E1F      	MOVLW 0x1F
0560  1645      	ANDWF FCD_0f051__00063_1_FCL_BLUE, F
0562  5044      	MOVF FCD_0f051__00063_1_FCL_GREEN, W
0564  6E47      	MOVWF CompTempVar2671
0566  6A2A      	CLRF gbl_FCV_0f051_gLCD_EB076_4_0000D+D'1'
0568  3647      	RLCF CompTempVar2671, F
056A  362A      	RLCF gbl_FCV_0f051_gLCD_EB076_4_0000D+D'1', F
056C  3647      	RLCF CompTempVar2671, F
056E  362A      	RLCF gbl_FCV_0f051_gLCD_EB076_4_0000D+D'1', F
0570  3647      	RLCF CompTempVar2671, F
0572  362A      	RLCF gbl_FCV_0f051_gLCD_EB076_4_0000D+D'1', F
0574  3647      	RLCF CompTempVar2671, F
0576  362A      	RLCF gbl_FCV_0f051_gLCD_EB076_4_0000D+D'1', F
0578  3647      	RLCF CompTempVar2671, F
057A  362A      	RLCF gbl_FCV_0f051_gLCD_EB076_4_0000D+D'1', F
057C  0EE0      	MOVLW 0xE0
057E  1647      	ANDWF CompTempVar2671, F
0580  5047      	MOVF CompTempVar2671, W
0582  1045      	IORWF FCD_0f051__00063_1_FCL_BLUE, W
0584  6E29      	MOVWF gbl_FCV_0f051_gLCD_EB076_4_0000D
0586  6A47      	CLRF CompTempVar2675
0588  5043      	MOVF FCD_0f051__00063_1_FCL_RED, W
058A  6E48      	MOVWF CompTempVar2676
058C  90D8      	BCF STATUS,C
058E  3648      	RLCF CompTempVar2676, F
0590  90D8      	BCF STATUS,C
0592  3648      	RLCF CompTempVar2676, F
0594  90D8      	BCF STATUS,C
0596  3648      	RLCF CompTempVar2676, F
0598  5047      	MOVF CompTempVar2675, W
059A  1229      	IORWF gbl_FCV_0f051_gLCD_EB076_4_0000D, F
059C  5048      	MOVF CompTempVar2676, W
059E  122A      	IORWF gbl_FCV_0f051_gLCD_EB076_4_0000D+D'1', F
05A0  6843      	SETF FCD_0f051__00063_1_FCL_RED
05A2  3243      	RRCF FCD_0f051__00063_1_FCL_RED, F
05A4  3243      	RRCF FCD_0f051__00063_1_FCL_RED, F
05A6  3243      	RRCF FCD_0f051__00063_1_FCL_RED, F
05A8  0E1F      	MOVLW 0x1F
05AA  1643      	ANDWF FCD_0f051__00063_1_FCL_RED, F
05AC  6844      	SETF FCD_0f051__00063_1_FCL_GREEN
05AE  3244      	RRCF FCD_0f051__00063_1_FCL_GREEN, F
05B0  3244      	RRCF FCD_0f051__00063_1_FCL_GREEN, F
05B2  0E3F      	MOVLW 0x3F
05B4  1644      	ANDWF FCD_0f051__00063_1_FCL_GREEN, F
05B6  6845      	SETF FCD_0f051__00063_1_FCL_BLUE
05B8  3245      	RRCF FCD_0f051__00063_1_FCL_BLUE, F
05BA  3245      	RRCF FCD_0f051__00063_1_FCL_BLUE, F
05BC  3245      	RRCF FCD_0f051__00063_1_FCL_BLUE, F
05BE  0E1F      	MOVLW 0x1F
05C0  1645      	ANDWF FCD_0f051__00063_1_FCL_BLUE, F
05C2  5044      	MOVF FCD_0f051__00063_1_FCL_GREEN, W
05C4  6E47      	MOVWF CompTempVar2682
05C6  6A28      	CLRF gbl_FCV_0f051_gLCD_EB076_4_0000C+D'1'
05C8  3647      	RLCF CompTempVar2682, F
05CA  3628      	RLCF gbl_FCV_0f051_gLCD_EB076_4_0000C+D'1', F
05CC  3647      	RLCF CompTempVar2682, F
05CE  3628      	RLCF gbl_FCV_0f051_gLCD_EB076_4_0000C+D'1', F
05D0  3647      	RLCF CompTempVar2682, F
05D2  3628      	RLCF gbl_FCV_0f051_gLCD_EB076_4_0000C+D'1', F
05D4  3647      	RLCF CompTempVar2682, F
05D6  3628      	RLCF gbl_FCV_0f051_gLCD_EB076_4_0000C+D'1', F
05D8  3647      	RLCF CompTempVar2682, F
05DA  3628      	RLCF gbl_FCV_0f051_gLCD_EB076_4_0000C+D'1', F
05DC  0EE0      	MOVLW 0xE0
05DE  1647      	ANDWF CompTempVar2682, F
05E0  5047      	MOVF CompTempVar2682, W
05E2  1045      	IORWF FCD_0f051__00063_1_FCL_BLUE, W
05E4  6E27      	MOVWF gbl_FCV_0f051_gLCD_EB076_4_0000C
05E6  6A47      	CLRF CompTempVar2686
05E8  5043      	MOVF FCD_0f051__00063_1_FCL_RED, W
05EA  6E48      	MOVWF CompTempVar2687
05EC  90D8      	BCF STATUS,C
05EE  3648      	RLCF CompTempVar2687, F
05F0  90D8      	BCF STATUS,C
05F2  3648      	RLCF CompTempVar2687, F
05F4  90D8      	BCF STATUS,C
05F6  3648      	RLCF CompTempVar2687, F
05F8  5047      	MOVF CompTempVar2686, W
05FA  1227      	IORWF gbl_FCV_0f051_gLCD_EB076_4_0000C, F
05FC  5048      	MOVF CompTempVar2687, W
05FE  1228      	IORWF gbl_FCV_0f051_gLCD_EB076_4_0000C+D'1', F
0600  EC51F001  	CALL FCD_0f051__00064
0604  0E0A      	MOVLW 0x0A
0606  6E52      	MOVWF FC_CAL_UAR_00072_arg_nTimeout
0608  EC4EF000  	CALL FC_CAL_UAR_00072
060C  0E0A      	MOVLW 0x0A
060E  6E52      	MOVWF FC_CAL_UAR_00072_arg_nTimeout
0610  EC4EF000  	CALL FC_CAL_UAR_00072
0614  0012      	RETURN
0616            ; } FCD_0f051_gLCD_EB076_4D1__Initialise function end

	ORG 0x00000616
0616            FCM_Reinit_00065
0616            ; { FCM_Reinitialisation_tactile ; function begin
0616  EC34F002  	CALL FCD_0f051__00066
061A  EC04F002  	CALL FCD_0f051__00067
061E  0012      	RETURN
0620            ; } FCM_Reinitialisation_tactile function end

	ORG 0x00000620
0620            FCM_Recupe_0006C
0620            ; { FCM_Recuperation_coordonees ; function begin
0620  ECB5F001  	CALL FCD_0f051__0006D
0624  5045      	MOVF CompTempVarRet2704, W
0626  6E39      	MOVWF gbl_FCV_APPUI_ECRAN
0628  0012      	RETURN
062A            ; } FCM_Recuperation_coordonees function end

	ORG 0x0000062A
062A            FCM_Initia_00062
062A            ; { FCM_Initialisation ; function begin
062A  EC51F002  	CALL FCD_0f051__00063
062E  EC51F001  	CALL FCD_0f051__00064
0632  EC71F001  	CALL FCM_lignes_00000
0636  0012      	RETURN
0638            ; } FCM_Initialisation function end

	ORG 0x00000638
0638            FCD_0f051__00069
0638            ; { FCD_0f051_gLCD_EB076_4D1__G4D_ReadTouchCoordinatesPicaso ; function begin
0638  6A44      	CLRF FCD_0f051__00069_1_FCR_RETVAL
063A  6A45      	CLRF FCD_0f051__00069_1_FCR_RETVAL+D'1'
063C  5243      	MOVF FCD_0f051__00069_arg_FCL_AXIS, F
063E  E007      	BZ	label39
0640  0E78      	MOVLW 0x78
0642  6243      	CPFSEQ FCD_0f051__00069_arg_FCL_AXIS
0644  D001      	BRA	label38
0646  D003      	BRA	label39
0648            label38
0648  0E58      	MOVLW 0x58
064A  6243      	CPFSEQ FCD_0f051__00069_arg_FCL_AXIS
064C  D004      	BRA	label40
064E            label39
064E  502D      	MOVF gbl_FCV_0f051_gLCD_EB076_4_0000F, W
0650  6E44      	MOVWF FCD_0f051__00069_1_FCR_RETVAL
0652  502E      	MOVF gbl_FCV_0f051_gLCD_EB076_4_0000F+D'1', W
0654  6E45      	MOVWF FCD_0f051__00069_1_FCR_RETVAL+D'1'
0656            label40
0656  0443      	DECF FCD_0f051__00069_arg_FCL_AXIS, W
0658  E007      	BZ	label42
065A  0E79      	MOVLW 0x79
065C  6243      	CPFSEQ FCD_0f051__00069_arg_FCL_AXIS
065E  D001      	BRA	label41
0660  D003      	BRA	label42
0662            label41
0662  0E59      	MOVLW 0x59
0664  6243      	CPFSEQ FCD_0f051__00069_arg_FCL_AXIS
0666  D004      	BRA	label43
0668            label42
0668  502B      	MOVF gbl_FCV_0f051_gLCD_EB076_4_0000E, W
066A  6E44      	MOVWF FCD_0f051__00069_1_FCR_RETVAL
066C  502C      	MOVF gbl_FCV_0f051_gLCD_EB076_4_0000E+D'1', W
066E  6E45      	MOVWF FCD_0f051__00069_1_FCR_RETVAL+D'1'
0670            label43
0670  5044      	MOVF FCD_0f051__00069_1_FCR_RETVAL, W
0672  6E46      	MOVWF CompTempVarRet2700
0674  5045      	MOVF FCD_0f051__00069_1_FCR_RETVAL+D'1', W
0676  6E47      	MOVWF CompTempVarRet2700+D'1'
0678  0012      	RETURN
067A            ; } FCD_0f051_gLCD_EB076_4D1__G4D_ReadTouchCoordinatesPicaso function end

	ORG 0x0000067A
067A            main
067A            ; { main ; function begin
067A  0E0F      	MOVLW 0x0F
067C  6EC1      	MOVWF gbl_adcon1
067E  EC15F003  	CALL FCM_Initia_00062
0682            label44
0682  EC0BF003  	CALL FCM_Reinit_00065
0686            label45
0686  5239      	MOVF gbl_FCV_APPUI_ECRAN, F
0688  E103      	BNZ	label46
068A  EC10F003  	CALL FCM_Recupe_0006C
068E  D7FB      	BRA	label45
0690            label46
0690  6A43      	CLRF FCD_0f051__00069_arg_FCL_AXIS
0692  EC1CF003  	CALL FCD_0f051__00069
0696  5046      	MOVF CompTempVarRet2700, W
0698  6E25      	MOVWF gbl_FCV_X
069A  5047      	MOVF CompTempVarRet2700+D'1', W
069C  6E26      	MOVWF gbl_FCV_X+D'1'
069E  0E01      	MOVLW 0x01
06A0  6E43      	MOVWF FCD_0f051__00069_arg_FCL_AXIS
06A2  EC1CF003  	CALL FCD_0f051__00069
06A6  5046      	MOVF CompTempVarRet2700, W
06A8  6E23      	MOVWF gbl_FCV_Y
06AA  5047      	MOVF CompTempVarRet2700+D'1', W
06AC  6E24      	MOVWF gbl_FCV_Y+D'1'
06AE  6A39      	CLRF gbl_FCV_APPUI_ECRAN
06B0  6A38      	CLRF gbl_FCV_HITBOX
06B2  D7E7      	BRA	label44
06B4            ; } main function end

	ORG 0x000006B4
06B4            _startup
06B4  0ED5      	MOVLW 0xD5
06B6  6E05      	MOVWF gbl_14_LSR
06B8  0EC4      	MOVLW 0xC4
06BA  6E06      	MOVWF gbl_14_LSR+D'1'
06BC  0EBB      	MOVLW 0xBB
06BE  6E07      	MOVWF gbl_14_LSR+D'2'
06C0  0EDC      	MOVLW 0xDC
06C2  6E08      	MOVWF gbl_14_LSR+D'3'
06C4  6A09      	CLRF gbl_15_gbl_aSig
06C6  6A0A      	CLRF gbl_15_gbl_aSig+D'1'
06C8  6A0B      	CLRF gbl_15_gbl_aSig+D'2'
06CA  6A0C      	CLRF gbl_15_gbl_aSig+D'3'
06CC  6A0D      	CLRF gbl_15_gbl_bSig
06CE  6A0E      	CLRF gbl_15_gbl_bSig+D'1'
06D0  6A0F      	CLRF gbl_15_gbl_bSig+D'2'
06D2  6A10      	CLRF gbl_15_gbl_bSig+D'3'
06D4  6A11      	CLRF gbl_15_gbl_zSig
06D6  6A12      	CLRF gbl_15_gbl_zSig+D'1'
06D8  6A13      	CLRF gbl_15_gbl_zSig+D'2'
06DA  6A14      	CLRF gbl_15_gbl_zSig+D'3'
06DC  6A32      	CLRF gbl_15_gbl_aExp
06DE  6A33      	CLRF gbl_15_gbl_bExp
06E0  6A1D      	CLRF gbl_15_gbl_zExp
06E2  6A1E      	CLRF gbl_15_gbl_zExp+D'1'
06E4  6A34      	CLRF gbl_15_gbl_aSign
06E6  6A35      	CLRF gbl_15_gbl_bSign
06E8  6A36      	CLRF gbl_15_gbl_zSign
06EA  6A37      	CLRF gbl_15_gbl_zSigZero
06EC  6A15      	CLRF gbl_15_gbl_ret
06EE  6A16      	CLRF gbl_15_gbl_ret+D'1'
06F0  6A17      	CLRF gbl_15_gbl_ret+D'2'
06F2  6A18      	CLRF gbl_15_gbl_ret+D'3'
06F4  6A30      	CLRF gbl_float_rounding_mode
06F6  6A31      	CLRF gbl_float_exception_flags
06F8  6A2F      	CLRF gbl_float_detect_tininess
06FA  0E18      	MOVLW 0x18
06FC  6E1F      	MOVWF gbl_FCV_Y_LIGNE
06FE  6A20      	CLRF gbl_FCV_Y_LIGNE+D'1'
0700  0E18      	MOVLW 0x18
0702  6E21      	MOVWF gbl_FCV_X_LIGNE
0704  6A22      	CLRF gbl_FCV_X_LIGNE+D'1'
0706  0E00      	MOVLW 0x00
0708  6E3A      	MOVWF gbl_FCD_00fb8_ASCII6__INTL_00000
070A  0E01      	MOVLW 0x01
070C  6E3B      	MOVWF gbl_FCD_00fb7_ASCII7__INTL_00001
070E  0E02      	MOVLW 0x02
0710  6E3C      	MOVWF gbl_FCD_00fb6_ASCII5__INTL_00002
0712  0E03      	MOVLW 0x03
0714  6E3D      	MOVWF gbl_FCD_00fb5_ASCII4__INTL_00003
0716  0E04      	MOVLW 0x04
0718  6E3E      	MOVWF gbl_FCD_00fb4_ASCII3__INTL_00004
071A  0E05      	MOVLW 0x05
071C  6E3F      	MOVWF gbl_FCD_00fb3_ASCII2__INTL_00005
071E  0E06      	MOVLW 0x06
0720  6E40      	MOVWF gbl_FCD_00fb2_ASCII1__INTL_00006
0722  0E07      	MOVLW 0x07
0724  6E41      	MOVWF gbl_FCD_00fb1_ASCII0__INTL_00007
0726  6A19      	CLRF gbl_FCV_0ba71_Base_GLCD__P_00009
0728  6A1A      	CLRF gbl_FCV_0ba71_Base_GLCD__P_00009+D'1'
072A  6A1B      	CLRF gbl_FCV_0ba71_Base_GLCD__P_00009+D'2'
072C  6A1C      	CLRF gbl_FCV_0ba71_Base_GLCD__P_00009+D'3'
072E  6A42      	CLRF gbl_FCV_0ba71_Base_GLCD__O_0000B
0730  EF3DF003  	GOTO	main
	ORG 0x00000734
0734            interrupt
0734            ; { interrupt ; function begin
0734  CFEAF001  	MOVFF FSR0H,  Int1Context
0738  CFE9F002  	MOVFF FSR0L,  Int1Context+D'1'
073C  CFF4F003  	MOVFF PRODH,  Int1Context+D'2'
0740  CFF3F004  	MOVFF PRODL,  Int1Context+D'3'
0744  C004FFF3  	MOVFF Int1Context+D'3',  PRODL
0748  C003FFF4  	MOVFF Int1Context+D'2',  PRODH
074C  C002FFE9  	MOVFF Int1Context+D'1',  FSR0L
0750  C001FFEA  	MOVFF Int1Context,  FSR0H
0754  0011      	RETFIE 1
0756            ; } interrupt function end

	ORG 0x00300000
300000  32FF      	DW 0x32FF
300002  FEFF      	DW 0xFEFF
300004  FBFF      	DW 0xFBFF
300006  FFBA      	DW 0xFFBA
300008  FFFF      	DW 0xFFFF
30000A  FFFF      	DW 0xFFFF
30000C  FFFF      	DW 0xFFFF
