;/////////////////////////////////////////////////////////////////////////////////
;// Code Generator: BoostC Compiler - http://www.sourceboost.com
;// Version       : 7.20
;// License Type  : Pro License
;// Limitations   : PIC18 max code size:Unlimited, max RAM banks:Unlimited
;/////////////////////////////////////////////////////////////////////////////////

	ORG 0x00000000
0000  EFDAF004  	GOTO	_startup
	ORG 0x00000008
0008  EF14F005  	GOTO	interrupt
	ORG 0x0000000C
000C            delay_ms_00000
000C            ; { delay_ms ; function begin
000C  5243      	MOVF delay_ms_00000_arg_del, F
000E  0000      	NOP
0010  E101      	BNZ	label1
0012  0012      	RETURN
0014            label1
0014  0EF5      	MOVLW 0xF5
0016            label2
0016  0000      	NOP
0018  0000      	NOP
001A  0000      	NOP
001C  0000      	NOP
001E  0000      	NOP
0020  0000      	NOP
0022  0000      	NOP
0024  0000      	NOP
0026  0000      	NOP
0028  0000      	NOP
002A  0000      	NOP
002C  0000      	NOP
002E  0000      	NOP
0030  0000      	NOP
0032  0000      	NOP
0034  0000      	NOP
0036  0FFF      	ADDLW 0xFF
0038  A4D8      	BTFSS STATUS,Z
003A  D7ED      	BRA	label2
003C  0000      	NOP
003E  0000      	NOP
0040  0000      	NOP
0042  0000      	NOP
0044  0000      	NOP
0046  0000      	NOP
0048  0000      	NOP
004A  0000      	NOP
004C  0000      	NOP
004E  0000      	NOP
0050  0000      	NOP
0052  0000      	NOP
0054  0000      	NOP
0056  2E43      	DECFSZ delay_ms_00000_arg_del, F
0058  D7DD      	BRA	label1
005A  0012      	RETURN
005C            ; } delay_ms function end

	ORG 0x0000005C
005C            delay_us_00000
005C            ; { delay_us ; function begin
005C            label3
005C  0000      	NOP
005E  0000      	NOP
0060  2E42      	DECFSZ delay_us_00000_arg_del, F
0062  D7FC      	BRA	label3
0064  0012      	RETURN
0066            ; } delay_us function end

	ORG 0x00000066
0066            delay_s_00000
0066            ; { delay_s ; function begin
0066            label4
0066  0EFA      	MOVLW 0xFA
0068  6E43      	MOVWF delay_ms_00000_arg_del
006A  EC06F000  	CALL delay_ms_00000
006E  0EFA      	MOVLW 0xFA
0070  6E43      	MOVWF delay_ms_00000_arg_del
0072  EC06F000  	CALL delay_ms_00000
0076  0EFA      	MOVLW 0xFA
0078  6E43      	MOVWF delay_ms_00000_arg_del
007A  EC06F000  	CALL delay_ms_00000
007E  0EFA      	MOVLW 0xFA
0080  6E43      	MOVWF delay_ms_00000_arg_del
0082  EC06F000  	CALL delay_ms_00000
0086  2E42      	DECFSZ delay_s_00000_arg_del, F
0088  D7EE      	BRA	label4
008A  0012      	RETURN
008C            ; } delay_s function end

	ORG 0x0000008C
008C            FC_CAL_UAR_0006E
008C            ; { FC_CAL_UART_Send_1 ; function begin
008C            label5
008C  0E10      	MOVLW 0x10
008E  149E      	ANDWF gbl_pir1, W
0090  6E4E      	MOVWF CompTempVar2690
0092  524E      	MOVF CompTempVar2690, F
0094  E0FB      	BZ	label5
0096  504C      	MOVF FC_CAL_UAR_0006E_arg_nChar, W
0098  6EAD      	MOVWF gbl_txreg
009A  0012      	RETURN
009C            ; } FC_CAL_UART_Send_1 function end

	ORG 0x0000009C
009C            FC_CAL_UAR_0006D
009C            ; { FC_CAL_UART_Receive_1 ; function begin
009C  684D      	SETF FC_CAL_UAR_0006D_1_retVal
009E  6A4E      	CLRF FC_CAL_UAR_0006D_1_delay1
00A0  6A4F      	CLRF FC_CAL_UAR_0006D_1_regcheck
00A2  6A50      	CLRF FC_CAL_UAR_0006D_1_bWaitForever
00A4  6A51      	CLRF FC_CAL_UAR_0006D_1_rxStatus
00A6  6A54      	CLRF FC_CAL_UAR_0006D_1_dummy
00A8  284C      	INCF FC_CAL_UAR_0006D_arg_nTimeout, W
00AA  E102      	BNZ	label6
00AC  0E01      	MOVLW 0x01
00AE  6E50      	MOVWF FC_CAL_UAR_0006D_1_bWaitForever
00B0            label6
00B0  5251      	MOVF FC_CAL_UAR_0006D_1_rxStatus, F
00B2  E124      	BNZ	label11
00B4  5250      	MOVF FC_CAL_UAR_0006D_1_bWaitForever, F
00B6  E118      	BNZ	label10
00B8  524C      	MOVF FC_CAL_UAR_0006D_arg_nTimeout, F
00BA  E103      	BNZ	label7
00BC  0E01      	MOVLW 0x01
00BE  6E51      	MOVWF FC_CAL_UAR_0006D_1_rxStatus
00C0  D013      	BRA	label10
00C2            label7
00C2  6A52      	CLRF FC_CAL_UAR_0006D_1_delaycnt
00C4  6A53      	CLRF FC_CAL_UAR_0006D_1_delaycnt+D'1'
00C6            label8
00C6  0E31      	MOVLW 0x31
00C8  5C52      	SUBWF FC_CAL_UAR_0006D_1_delaycnt, W
00CA  E205      	BC	label9
00CC  6653      	TSTFSZ FC_CAL_UAR_0006D_1_delaycnt+D'1'
00CE  D003      	BRA	label9
00D0  4A52      	INFSNZ FC_CAL_UAR_0006D_1_delaycnt, F
00D2  2A53      	INCF FC_CAL_UAR_0006D_1_delaycnt+D'1', F
00D4  D7F8      	BRA	label8
00D6            label9
00D6  284E      	INCF FC_CAL_UAR_0006D_1_delay1, W
00D8  6E4E      	MOVWF FC_CAL_UAR_0006D_1_delay1
00DA  0E64      	MOVLW 0x64
00DC  624E      	CPFSEQ FC_CAL_UAR_0006D_1_delay1
00DE  D004      	BRA	label10
00E0  044C      	DECF FC_CAL_UAR_0006D_arg_nTimeout, W
00E2  6E4C      	MOVWF FC_CAL_UAR_0006D_arg_nTimeout
00E4  0004      	CLRWDT
00E6  6A4E      	CLRF FC_CAL_UAR_0006D_1_delay1
00E8            label10
00E8  0E20      	MOVLW 0x20
00EA  149E      	ANDWF gbl_pir1, W
00EC  6E55      	MOVWF CompTempVar2687
00EE  5055      	MOVF CompTempVar2687, W
00F0  6E4F      	MOVWF FC_CAL_UAR_0006D_1_regcheck
00F2  524F      	MOVF FC_CAL_UAR_0006D_1_regcheck, F
00F4  E0DD      	BZ	label6
00F6  0E02      	MOVLW 0x02
00F8  6E51      	MOVWF FC_CAL_UAR_0006D_1_rxStatus
00FA  D7DA      	BRA	label6
00FC            label11
00FC  0E02      	MOVLW 0x02
00FE  6251      	CPFSEQ FC_CAL_UAR_0006D_1_rxStatus
0100  D018      	BRA	label14
0102  0E04      	MOVLW 0x04
0104  14AB      	ANDWF gbl_rcsta, W
0106  6E55      	MOVWF CompTempVar2688
0108  5055      	MOVF CompTempVar2688, W
010A  6E4F      	MOVWF FC_CAL_UAR_0006D_1_regcheck
010C  524F      	MOVF FC_CAL_UAR_0006D_1_regcheck, F
010E  E003      	BZ	label12
0110  50AE      	MOVF gbl_rcreg, W
0112  6E54      	MOVWF FC_CAL_UAR_0006D_1_dummy
0114  D00E      	BRA	label14
0116            label12
0116  0E02      	MOVLW 0x02
0118  14AB      	ANDWF gbl_rcsta, W
011A  6E55      	MOVWF CompTempVar2689
011C  5055      	MOVF CompTempVar2689, W
011E  6E4F      	MOVWF FC_CAL_UAR_0006D_1_regcheck
0120  524F      	MOVF FC_CAL_UAR_0006D_1_regcheck, F
0122  E003      	BZ	label13
0124  98AB      	BCF gbl_rcsta,4
0126  88AB      	BSF gbl_rcsta,4
0128  D004      	BRA	label14
012A            label13
012A  6A4D      	CLRF FC_CAL_UAR_0006D_1_retVal
012C  50AE      	MOVF gbl_rcreg, W
012E  104D      	IORWF FC_CAL_UAR_0006D_1_retVal, W
0130  6E4D      	MOVWF FC_CAL_UAR_0006D_1_retVal
0132            label14
0132  504D      	MOVF FC_CAL_UAR_0006D_1_retVal, W
0134  6E55      	MOVWF CompTempVarRet2686
0136  6A56      	CLRF CompTempVarRet2686+D'1'
0138  0012      	RETURN
013A            ; } FC_CAL_UART_Receive_1 function end

	ORG 0x0000013A
013A            FC_CAL_UAR_0006C
013A            ; { FC_CAL_UART_Uninit_1 ; function begin
013A  6AAB      	CLRF gbl_rcsta
013C  6AAC      	CLRF gbl_txsta
013E  0012      	RETURN
0140            ; } FC_CAL_UART_Uninit_1 function end

	ORG 0x00000140
0140            FC_CAL_UAR_0006F
0140            ; { FC_CAL_UART_Init_1 ; function begin
0140  84AC      	BSF gbl_txsta,2
0142  0E7F      	MOVLW 0x7F
0144  6EAF      	MOVWF gbl_spbrg
0146  6AAB      	CLRF gbl_rcsta
0148  8EAB      	BSF gbl_rcsta,7
014A  8AAC      	BSF gbl_txsta,5
014C  88AB      	BSF gbl_rcsta,4
014E  9A9D      	BCF gbl_pie1,5
0150  0012      	RETURN
0152            ; } FC_CAL_UART_Init_1 function end

	ORG 0x00000152
0152            FC_CAL_UAR_0006B
0152            ; { FC_CAL_UART_UpdateBaud_1 ; function begin
0152  0E07      	MOVLW 0x07
0154  6442      	CPFSGT FC_CAL_UAR_0006B_arg_new_baud
0156  D001      	BRA	label15
0158  0012      	RETURN
015A            label15
015A  5242      	MOVF FC_CAL_UAR_0006B_arg_new_baud, F
015C  E104      	BNZ	label16
015E  6843      	SETF FC_CAL_UAR_0006B_1_baudrate
0160  0E01      	MOVLW 0x01
0162  6E44      	MOVWF FC_CAL_UAR_0006B_1_baudmode
0164  D02F      	BRA	label23
0166            label16
0166  0442      	DECF FC_CAL_UAR_0006B_arg_new_baud, W
0168  E105      	BNZ	label17
016A  0E7F      	MOVLW 0x7F
016C  6E43      	MOVWF FC_CAL_UAR_0006B_1_baudrate
016E  0E01      	MOVLW 0x01
0170  6E44      	MOVWF FC_CAL_UAR_0006B_1_baudmode
0172  D028      	BRA	label23
0174            label17
0174  0E02      	MOVLW 0x02
0176  6242      	CPFSEQ FC_CAL_UAR_0006B_arg_new_baud
0178  D003      	BRA	label18
017A  6843      	SETF FC_CAL_UAR_0006B_1_baudrate
017C  6A44      	CLRF FC_CAL_UAR_0006B_1_baudmode
017E  D022      	BRA	label23
0180            label18
0180  0E03      	MOVLW 0x03
0182  6242      	CPFSEQ FC_CAL_UAR_0006B_arg_new_baud
0184  D004      	BRA	label19
0186  0E7F      	MOVLW 0x7F
0188  6E43      	MOVWF FC_CAL_UAR_0006B_1_baudrate
018A  6A44      	CLRF FC_CAL_UAR_0006B_1_baudmode
018C  D01B      	BRA	label23
018E            label19
018E  0E04      	MOVLW 0x04
0190  6242      	CPFSEQ FC_CAL_UAR_0006B_arg_new_baud
0192  D004      	BRA	label20
0194  0E3F      	MOVLW 0x3F
0196  6E43      	MOVWF FC_CAL_UAR_0006B_1_baudrate
0198  6A44      	CLRF FC_CAL_UAR_0006B_1_baudmode
019A  D014      	BRA	label23
019C            label20
019C  0E05      	MOVLW 0x05
019E  6242      	CPFSEQ FC_CAL_UAR_0006B_arg_new_baud
01A0  D004      	BRA	label21
01A2  0E1F      	MOVLW 0x1F
01A4  6E43      	MOVWF FC_CAL_UAR_0006B_1_baudrate
01A6  6A44      	CLRF FC_CAL_UAR_0006B_1_baudmode
01A8  D00D      	BRA	label23
01AA            label21
01AA  0E06      	MOVLW 0x06
01AC  6242      	CPFSEQ FC_CAL_UAR_0006B_arg_new_baud
01AE  D004      	BRA	label22
01B0  0E14      	MOVLW 0x14
01B2  6E43      	MOVWF FC_CAL_UAR_0006B_1_baudrate
01B4  6A44      	CLRF FC_CAL_UAR_0006B_1_baudmode
01B6  D006      	BRA	label23
01B8            label22
01B8  0E07      	MOVLW 0x07
01BA  6242      	CPFSEQ FC_CAL_UAR_0006B_arg_new_baud
01BC  D003      	BRA	label23
01BE  0E0A      	MOVLW 0x0A
01C0  6E43      	MOVWF FC_CAL_UAR_0006B_1_baudrate
01C2  6A44      	CLRF FC_CAL_UAR_0006B_1_baudmode
01C4            label23
01C4  EC9DF000  	CALL FC_CAL_UAR_0006C
01C8  0444      	DECF FC_CAL_UAR_0006B_1_baudmode, W
01CA  E102      	BNZ	label24
01CC  94AC      	BCF gbl_txsta,2
01CE  D001      	BRA	label25
01D0            label24
01D0  84AC      	BSF gbl_txsta,2
01D2            label25
01D2  5043      	MOVF FC_CAL_UAR_0006B_1_baudrate, W
01D4  6EAF      	MOVWF gbl_spbrg
01D6  6AAB      	CLRF gbl_rcsta
01D8  8EAB      	BSF gbl_rcsta,7
01DA  8AAC      	BSF gbl_txsta,5
01DC  88AB      	BSF gbl_rcsta,4
01DE  9A9D      	BCF gbl_pie1,5
01E0  0012      	RETURN
01E2            ; } FC_CAL_UART_UpdateBaud_1 function end

	ORG 0x000001E2
01E2            FC_CAL_Por_00042
01E2            ; { FC_CAL_Port_In_DDR__x ; function begin
01E2  5045      	MOVF FC_CAL_Por_00042_arg_Tris+D'1', W
01E4  6EEA      	MOVWF FSR0H
01E6  5044      	MOVF FC_CAL_Por_00042_arg_Tris, W
01E8  6EE9      	MOVWF FSR0L
01EA  5046      	MOVF FC_CAL_Por_00042_arg_InMask, W
01EC  10EF      	IORWF INDF0, W
01EE  6E48      	MOVWF CompTempVar1825
01F0  5048      	MOVF CompTempVar1825, W
01F2  6EEF      	MOVWF INDF0
01F4  5043      	MOVF FC_CAL_Por_00042_arg_Port+D'1', W
01F6  6EEA      	MOVWF FSR0H
01F8  5042      	MOVF FC_CAL_Por_00042_arg_Port, W
01FA  6EE9      	MOVWF FSR0L
01FC  5046      	MOVF FC_CAL_Por_00042_arg_InMask, W
01FE  14EF      	ANDWF INDF0, W
0200  6E48      	MOVWF CompTempVarRet1822
0202  5047      	MOVF FC_CAL_Por_00042_arg_Shift, W
0204  6E49      	MOVWF CompTempVar1827
0206            label26
0206  B4D8      	BTFSC STATUS,Z
0208  0012      	RETURN
020A  90D8      	BCF STATUS,C
020C  3248      	RRCF CompTempVarRet1822, F
020E  0649      	DECF CompTempVar1827, F
0210  D7FA      	BRA	label26
0212            ; } FC_CAL_Port_In_DDR__x function end

	ORG 0x00000212
0212            FCD_0f051__00063
0212            ; { FCD_0f051_gLCD_EB076_4D1__DrawLine ; function begin
0212  6A46      	CLRF FCD_0f051__00063_1_FCL_D1
0214  6A47      	CLRF FCD_0f051__00063_1_FCL_D1+D'1'
0216  0E01      	MOVLW 0x01
0218  6E48      	MOVWF FCD_0f051__00063_1_FCL_YINC
021A  6A49      	CLRF FCD_0f051__00063_1_FCL_YINC+D'1'
021C  0E01      	MOVLW 0x01
021E  6E4A      	MOVWF FCD_0f051__00063_1_FCL_XINC
0220  6A4B      	CLRF FCD_0f051__00063_1_FCL_XINC+D'1'
0222  0E4C      	MOVLW 0x4C
0224  6E4C      	MOVWF FC_CAL_UAR_0006E_arg_nChar
0226  6A4D      	CLRF FC_CAL_UAR_0006E_arg_nChar+D'1'
0228  EC46F000  	CALL FC_CAL_UAR_0006E
022C  503F      	MOVF FCD_0f051__00063_arg_FCL_X1+D'1', W
022E  6E4C      	MOVWF FC_CAL_UAR_0006E_arg_nChar
0230  6A4D      	CLRF FC_CAL_UAR_0006E_arg_nChar+D'1'
0232  EC46F000  	CALL FC_CAL_UAR_0006E
0236  503E      	MOVF FCD_0f051__00063_arg_FCL_X1, W
0238  6E4C      	MOVWF FC_CAL_UAR_0006E_arg_nChar
023A  503F      	MOVF FCD_0f051__00063_arg_FCL_X1+D'1', W
023C  6E4D      	MOVWF FC_CAL_UAR_0006E_arg_nChar+D'1'
023E  EC46F000  	CALL FC_CAL_UAR_0006E
0242  5041      	MOVF FCD_0f051__00063_arg_FCL_Y1+D'1', W
0244  6E4C      	MOVWF FC_CAL_UAR_0006E_arg_nChar
0246  6A4D      	CLRF FC_CAL_UAR_0006E_arg_nChar+D'1'
0248  EC46F000  	CALL FC_CAL_UAR_0006E
024C  5040      	MOVF FCD_0f051__00063_arg_FCL_Y1, W
024E  6E4C      	MOVWF FC_CAL_UAR_0006E_arg_nChar
0250  5041      	MOVF FCD_0f051__00063_arg_FCL_Y1+D'1', W
0252  6E4D      	MOVWF FC_CAL_UAR_0006E_arg_nChar+D'1'
0254  EC46F000  	CALL FC_CAL_UAR_0006E
0258  5043      	MOVF FCD_0f051__00063_arg_FCL_X2+D'1', W
025A  6E4C      	MOVWF FC_CAL_UAR_0006E_arg_nChar
025C  6A4D      	CLRF FC_CAL_UAR_0006E_arg_nChar+D'1'
025E  EC46F000  	CALL FC_CAL_UAR_0006E
0262  5042      	MOVF FCD_0f051__00063_arg_FCL_X2, W
0264  6E4C      	MOVWF FC_CAL_UAR_0006E_arg_nChar
0266  5043      	MOVF FCD_0f051__00063_arg_FCL_X2+D'1', W
0268  6E4D      	MOVWF FC_CAL_UAR_0006E_arg_nChar+D'1'
026A  EC46F000  	CALL FC_CAL_UAR_0006E
026E  5045      	MOVF FCD_0f051__00063_arg_FCL_Y2+D'1', W
0270  6E4C      	MOVWF FC_CAL_UAR_0006E_arg_nChar
0272  6A4D      	CLRF FC_CAL_UAR_0006E_arg_nChar+D'1'
0274  EC46F000  	CALL FC_CAL_UAR_0006E
0278  5044      	MOVF FCD_0f051__00063_arg_FCL_Y2, W
027A  6E4C      	MOVWF FC_CAL_UAR_0006E_arg_nChar
027C  5045      	MOVF FCD_0f051__00063_arg_FCL_Y2+D'1', W
027E  6E4D      	MOVWF FC_CAL_UAR_0006E_arg_nChar+D'1'
0280  EC46F000  	CALL FC_CAL_UAR_0006E
0284  5026      	MOVF gbl_FCV_0f051_gLCD_EB076_4_0000D+D'1', W
0286  6E4C      	MOVWF FC_CAL_UAR_0006E_arg_nChar
0288  6A4D      	CLRF FC_CAL_UAR_0006E_arg_nChar+D'1'
028A  EC46F000  	CALL FC_CAL_UAR_0006E
028E  5025      	MOVF gbl_FCV_0f051_gLCD_EB076_4_0000D, W
0290  6E4C      	MOVWF FC_CAL_UAR_0006E_arg_nChar
0292  5026      	MOVF gbl_FCV_0f051_gLCD_EB076_4_0000D+D'1', W
0294  6E4D      	MOVWF FC_CAL_UAR_0006E_arg_nChar+D'1'
0296  EC46F000  	CALL FC_CAL_UAR_0006E
029A  684C      	SETF FC_CAL_UAR_0006D_arg_nTimeout
029C  EC4EF000  	CALL FC_CAL_UAR_0006D
02A0  0012      	RETURN
02A2            ; } FCD_0f051_gLCD_EB076_4D1__DrawLine function end

	ORG 0x000002A2
02A2            FCD_0f051__0005D
02A2            ; { FCD_0f051_gLCD_EB076_4D1__ClearDisplay ; function begin
02A2  6A42      	CLRF FCD_0f051__0005D_1_FCL_Y
02A4  6A43      	CLRF FCD_0f051__0005D_1_FCL_Y+D'1'
02A6  6A44      	CLRF FCD_0f051__0005D_1_FCL_X
02A8  6A45      	CLRF FCD_0f051__0005D_1_FCL_X+D'1'
02AA  0E42      	MOVLW 0x42
02AC  6E4C      	MOVWF FC_CAL_UAR_0006E_arg_nChar
02AE  6A4D      	CLRF FC_CAL_UAR_0006E_arg_nChar+D'1'
02B0  EC46F000  	CALL FC_CAL_UAR_0006E
02B4  5024      	MOVF gbl_FCV_0f051_gLCD_EB076_4_0000C+D'1', W
02B6  6E4C      	MOVWF FC_CAL_UAR_0006E_arg_nChar
02B8  6A4D      	CLRF FC_CAL_UAR_0006E_arg_nChar+D'1'
02BA  EC46F000  	CALL FC_CAL_UAR_0006E
02BE  5023      	MOVF gbl_FCV_0f051_gLCD_EB076_4_0000C, W
02C0  6E4C      	MOVWF FC_CAL_UAR_0006E_arg_nChar
02C2  5024      	MOVF gbl_FCV_0f051_gLCD_EB076_4_0000C+D'1', W
02C4  6E4D      	MOVWF FC_CAL_UAR_0006E_arg_nChar+D'1'
02C6  EC46F000  	CALL FC_CAL_UAR_0006E
02CA  684C      	SETF FC_CAL_UAR_0006D_arg_nTimeout
02CC  EC4EF000  	CALL FC_CAL_UAR_0006D
02D0  0E45      	MOVLW 0x45
02D2  6E4C      	MOVWF FC_CAL_UAR_0006E_arg_nChar
02D4  6A4D      	CLRF FC_CAL_UAR_0006E_arg_nChar+D'1'
02D6  EC46F000  	CALL FC_CAL_UAR_0006E
02DA  684C      	SETF FC_CAL_UAR_0006D_arg_nTimeout
02DC  EC4EF000  	CALL FC_CAL_UAR_0006D
02E0  0012      	RETURN
02E2            ; } FCD_0f051_gLCD_EB076_4D1__ClearDisplay function end

	ORG 0x000002E2
02E2            FCM_lignes_0005F
02E2            ; { FCM_lignesV ; function begin
02E2  0E18      	MOVLW 0x18
02E4  6E3E      	MOVWF FCD_0f051__00063_arg_FCL_X1
02E6  6A3F      	CLRF FCD_0f051__00063_arg_FCL_X1+D'1'
02E8  6A40      	CLRF FCD_0f051__00063_arg_FCL_Y1
02EA  6A41      	CLRF FCD_0f051__00063_arg_FCL_Y1+D'1'
02EC  0E18      	MOVLW 0x18
02EE  6E42      	MOVWF FCD_0f051__00063_arg_FCL_X2
02F0  6A43      	CLRF FCD_0f051__00063_arg_FCL_X2+D'1'
02F2  0EF0      	MOVLW 0xF0
02F4  6E44      	MOVWF FCD_0f051__00063_arg_FCL_Y2
02F6  6A45      	CLRF FCD_0f051__00063_arg_FCL_Y2+D'1'
02F8  EC09F001  	CALL FCD_0f051__00063
02FC  0E30      	MOVLW 0x30
02FE  6E3E      	MOVWF FCD_0f051__00063_arg_FCL_X1
0300  6A3F      	CLRF FCD_0f051__00063_arg_FCL_X1+D'1'
0302  6A40      	CLRF FCD_0f051__00063_arg_FCL_Y1
0304  6A41      	CLRF FCD_0f051__00063_arg_FCL_Y1+D'1'
0306  0E30      	MOVLW 0x30
0308  6E42      	MOVWF FCD_0f051__00063_arg_FCL_X2
030A  6A43      	CLRF FCD_0f051__00063_arg_FCL_X2+D'1'
030C  0EF0      	MOVLW 0xF0
030E  6E44      	MOVWF FCD_0f051__00063_arg_FCL_Y2
0310  6A45      	CLRF FCD_0f051__00063_arg_FCL_Y2+D'1'
0312  EC09F001  	CALL FCD_0f051__00063
0316  0E48      	MOVLW 0x48
0318  6E3E      	MOVWF FCD_0f051__00063_arg_FCL_X1
031A  6A3F      	CLRF FCD_0f051__00063_arg_FCL_X1+D'1'
031C  6A40      	CLRF FCD_0f051__00063_arg_FCL_Y1
031E  6A41      	CLRF FCD_0f051__00063_arg_FCL_Y1+D'1'
0320  0E48      	MOVLW 0x48
0322  6E42      	MOVWF FCD_0f051__00063_arg_FCL_X2
0324  6A43      	CLRF FCD_0f051__00063_arg_FCL_X2+D'1'
0326  0EF0      	MOVLW 0xF0
0328  6E44      	MOVWF FCD_0f051__00063_arg_FCL_Y2
032A  6A45      	CLRF FCD_0f051__00063_arg_FCL_Y2+D'1'
032C  EC09F001  	CALL FCD_0f051__00063
0330  0E60      	MOVLW 0x60
0332  6E3E      	MOVWF FCD_0f051__00063_arg_FCL_X1
0334  6A3F      	CLRF FCD_0f051__00063_arg_FCL_X1+D'1'
0336  6A40      	CLRF FCD_0f051__00063_arg_FCL_Y1
0338  6A41      	CLRF FCD_0f051__00063_arg_FCL_Y1+D'1'
033A  0E60      	MOVLW 0x60
033C  6E42      	MOVWF FCD_0f051__00063_arg_FCL_X2
033E  6A43      	CLRF FCD_0f051__00063_arg_FCL_X2+D'1'
0340  0EF0      	MOVLW 0xF0
0342  6E44      	MOVWF FCD_0f051__00063_arg_FCL_Y2
0344  6A45      	CLRF FCD_0f051__00063_arg_FCL_Y2+D'1'
0346  EC09F001  	CALL FCD_0f051__00063
034A  0E78      	MOVLW 0x78
034C  6E3E      	MOVWF FCD_0f051__00063_arg_FCL_X1
034E  6A3F      	CLRF FCD_0f051__00063_arg_FCL_X1+D'1'
0350  6A40      	CLRF FCD_0f051__00063_arg_FCL_Y1
0352  6A41      	CLRF FCD_0f051__00063_arg_FCL_Y1+D'1'
0354  0E78      	MOVLW 0x78
0356  6E42      	MOVWF FCD_0f051__00063_arg_FCL_X2
0358  6A43      	CLRF FCD_0f051__00063_arg_FCL_X2+D'1'
035A  0EF0      	MOVLW 0xF0
035C  6E44      	MOVWF FCD_0f051__00063_arg_FCL_Y2
035E  6A45      	CLRF FCD_0f051__00063_arg_FCL_Y2+D'1'
0360  EC09F001  	CALL FCD_0f051__00063
0364  0E90      	MOVLW 0x90
0366  6E3E      	MOVWF FCD_0f051__00063_arg_FCL_X1
0368  6A3F      	CLRF FCD_0f051__00063_arg_FCL_X1+D'1'
036A  6A40      	CLRF FCD_0f051__00063_arg_FCL_Y1
036C  6A41      	CLRF FCD_0f051__00063_arg_FCL_Y1+D'1'
036E  0E90      	MOVLW 0x90
0370  6E42      	MOVWF FCD_0f051__00063_arg_FCL_X2
0372  6A43      	CLRF FCD_0f051__00063_arg_FCL_X2+D'1'
0374  0EF0      	MOVLW 0xF0
0376  6E44      	MOVWF FCD_0f051__00063_arg_FCL_Y2
0378  6A45      	CLRF FCD_0f051__00063_arg_FCL_Y2+D'1'
037A  EC09F001  	CALL FCD_0f051__00063
037E  0EA8      	MOVLW 0xA8
0380  6E3E      	MOVWF FCD_0f051__00063_arg_FCL_X1
0382  6A3F      	CLRF FCD_0f051__00063_arg_FCL_X1+D'1'
0384  6A40      	CLRF FCD_0f051__00063_arg_FCL_Y1
0386  6A41      	CLRF FCD_0f051__00063_arg_FCL_Y1+D'1'
0388  0EA8      	MOVLW 0xA8
038A  6E42      	MOVWF FCD_0f051__00063_arg_FCL_X2
038C  6A43      	CLRF FCD_0f051__00063_arg_FCL_X2+D'1'
038E  0EF0      	MOVLW 0xF0
0390  6E44      	MOVWF FCD_0f051__00063_arg_FCL_Y2
0392  6A45      	CLRF FCD_0f051__00063_arg_FCL_Y2+D'1'
0394  EC09F001  	CALL FCD_0f051__00063
0398  0EC0      	MOVLW 0xC0
039A  6E3E      	MOVWF FCD_0f051__00063_arg_FCL_X1
039C  6A3F      	CLRF FCD_0f051__00063_arg_FCL_X1+D'1'
039E  6A40      	CLRF FCD_0f051__00063_arg_FCL_Y1
03A0  6A41      	CLRF FCD_0f051__00063_arg_FCL_Y1+D'1'
03A2  0EC0      	MOVLW 0xC0
03A4  6E42      	MOVWF FCD_0f051__00063_arg_FCL_X2
03A6  6A43      	CLRF FCD_0f051__00063_arg_FCL_X2+D'1'
03A8  0EF0      	MOVLW 0xF0
03AA  6E44      	MOVWF FCD_0f051__00063_arg_FCL_Y2
03AC  6A45      	CLRF FCD_0f051__00063_arg_FCL_Y2+D'1'
03AE  EC09F001  	CALL FCD_0f051__00063
03B2  0ED8      	MOVLW 0xD8
03B4  6E3E      	MOVWF FCD_0f051__00063_arg_FCL_X1
03B6  6A3F      	CLRF FCD_0f051__00063_arg_FCL_X1+D'1'
03B8  6A40      	CLRF FCD_0f051__00063_arg_FCL_Y1
03BA  6A41      	CLRF FCD_0f051__00063_arg_FCL_Y1+D'1'
03BC  0ED8      	MOVLW 0xD8
03BE  6E42      	MOVWF FCD_0f051__00063_arg_FCL_X2
03C0  6A43      	CLRF FCD_0f051__00063_arg_FCL_X2+D'1'
03C2  0EF0      	MOVLW 0xF0
03C4  6E44      	MOVWF FCD_0f051__00063_arg_FCL_Y2
03C6  6A45      	CLRF FCD_0f051__00063_arg_FCL_Y2+D'1'
03C8  EC09F001  	CALL FCD_0f051__00063
03CC  0EF0      	MOVLW 0xF0
03CE  6E3E      	MOVWF FCD_0f051__00063_arg_FCL_X1
03D0  6A3F      	CLRF FCD_0f051__00063_arg_FCL_X1+D'1'
03D2  6A40      	CLRF FCD_0f051__00063_arg_FCL_Y1
03D4  6A41      	CLRF FCD_0f051__00063_arg_FCL_Y1+D'1'
03D6  0EF0      	MOVLW 0xF0
03D8  6E42      	MOVWF FCD_0f051__00063_arg_FCL_X2
03DA  6A43      	CLRF FCD_0f051__00063_arg_FCL_X2+D'1'
03DC  0EF0      	MOVLW 0xF0
03DE  6E44      	MOVWF FCD_0f051__00063_arg_FCL_Y2
03E0  6A45      	CLRF FCD_0f051__00063_arg_FCL_Y2+D'1'
03E2  EC09F001  	CALL FCD_0f051__00063
03E6  0012      	RETURN
03E8            ; } FCM_lignesV function end

	ORG 0x000003E8
03E8            FCM_lignes_0005E
03E8            ; { FCM_lignesH ; function begin
03E8  6A3E      	CLRF FCD_0f051__00063_arg_FCL_X1
03EA  6A3F      	CLRF FCD_0f051__00063_arg_FCL_X1+D'1'
03EC  0E18      	MOVLW 0x18
03EE  6E40      	MOVWF FCD_0f051__00063_arg_FCL_Y1
03F0  6A41      	CLRF FCD_0f051__00063_arg_FCL_Y1+D'1'
03F2  0EF0      	MOVLW 0xF0
03F4  6E42      	MOVWF FCD_0f051__00063_arg_FCL_X2
03F6  6A43      	CLRF FCD_0f051__00063_arg_FCL_X2+D'1'
03F8  0E18      	MOVLW 0x18
03FA  6E44      	MOVWF FCD_0f051__00063_arg_FCL_Y2
03FC  6A45      	CLRF FCD_0f051__00063_arg_FCL_Y2+D'1'
03FE  EC09F001  	CALL FCD_0f051__00063
0402  6A3E      	CLRF FCD_0f051__00063_arg_FCL_X1
0404  6A3F      	CLRF FCD_0f051__00063_arg_FCL_X1+D'1'
0406  0E30      	MOVLW 0x30
0408  6E40      	MOVWF FCD_0f051__00063_arg_FCL_Y1
040A  6A41      	CLRF FCD_0f051__00063_arg_FCL_Y1+D'1'
040C  0EF0      	MOVLW 0xF0
040E  6E42      	MOVWF FCD_0f051__00063_arg_FCL_X2
0410  6A43      	CLRF FCD_0f051__00063_arg_FCL_X2+D'1'
0412  0E30      	MOVLW 0x30
0414  6E44      	MOVWF FCD_0f051__00063_arg_FCL_Y2
0416  6A45      	CLRF FCD_0f051__00063_arg_FCL_Y2+D'1'
0418  EC09F001  	CALL FCD_0f051__00063
041C  6A3E      	CLRF FCD_0f051__00063_arg_FCL_X1
041E  6A3F      	CLRF FCD_0f051__00063_arg_FCL_X1+D'1'
0420  0E48      	MOVLW 0x48
0422  6E40      	MOVWF FCD_0f051__00063_arg_FCL_Y1
0424  6A41      	CLRF FCD_0f051__00063_arg_FCL_Y1+D'1'
0426  0EF0      	MOVLW 0xF0
0428  6E42      	MOVWF FCD_0f051__00063_arg_FCL_X2
042A  6A43      	CLRF FCD_0f051__00063_arg_FCL_X2+D'1'
042C  0E48      	MOVLW 0x48
042E  6E44      	MOVWF FCD_0f051__00063_arg_FCL_Y2
0430  6A45      	CLRF FCD_0f051__00063_arg_FCL_Y2+D'1'
0432  EC09F001  	CALL FCD_0f051__00063
0436  6A3E      	CLRF FCD_0f051__00063_arg_FCL_X1
0438  6A3F      	CLRF FCD_0f051__00063_arg_FCL_X1+D'1'
043A  0E60      	MOVLW 0x60
043C  6E40      	MOVWF FCD_0f051__00063_arg_FCL_Y1
043E  6A41      	CLRF FCD_0f051__00063_arg_FCL_Y1+D'1'
0440  0EF0      	MOVLW 0xF0
0442  6E42      	MOVWF FCD_0f051__00063_arg_FCL_X2
0444  6A43      	CLRF FCD_0f051__00063_arg_FCL_X2+D'1'
0446  0E60      	MOVLW 0x60
0448  6E44      	MOVWF FCD_0f051__00063_arg_FCL_Y2
044A  6A45      	CLRF FCD_0f051__00063_arg_FCL_Y2+D'1'
044C  EC09F001  	CALL FCD_0f051__00063
0450  6A3E      	CLRF FCD_0f051__00063_arg_FCL_X1
0452  6A3F      	CLRF FCD_0f051__00063_arg_FCL_X1+D'1'
0454  0E78      	MOVLW 0x78
0456  6E40      	MOVWF FCD_0f051__00063_arg_FCL_Y1
0458  6A41      	CLRF FCD_0f051__00063_arg_FCL_Y1+D'1'
045A  0EF0      	MOVLW 0xF0
045C  6E42      	MOVWF FCD_0f051__00063_arg_FCL_X2
045E  6A43      	CLRF FCD_0f051__00063_arg_FCL_X2+D'1'
0460  0E78      	MOVLW 0x78
0462  6E44      	MOVWF FCD_0f051__00063_arg_FCL_Y2
0464  6A45      	CLRF FCD_0f051__00063_arg_FCL_Y2+D'1'
0466  EC09F001  	CALL FCD_0f051__00063
046A  6A3E      	CLRF FCD_0f051__00063_arg_FCL_X1
046C  6A3F      	CLRF FCD_0f051__00063_arg_FCL_X1+D'1'
046E  0E90      	MOVLW 0x90
0470  6E40      	MOVWF FCD_0f051__00063_arg_FCL_Y1
0472  6A41      	CLRF FCD_0f051__00063_arg_FCL_Y1+D'1'
0474  0EF0      	MOVLW 0xF0
0476  6E42      	MOVWF FCD_0f051__00063_arg_FCL_X2
0478  6A43      	CLRF FCD_0f051__00063_arg_FCL_X2+D'1'
047A  0E90      	MOVLW 0x90
047C  6E44      	MOVWF FCD_0f051__00063_arg_FCL_Y2
047E  6A45      	CLRF FCD_0f051__00063_arg_FCL_Y2+D'1'
0480  EC09F001  	CALL FCD_0f051__00063
0484  6A3E      	CLRF FCD_0f051__00063_arg_FCL_X1
0486  6A3F      	CLRF FCD_0f051__00063_arg_FCL_X1+D'1'
0488  0EA8      	MOVLW 0xA8
048A  6E40      	MOVWF FCD_0f051__00063_arg_FCL_Y1
048C  6A41      	CLRF FCD_0f051__00063_arg_FCL_Y1+D'1'
048E  0EF0      	MOVLW 0xF0
0490  6E42      	MOVWF FCD_0f051__00063_arg_FCL_X2
0492  6A43      	CLRF FCD_0f051__00063_arg_FCL_X2+D'1'
0494  0EA8      	MOVLW 0xA8
0496  6E44      	MOVWF FCD_0f051__00063_arg_FCL_Y2
0498  6A45      	CLRF FCD_0f051__00063_arg_FCL_Y2+D'1'
049A  EC09F001  	CALL FCD_0f051__00063
049E  6A3E      	CLRF FCD_0f051__00063_arg_FCL_X1
04A0  6A3F      	CLRF FCD_0f051__00063_arg_FCL_X1+D'1'
04A2  0EC0      	MOVLW 0xC0
04A4  6E40      	MOVWF FCD_0f051__00063_arg_FCL_Y1
04A6  6A41      	CLRF FCD_0f051__00063_arg_FCL_Y1+D'1'
04A8  0EF0      	MOVLW 0xF0
04AA  6E42      	MOVWF FCD_0f051__00063_arg_FCL_X2
04AC  6A43      	CLRF FCD_0f051__00063_arg_FCL_X2+D'1'
04AE  0EC0      	MOVLW 0xC0
04B0  6E44      	MOVWF FCD_0f051__00063_arg_FCL_Y2
04B2  6A45      	CLRF FCD_0f051__00063_arg_FCL_Y2+D'1'
04B4  EC09F001  	CALL FCD_0f051__00063
04B8  6A3E      	CLRF FCD_0f051__00063_arg_FCL_X1
04BA  6A3F      	CLRF FCD_0f051__00063_arg_FCL_X1+D'1'
04BC  0ED8      	MOVLW 0xD8
04BE  6E40      	MOVWF FCD_0f051__00063_arg_FCL_Y1
04C0  6A41      	CLRF FCD_0f051__00063_arg_FCL_Y1+D'1'
04C2  0EF0      	MOVLW 0xF0
04C4  6E42      	MOVWF FCD_0f051__00063_arg_FCL_X2
04C6  6A43      	CLRF FCD_0f051__00063_arg_FCL_X2+D'1'
04C8  0ED8      	MOVLW 0xD8
04CA  6E44      	MOVWF FCD_0f051__00063_arg_FCL_Y2
04CC  6A45      	CLRF FCD_0f051__00063_arg_FCL_Y2+D'1'
04CE  EC09F001  	CALL FCD_0f051__00063
04D2  6A3E      	CLRF FCD_0f051__00063_arg_FCL_X1
04D4  6A3F      	CLRF FCD_0f051__00063_arg_FCL_X1+D'1'
04D6  0EF0      	MOVLW 0xF0
04D8  6E40      	MOVWF FCD_0f051__00063_arg_FCL_Y1
04DA  6A41      	CLRF FCD_0f051__00063_arg_FCL_Y1+D'1'
04DC  0EF0      	MOVLW 0xF0
04DE  6E42      	MOVWF FCD_0f051__00063_arg_FCL_X2
04E0  6A43      	CLRF FCD_0f051__00063_arg_FCL_X2+D'1'
04E2  0EF0      	MOVLW 0xF0
04E4  6E44      	MOVWF FCD_0f051__00063_arg_FCL_Y2
04E6  6A45      	CLRF FCD_0f051__00063_arg_FCL_Y2+D'1'
04E8  EC09F001  	CALL FCD_0f051__00063
04EC  0012      	RETURN
04EE            ; } FCM_lignesH function end

	ORG 0x000004EE
04EE            FCD_0f051__00069
04EE            ; { FCD_0f051_gLCD_EB076_4D1__G4D_GetTouchCoordinatesPicaso ; function begin
04EE  0E6F      	MOVLW 0x6F
04F0  6E4C      	MOVWF FC_CAL_UAR_0006E_arg_nChar
04F2  6A4D      	CLRF FC_CAL_UAR_0006E_arg_nChar+D'1'
04F4  EC46F000  	CALL FC_CAL_UAR_0006E
04F8  0E04      	MOVLW 0x04
04FA  6E4C      	MOVWF FC_CAL_UAR_0006E_arg_nChar
04FC  6A4D      	CLRF FC_CAL_UAR_0006E_arg_nChar+D'1'
04FE  EC46F000  	CALL FC_CAL_UAR_0006E
0502  684C      	SETF FC_CAL_UAR_0006D_arg_nTimeout
0504  EC4EF000  	CALL FC_CAL_UAR_0006D
0508  684C      	SETF FC_CAL_UAR_0006D_arg_nTimeout
050A  EC4EF000  	CALL FC_CAL_UAR_0006D
050E  5055      	MOVF CompTempVarRet2686, W
0510  6E3F      	MOVWF FCD_0f051__00069_1_FCR_RETVAL
0512  684C      	SETF FC_CAL_UAR_0006D_arg_nTimeout
0514  EC4EF000  	CALL FC_CAL_UAR_0006D
0518  684C      	SETF FC_CAL_UAR_0006D_arg_nTimeout
051A  EC4EF000  	CALL FC_CAL_UAR_0006D
051E  523F      	MOVF FCD_0f051__00069_1_FCR_RETVAL, F
0520  E032      	BZ	label27
0522  0E6F      	MOVLW 0x6F
0524  6E4C      	MOVWF FC_CAL_UAR_0006E_arg_nChar
0526  6A4D      	CLRF FC_CAL_UAR_0006E_arg_nChar+D'1'
0528  EC46F000  	CALL FC_CAL_UAR_0006E
052C  0E05      	MOVLW 0x05
052E  6E4C      	MOVWF FC_CAL_UAR_0006E_arg_nChar
0530  6A4D      	CLRF FC_CAL_UAR_0006E_arg_nChar+D'1'
0532  EC46F000  	CALL FC_CAL_UAR_0006E
0536  684C      	SETF FC_CAL_UAR_0006D_arg_nTimeout
0538  EC4EF000  	CALL FC_CAL_UAR_0006D
053C  5055      	MOVF CompTempVarRet2686, W
053E  6E29      	MOVWF gbl_FCV_0f051_gLCD_EB076_4_0000F
0540  5056      	MOVF CompTempVarRet2686+D'1', W
0542  6E2A      	MOVWF gbl_FCV_0f051_gLCD_EB076_4_0000F+D'1'
0544  684C      	SETF FC_CAL_UAR_0006D_arg_nTimeout
0546  EC4EF000  	CALL FC_CAL_UAR_0006D
054A  5055      	MOVF CompTempVarRet2686, W
054C  6E3E      	MOVWF FCD_0f051__00069_1_FCL_TEMP
054E  6A40      	CLRF CompTempVar2678
0550  5029      	MOVF gbl_FCV_0f051_gLCD_EB076_4_0000F, W
0552  6E2A      	MOVWF gbl_FCV_0f051_gLCD_EB076_4_0000F+D'1'
0554  5040      	MOVF CompTempVar2678, W
0556  6E29      	MOVWF gbl_FCV_0f051_gLCD_EB076_4_0000F
0558  503E      	MOVF FCD_0f051__00069_1_FCL_TEMP, W
055A  1229      	IORWF gbl_FCV_0f051_gLCD_EB076_4_0000F, F
055C  522A      	MOVF gbl_FCV_0f051_gLCD_EB076_4_0000F+D'1', F
055E  684C      	SETF FC_CAL_UAR_0006D_arg_nTimeout
0560  EC4EF000  	CALL FC_CAL_UAR_0006D
0564  5055      	MOVF CompTempVarRet2686, W
0566  6E27      	MOVWF gbl_FCV_0f051_gLCD_EB076_4_0000E
0568  5056      	MOVF CompTempVarRet2686+D'1', W
056A  6E28      	MOVWF gbl_FCV_0f051_gLCD_EB076_4_0000E+D'1'
056C  684C      	SETF FC_CAL_UAR_0006D_arg_nTimeout
056E  EC4EF000  	CALL FC_CAL_UAR_0006D
0572  5055      	MOVF CompTempVarRet2686, W
0574  6E3E      	MOVWF FCD_0f051__00069_1_FCL_TEMP
0576  6A40      	CLRF CompTempVar2682
0578  5027      	MOVF gbl_FCV_0f051_gLCD_EB076_4_0000E, W
057A  6E28      	MOVWF gbl_FCV_0f051_gLCD_EB076_4_0000E+D'1'
057C  5040      	MOVF CompTempVar2682, W
057E  6E27      	MOVWF gbl_FCV_0f051_gLCD_EB076_4_0000E
0580  503E      	MOVF FCD_0f051__00069_1_FCL_TEMP, W
0582  1227      	IORWF gbl_FCV_0f051_gLCD_EB076_4_0000E, F
0584  5228      	MOVF gbl_FCV_0f051_gLCD_EB076_4_0000E+D'1', F
0586            label27
0586  503F      	MOVF FCD_0f051__00069_1_FCR_RETVAL, W
0588  6E40      	MOVWF CompTempVarRet2677
058A  0012      	RETURN
058C            ; } FCD_0f051_gLCD_EB076_4D1__G4D_GetTouchCoordinatesPicaso function end

	ORG 0x0000058C
058C            FCD_0f051__00062
058C            ; { FCD_0f051_gLCD_EB076_4D1__G4D_EnableTouchscreenPicaso ; function begin
058C  0E59      	MOVLW 0x59
058E  6E4C      	MOVWF FC_CAL_UAR_0006E_arg_nChar
0590  6A4D      	CLRF FC_CAL_UAR_0006E_arg_nChar+D'1'
0592  EC46F000  	CALL FC_CAL_UAR_0006E
0596  0E05      	MOVLW 0x05
0598  6E4C      	MOVWF FC_CAL_UAR_0006E_arg_nChar
059A  6A4D      	CLRF FC_CAL_UAR_0006E_arg_nChar+D'1'
059C  EC46F000  	CALL FC_CAL_UAR_0006E
05A0  6A4C      	CLRF FC_CAL_UAR_0006E_arg_nChar
05A2  6A4D      	CLRF FC_CAL_UAR_0006E_arg_nChar+D'1'
05A4  EC46F000  	CALL FC_CAL_UAR_0006E
05A8  684C      	SETF FC_CAL_UAR_0006D_arg_nTimeout
05AA  EC4EF000  	CALL FC_CAL_UAR_0006D
05AE  5055      	MOVF CompTempVarRet2686, W
05B0  6E3E      	MOVWF FCD_0f051__00062_1_FCR_RETVAL
05B2  0E59      	MOVLW 0x59
05B4  6E4C      	MOVWF FC_CAL_UAR_0006E_arg_nChar
05B6  6A4D      	CLRF FC_CAL_UAR_0006E_arg_nChar+D'1'
05B8  EC46F000  	CALL FC_CAL_UAR_0006E
05BC  0E05      	MOVLW 0x05
05BE  6E4C      	MOVWF FC_CAL_UAR_0006E_arg_nChar
05C0  6A4D      	CLRF FC_CAL_UAR_0006E_arg_nChar+D'1'
05C2  EC46F000  	CALL FC_CAL_UAR_0006E
05C6  0E02      	MOVLW 0x02
05C8  6E4C      	MOVWF FC_CAL_UAR_0006E_arg_nChar
05CA  6A4D      	CLRF FC_CAL_UAR_0006E_arg_nChar+D'1'
05CC  EC46F000  	CALL FC_CAL_UAR_0006E
05D0  684C      	SETF FC_CAL_UAR_0006D_arg_nTimeout
05D2  EC4EF000  	CALL FC_CAL_UAR_0006D
05D6  5055      	MOVF CompTempVarRet2686, W
05D8  6E3E      	MOVWF FCD_0f051__00062_1_FCR_RETVAL
05DA  0E06      	MOVLW 0x06
05DC  623E      	CPFSEQ FCD_0f051__00062_1_FCR_RETVAL
05DE  D002      	BRA	label28
05E0  6A3E      	CLRF FCD_0f051__00062_1_FCR_RETVAL
05E2  D001      	BRA	label29
05E4            label28
05E4  683E      	SETF FCD_0f051__00062_1_FCR_RETVAL
05E6            label29
05E6  503E      	MOVF FCD_0f051__00062_1_FCR_RETVAL, W
05E8  6E3F      	MOVWF CompTempVarRet2662
05EA  0012      	RETURN
05EC            ; } FCD_0f051_gLCD_EB076_4D1__G4D_EnableTouchscreenPicaso function end

	ORG 0x000005EC
05EC            FCD_0f051__00061
05EC            ; { FCD_0f051_gLCD_EB076_4D1__G4D_DisableTouchscreenPicaso ; function begin
05EC  0E59      	MOVLW 0x59
05EE  6E4C      	MOVWF FC_CAL_UAR_0006E_arg_nChar
05F0  6A4D      	CLRF FC_CAL_UAR_0006E_arg_nChar+D'1'
05F2  EC46F000  	CALL FC_CAL_UAR_0006E
05F6  0E05      	MOVLW 0x05
05F8  6E4C      	MOVWF FC_CAL_UAR_0006E_arg_nChar
05FA  6A4D      	CLRF FC_CAL_UAR_0006E_arg_nChar+D'1'
05FC  EC46F000  	CALL FC_CAL_UAR_0006E
0600  0E01      	MOVLW 0x01
0602  6E4C      	MOVWF FC_CAL_UAR_0006E_arg_nChar
0604  6A4D      	CLRF FC_CAL_UAR_0006E_arg_nChar+D'1'
0606  EC46F000  	CALL FC_CAL_UAR_0006E
060A  684C      	SETF FC_CAL_UAR_0006D_arg_nTimeout
060C  EC4EF000  	CALL FC_CAL_UAR_0006D
0610  5055      	MOVF CompTempVarRet2686, W
0612  6E3E      	MOVWF FCD_0f051__00061_1_FCR_RETVAL
0614  0E06      	MOVLW 0x06
0616  623E      	CPFSEQ FCD_0f051__00061_1_FCR_RETVAL
0618  D002      	BRA	label30
061A  6A3E      	CLRF FCD_0f051__00061_1_FCR_RETVAL
061C  D001      	BRA	label31
061E            label30
061E  683E      	SETF FCD_0f051__00061_1_FCR_RETVAL
0620            label31
0620  503E      	MOVF FCD_0f051__00061_1_FCR_RETVAL, W
0622  6E3F      	MOVWF CompTempVarRet2661
0624  0012      	RETURN
0626            ; } FCD_0f051_gLCD_EB076_4D1__G4D_DisableTouchscreenPicaso function end

	ORG 0x00000626
0626            FCD_0f051__0005C
0626            ; { FCD_0f051_gLCD_EB076_4D1__Initialise ; function begin
0626  6A42      	CLRF FCD_0f051__0005C_2_ptmp
0628  9A94      	BCF gbl_trisc,5
062A  5242      	MOVF FCD_0f051__0005C_2_ptmp, F
062C  E004      	BZ	label32
062E  0E20      	MOVLW 0x20
0630  108B      	IORWF gbl_latc, W
0632  6E82      	MOVWF gbl_portc
0634  D003      	BRA	label33
0636            label32
0636  0EDF      	MOVLW 0xDF
0638  148B      	ANDWF gbl_latc, W
063A  6E82      	MOVWF gbl_portc
063C            label33
063C  ECA0F000  	CALL FC_CAL_UAR_0006F
0640  0E64      	MOVLW 0x64
0642  6E42      	MOVWF delay_us_00000_arg_del
0644  EC2EF000  	CALL delay_us_00000
0648  0E0F      	MOVLW HIGH(gbl_portc+D'0')
064A  6E43      	MOVWF FC_CAL_Por_00042_arg_Port+D'1'
064C  0E82      	MOVLW LOW(gbl_portc+D'0')
064E  6E42      	MOVWF FC_CAL_Por_00042_arg_Port
0650  0E0F      	MOVLW HIGH(gbl_trisc+D'0')
0652  6E45      	MOVWF FC_CAL_Por_00042_arg_Tris+D'1'
0654  0E94      	MOVLW LOW(gbl_trisc+D'0')
0656  6E44      	MOVWF FC_CAL_Por_00042_arg_Tris
0658  0E20      	MOVLW 0x20
065A  6E46      	MOVWF FC_CAL_Por_00042_arg_InMask
065C  0E05      	MOVLW 0x05
065E  6E47      	MOVWF FC_CAL_Por_00042_arg_Shift
0660  ECF1F000  	CALL FC_CAL_Por_00042
0664  5048      	MOVF CompTempVarRet1822, W
0666  6E41      	MOVWF FCD_0f051__0005C_1_FCL_DUMMY
0668  0E03      	MOVLW 0x03
066A  6E42      	MOVWF delay_s_00000_arg_del
066C  EC33F000  	CALL delay_s_00000
0670  6A4C      	CLRF FC_CAL_UAR_0006D_arg_nTimeout
0672  EC4EF000  	CALL FC_CAL_UAR_0006D
0676  6A4C      	CLRF FC_CAL_UAR_0006D_arg_nTimeout
0678  EC4EF000  	CALL FC_CAL_UAR_0006D
067C  6A4C      	CLRF FC_CAL_UAR_0006D_arg_nTimeout
067E  EC4EF000  	CALL FC_CAL_UAR_0006D
0682  0E55      	MOVLW 0x55
0684  6E4C      	MOVWF FC_CAL_UAR_0006E_arg_nChar
0686  6A4D      	CLRF FC_CAL_UAR_0006E_arg_nChar+D'1'
0688  EC46F000  	CALL FC_CAL_UAR_0006E
068C  684C      	SETF FC_CAL_UAR_0006D_arg_nTimeout
068E  EC4EF000  	CALL FC_CAL_UAR_0006D
0692  0E51      	MOVLW 0x51
0694  6E4C      	MOVWF FC_CAL_UAR_0006E_arg_nChar
0696  6A4D      	CLRF FC_CAL_UAR_0006E_arg_nChar+D'1'
0698  EC46F000  	CALL FC_CAL_UAR_0006E
069C  0E0C      	MOVLW 0x0C
069E  6E4C      	MOVWF FC_CAL_UAR_0006E_arg_nChar
06A0  6A4D      	CLRF FC_CAL_UAR_0006E_arg_nChar+D'1'
06A2  EC46F000  	CALL FC_CAL_UAR_0006E
06A6  684C      	SETF FC_CAL_UAR_0006D_arg_nTimeout
06A8  EC4EF000  	CALL FC_CAL_UAR_0006D
06AC  0E06      	MOVLW 0x06
06AE  6E42      	MOVWF FC_CAL_UAR_0006B_arg_new_baud
06B0  ECA9F000  	CALL FC_CAL_UAR_0006B
06B4  0E0A      	MOVLW 0x0A
06B6  6E4C      	MOVWF FC_CAL_UAR_0006D_arg_nTimeout
06B8  EC4EF000  	CALL FC_CAL_UAR_0006D
06BC  0E0A      	MOVLW 0x0A
06BE  6E4C      	MOVWF FC_CAL_UAR_0006D_arg_nTimeout
06C0  EC4EF000  	CALL FC_CAL_UAR_0006D
06C4  6A3E      	CLRF FCD_0f051__0005C_1_FCL_RED
06C6  323E      	RRCF FCD_0f051__0005C_1_FCL_RED, F
06C8  323E      	RRCF FCD_0f051__0005C_1_FCL_RED, F
06CA  323E      	RRCF FCD_0f051__0005C_1_FCL_RED, F
06CC  0E1F      	MOVLW 0x1F
06CE  163E      	ANDWF FCD_0f051__0005C_1_FCL_RED, F
06D0  6A3F      	CLRF FCD_0f051__0005C_1_FCL_GREEN
06D2  323F      	RRCF FCD_0f051__0005C_1_FCL_GREEN, F
06D4  323F      	RRCF FCD_0f051__0005C_1_FCL_GREEN, F
06D6  0E3F      	MOVLW 0x3F
06D8  163F      	ANDWF FCD_0f051__0005C_1_FCL_GREEN, F
06DA  6A40      	CLRF FCD_0f051__0005C_1_FCL_BLUE
06DC  3240      	RRCF FCD_0f051__0005C_1_FCL_BLUE, F
06DE  3240      	RRCF FCD_0f051__0005C_1_FCL_BLUE, F
06E0  3240      	RRCF FCD_0f051__0005C_1_FCL_BLUE, F
06E2  0E1F      	MOVLW 0x1F
06E4  1640      	ANDWF FCD_0f051__0005C_1_FCL_BLUE, F
06E6  503F      	MOVF FCD_0f051__0005C_1_FCL_GREEN, W
06E8  6E42      	MOVWF CompTempVar2640
06EA  6A26      	CLRF gbl_FCV_0f051_gLCD_EB076_4_0000D+D'1'
06EC  3642      	RLCF CompTempVar2640, F
06EE  3626      	RLCF gbl_FCV_0f051_gLCD_EB076_4_0000D+D'1', F
06F0  3642      	RLCF CompTempVar2640, F
06F2  3626      	RLCF gbl_FCV_0f051_gLCD_EB076_4_0000D+D'1', F
06F4  3642      	RLCF CompTempVar2640, F
06F6  3626      	RLCF gbl_FCV_0f051_gLCD_EB076_4_0000D+D'1', F
06F8  3642      	RLCF CompTempVar2640, F
06FA  3626      	RLCF gbl_FCV_0f051_gLCD_EB076_4_0000D+D'1', F
06FC  3642      	RLCF CompTempVar2640, F
06FE  3626      	RLCF gbl_FCV_0f051_gLCD_EB076_4_0000D+D'1', F
0700  0EE0      	MOVLW 0xE0
0702  1642      	ANDWF CompTempVar2640, F
0704  5042      	MOVF CompTempVar2640, W
0706  1040      	IORWF FCD_0f051__0005C_1_FCL_BLUE, W
0708  6E25      	MOVWF gbl_FCV_0f051_gLCD_EB076_4_0000D
070A  6A42      	CLRF CompTempVar2644
070C  503E      	MOVF FCD_0f051__0005C_1_FCL_RED, W
070E  6E43      	MOVWF CompTempVar2645
0710  90D8      	BCF STATUS,C
0712  3643      	RLCF CompTempVar2645, F
0714  90D8      	BCF STATUS,C
0716  3643      	RLCF CompTempVar2645, F
0718  90D8      	BCF STATUS,C
071A  3643      	RLCF CompTempVar2645, F
071C  5042      	MOVF CompTempVar2644, W
071E  1225      	IORWF gbl_FCV_0f051_gLCD_EB076_4_0000D, F
0720  5043      	MOVF CompTempVar2645, W
0722  1226      	IORWF gbl_FCV_0f051_gLCD_EB076_4_0000D+D'1', F
0724  683E      	SETF FCD_0f051__0005C_1_FCL_RED
0726  323E      	RRCF FCD_0f051__0005C_1_FCL_RED, F
0728  323E      	RRCF FCD_0f051__0005C_1_FCL_RED, F
072A  323E      	RRCF FCD_0f051__0005C_1_FCL_RED, F
072C  0E1F      	MOVLW 0x1F
072E  163E      	ANDWF FCD_0f051__0005C_1_FCL_RED, F
0730  683F      	SETF FCD_0f051__0005C_1_FCL_GREEN
0732  323F      	RRCF FCD_0f051__0005C_1_FCL_GREEN, F
0734  323F      	RRCF FCD_0f051__0005C_1_FCL_GREEN, F
0736  0E3F      	MOVLW 0x3F
0738  163F      	ANDWF FCD_0f051__0005C_1_FCL_GREEN, F
073A  6840      	SETF FCD_0f051__0005C_1_FCL_BLUE
073C  3240      	RRCF FCD_0f051__0005C_1_FCL_BLUE, F
073E  3240      	RRCF FCD_0f051__0005C_1_FCL_BLUE, F
0740  3240      	RRCF FCD_0f051__0005C_1_FCL_BLUE, F
0742  0E1F      	MOVLW 0x1F
0744  1640      	ANDWF FCD_0f051__0005C_1_FCL_BLUE, F
0746  503F      	MOVF FCD_0f051__0005C_1_FCL_GREEN, W
0748  6E42      	MOVWF CompTempVar2651
074A  6A24      	CLRF gbl_FCV_0f051_gLCD_EB076_4_0000C+D'1'
074C  3642      	RLCF CompTempVar2651, F
074E  3624      	RLCF gbl_FCV_0f051_gLCD_EB076_4_0000C+D'1', F
0750  3642      	RLCF CompTempVar2651, F
0752  3624      	RLCF gbl_FCV_0f051_gLCD_EB076_4_0000C+D'1', F
0754  3642      	RLCF CompTempVar2651, F
0756  3624      	RLCF gbl_FCV_0f051_gLCD_EB076_4_0000C+D'1', F
0758  3642      	RLCF CompTempVar2651, F
075A  3624      	RLCF gbl_FCV_0f051_gLCD_EB076_4_0000C+D'1', F
075C  3642      	RLCF CompTempVar2651, F
075E  3624      	RLCF gbl_FCV_0f051_gLCD_EB076_4_0000C+D'1', F
0760  0EE0      	MOVLW 0xE0
0762  1642      	ANDWF CompTempVar2651, F
0764  5042      	MOVF CompTempVar2651, W
0766  1040      	IORWF FCD_0f051__0005C_1_FCL_BLUE, W
0768  6E23      	MOVWF gbl_FCV_0f051_gLCD_EB076_4_0000C
076A  6A42      	CLRF CompTempVar2655
076C  503E      	MOVF FCD_0f051__0005C_1_FCL_RED, W
076E  6E43      	MOVWF CompTempVar2656
0770  90D8      	BCF STATUS,C
0772  3643      	RLCF CompTempVar2656, F
0774  90D8      	BCF STATUS,C
0776  3643      	RLCF CompTempVar2656, F
0778  90D8      	BCF STATUS,C
077A  3643      	RLCF CompTempVar2656, F
077C  5042      	MOVF CompTempVar2655, W
077E  1223      	IORWF gbl_FCV_0f051_gLCD_EB076_4_0000C, F
0780  5043      	MOVF CompTempVar2656, W
0782  1224      	IORWF gbl_FCV_0f051_gLCD_EB076_4_0000C+D'1', F
0784  EC51F001  	CALL FCD_0f051__0005D
0788  0E0A      	MOVLW 0x0A
078A  6E4C      	MOVWF FC_CAL_UAR_0006D_arg_nTimeout
078C  EC4EF000  	CALL FC_CAL_UAR_0006D
0790  0E0A      	MOVLW 0x0A
0792  6E4C      	MOVWF FC_CAL_UAR_0006D_arg_nTimeout
0794  EC4EF000  	CALL FC_CAL_UAR_0006D
0798  0012      	RETURN
079A            ; } FCD_0f051_gLCD_EB076_4D1__Initialise function end

	ORG 0x0000079A
079A            FCM_Reinit_00060
079A            ; { FCM_Reinitialisation_tactile ; function begin
079A  ECF6F002  	CALL FCD_0f051__00061
079E  ECC6F002  	CALL FCD_0f051__00062
07A2  0012      	RETURN
07A4            ; } FCM_Reinitialisation_tactile function end

	ORG 0x000007A4
07A4            FCM_Recupe_00068
07A4            ; { FCM_Recuperation_coordonees ; function begin
07A4  EC77F002  	CALL FCD_0f051__00069
07A8  5040      	MOVF CompTempVarRet2677, W
07AA  6E34      	MOVWF gbl_FCV_APPUI_ECRAN
07AC  0012      	RETURN
07AE            ; } FCM_Recuperation_coordonees function end

	ORG 0x000007AE
07AE            FCM_Initia_0005B
07AE            ; { FCM_Initialisation ; function begin
07AE  EC13F003  	CALL FCD_0f051__0005C
07B2  EC51F001  	CALL FCD_0f051__0005D
07B6  ECF4F001  	CALL FCM_lignes_0005E
07BA  EC71F001  	CALL FCM_lignes_0005F
07BE  0012      	RETURN
07C0            ; } FCM_Initialisation function end

	ORG 0x000007C0
07C0            FCD_0f051__000A1
07C0            ; { FCD_0f051_gLCD_EB076_4D1__DrawRectangle ; function begin
07C0  5246      	MOVF FCD_0f051__000A1_arg_FCL_T_000A2, F
07C2  E14D      	BNZ	label34
07C4  5247      	MOVF FCD_0f051__000A1_arg_FCL_SOLID, F
07C6  E14B      	BNZ	label34
07C8  0E70      	MOVLW 0x70
07CA  6E4C      	MOVWF FC_CAL_UAR_0006E_arg_nChar
07CC  6A4D      	CLRF FC_CAL_UAR_0006E_arg_nChar+D'1'
07CE  EC46F000  	CALL FC_CAL_UAR_0006E
07D2  6A4C      	CLRF FC_CAL_UAR_0006E_arg_nChar
07D4  6A4D      	CLRF FC_CAL_UAR_0006E_arg_nChar+D'1'
07D6  EC46F000  	CALL FC_CAL_UAR_0006E
07DA  684C      	SETF FC_CAL_UAR_0006D_arg_nTimeout
07DC  EC4EF000  	CALL FC_CAL_UAR_0006D
07E0  0E72      	MOVLW 0x72
07E2  6E4C      	MOVWF FC_CAL_UAR_0006E_arg_nChar
07E4  6A4D      	CLRF FC_CAL_UAR_0006E_arg_nChar+D'1'
07E6  EC46F000  	CALL FC_CAL_UAR_0006E
07EA  503F      	MOVF FCD_0f051__000A1_arg_FCL_X1+D'1', W
07EC  6E4C      	MOVWF FC_CAL_UAR_0006E_arg_nChar
07EE  6A4D      	CLRF FC_CAL_UAR_0006E_arg_nChar+D'1'
07F0  EC46F000  	CALL FC_CAL_UAR_0006E
07F4  503E      	MOVF FCD_0f051__000A1_arg_FCL_X1, W
07F6  6E4C      	MOVWF FC_CAL_UAR_0006E_arg_nChar
07F8  503F      	MOVF FCD_0f051__000A1_arg_FCL_X1+D'1', W
07FA  6E4D      	MOVWF FC_CAL_UAR_0006E_arg_nChar+D'1'
07FC  EC46F000  	CALL FC_CAL_UAR_0006E
0800  5041      	MOVF FCD_0f051__000A1_arg_FCL_Y1+D'1', W
0802  6E4C      	MOVWF FC_CAL_UAR_0006E_arg_nChar
0804  6A4D      	CLRF FC_CAL_UAR_0006E_arg_nChar+D'1'
0806  EC46F000  	CALL FC_CAL_UAR_0006E
080A  5040      	MOVF FCD_0f051__000A1_arg_FCL_Y1, W
080C  6E4C      	MOVWF FC_CAL_UAR_0006E_arg_nChar
080E  5041      	MOVF FCD_0f051__000A1_arg_FCL_Y1+D'1', W
0810  6E4D      	MOVWF FC_CAL_UAR_0006E_arg_nChar+D'1'
0812  EC46F000  	CALL FC_CAL_UAR_0006E
0816  5043      	MOVF FCD_0f051__000A1_arg_FCL_X2+D'1', W
0818  6E4C      	MOVWF FC_CAL_UAR_0006E_arg_nChar
081A  6A4D      	CLRF FC_CAL_UAR_0006E_arg_nChar+D'1'
081C  EC46F000  	CALL FC_CAL_UAR_0006E
0820  5042      	MOVF FCD_0f051__000A1_arg_FCL_X2, W
0822  6E4C      	MOVWF FC_CAL_UAR_0006E_arg_nChar
0824  5043      	MOVF FCD_0f051__000A1_arg_FCL_X2+D'1', W
0826  6E4D      	MOVWF FC_CAL_UAR_0006E_arg_nChar+D'1'
0828  EC46F000  	CALL FC_CAL_UAR_0006E
082C  5045      	MOVF FCD_0f051__000A1_arg_FCL_Y2+D'1', W
082E  6E4C      	MOVWF FC_CAL_UAR_0006E_arg_nChar
0830  6A4D      	CLRF FC_CAL_UAR_0006E_arg_nChar+D'1'
0832  EC46F000  	CALL FC_CAL_UAR_0006E
0836  5044      	MOVF FCD_0f051__000A1_arg_FCL_Y2, W
0838  6E4C      	MOVWF FC_CAL_UAR_0006E_arg_nChar
083A  5045      	MOVF FCD_0f051__000A1_arg_FCL_Y2+D'1', W
083C  6E4D      	MOVWF FC_CAL_UAR_0006E_arg_nChar+D'1'
083E  EC46F000  	CALL FC_CAL_UAR_0006E
0842  5024      	MOVF gbl_FCV_0f051_gLCD_EB076_4_0000C+D'1', W
0844  6E4C      	MOVWF FC_CAL_UAR_0006E_arg_nChar
0846  6A4D      	CLRF FC_CAL_UAR_0006E_arg_nChar+D'1'
0848  EC46F000  	CALL FC_CAL_UAR_0006E
084C  5023      	MOVF gbl_FCV_0f051_gLCD_EB076_4_0000C, W
084E  6E4C      	MOVWF FC_CAL_UAR_0006E_arg_nChar
0850  5024      	MOVF gbl_FCV_0f051_gLCD_EB076_4_0000C+D'1', W
0852  6E4D      	MOVWF FC_CAL_UAR_0006E_arg_nChar+D'1'
0854  EC46F000  	CALL FC_CAL_UAR_0006E
0858  684C      	SETF FC_CAL_UAR_0006D_arg_nTimeout
085A  EC4EF000  	CALL FC_CAL_UAR_0006D
085E            label34
085E  0E70      	MOVLW 0x70
0860  6E4C      	MOVWF FC_CAL_UAR_0006E_arg_nChar
0862  6A4D      	CLRF FC_CAL_UAR_0006E_arg_nChar+D'1'
0864  EC46F000  	CALL FC_CAL_UAR_0006E
0868  5247      	MOVF FCD_0f051__000A1_arg_FCL_SOLID, F
086A  E005      	BZ	label35
086C  6A4C      	CLRF FC_CAL_UAR_0006E_arg_nChar
086E  6A4D      	CLRF FC_CAL_UAR_0006E_arg_nChar+D'1'
0870  EC46F000  	CALL FC_CAL_UAR_0006E
0874  D005      	BRA	label36
0876            label35
0876  0E01      	MOVLW 0x01
0878  6E4C      	MOVWF FC_CAL_UAR_0006E_arg_nChar
087A  6A4D      	CLRF FC_CAL_UAR_0006E_arg_nChar+D'1'
087C  EC46F000  	CALL FC_CAL_UAR_0006E
0880            label36
0880  684C      	SETF FC_CAL_UAR_0006D_arg_nTimeout
0882  EC4EF000  	CALL FC_CAL_UAR_0006D
0886  0E72      	MOVLW 0x72
0888  6E4C      	MOVWF FC_CAL_UAR_0006E_arg_nChar
088A  6A4D      	CLRF FC_CAL_UAR_0006E_arg_nChar+D'1'
088C  EC46F000  	CALL FC_CAL_UAR_0006E
0890  503F      	MOVF FCD_0f051__000A1_arg_FCL_X1+D'1', W
0892  6E4C      	MOVWF FC_CAL_UAR_0006E_arg_nChar
0894  6A4D      	CLRF FC_CAL_UAR_0006E_arg_nChar+D'1'
0896  EC46F000  	CALL FC_CAL_UAR_0006E
089A  503E      	MOVF FCD_0f051__000A1_arg_FCL_X1, W
089C  6E4C      	MOVWF FC_CAL_UAR_0006E_arg_nChar
089E  503F      	MOVF FCD_0f051__000A1_arg_FCL_X1+D'1', W
08A0  6E4D      	MOVWF FC_CAL_UAR_0006E_arg_nChar+D'1'
08A2  EC46F000  	CALL FC_CAL_UAR_0006E
08A6  5041      	MOVF FCD_0f051__000A1_arg_FCL_Y1+D'1', W
08A8  6E4C      	MOVWF FC_CAL_UAR_0006E_arg_nChar
08AA  6A4D      	CLRF FC_CAL_UAR_0006E_arg_nChar+D'1'
08AC  EC46F000  	CALL FC_CAL_UAR_0006E
08B0  5040      	MOVF FCD_0f051__000A1_arg_FCL_Y1, W
08B2  6E4C      	MOVWF FC_CAL_UAR_0006E_arg_nChar
08B4  5041      	MOVF FCD_0f051__000A1_arg_FCL_Y1+D'1', W
08B6  6E4D      	MOVWF FC_CAL_UAR_0006E_arg_nChar+D'1'
08B8  EC46F000  	CALL FC_CAL_UAR_0006E
08BC  5043      	MOVF FCD_0f051__000A1_arg_FCL_X2+D'1', W
08BE  6E4C      	MOVWF FC_CAL_UAR_0006E_arg_nChar
08C0  6A4D      	CLRF FC_CAL_UAR_0006E_arg_nChar+D'1'
08C2  EC46F000  	CALL FC_CAL_UAR_0006E
08C6  5042      	MOVF FCD_0f051__000A1_arg_FCL_X2, W
08C8  6E4C      	MOVWF FC_CAL_UAR_0006E_arg_nChar
08CA  5043      	MOVF FCD_0f051__000A1_arg_FCL_X2+D'1', W
08CC  6E4D      	MOVWF FC_CAL_UAR_0006E_arg_nChar+D'1'
08CE  EC46F000  	CALL FC_CAL_UAR_0006E
08D2  5045      	MOVF FCD_0f051__000A1_arg_FCL_Y2+D'1', W
08D4  6E4C      	MOVWF FC_CAL_UAR_0006E_arg_nChar
08D6  6A4D      	CLRF FC_CAL_UAR_0006E_arg_nChar+D'1'
08D8  EC46F000  	CALL FC_CAL_UAR_0006E
08DC  5044      	MOVF FCD_0f051__000A1_arg_FCL_Y2, W
08DE  6E4C      	MOVWF FC_CAL_UAR_0006E_arg_nChar
08E0  5045      	MOVF FCD_0f051__000A1_arg_FCL_Y2+D'1', W
08E2  6E4D      	MOVWF FC_CAL_UAR_0006E_arg_nChar+D'1'
08E4  EC46F000  	CALL FC_CAL_UAR_0006E
08E8  5026      	MOVF gbl_FCV_0f051_gLCD_EB076_4_0000D+D'1', W
08EA  6E4C      	MOVWF FC_CAL_UAR_0006E_arg_nChar
08EC  6A4D      	CLRF FC_CAL_UAR_0006E_arg_nChar+D'1'
08EE  EC46F000  	CALL FC_CAL_UAR_0006E
08F2  5025      	MOVF gbl_FCV_0f051_gLCD_EB076_4_0000D, W
08F4  6E4C      	MOVWF FC_CAL_UAR_0006E_arg_nChar
08F6  5026      	MOVF gbl_FCV_0f051_gLCD_EB076_4_0000D+D'1', W
08F8  6E4D      	MOVWF FC_CAL_UAR_0006E_arg_nChar+D'1'
08FA  EC46F000  	CALL FC_CAL_UAR_0006E
08FE  684C      	SETF FC_CAL_UAR_0006D_arg_nTimeout
0900  EC4EF000  	CALL FC_CAL_UAR_0006D
0904  0012      	RETURN
0906            ; } FCD_0f051_gLCD_EB076_4D1__DrawRectangle function end

	ORG 0x00000906
0906            FCD_0f051__00065
0906            ; { FCD_0f051_gLCD_EB076_4D1__G4D_ReadTouchCoordinatesPicaso ; function begin
0906  6A3F      	CLRF FCD_0f051__00065_1_FCR_RETVAL
0908  6A40      	CLRF FCD_0f051__00065_1_FCR_RETVAL+D'1'
090A  523E      	MOVF FCD_0f051__00065_arg_FCL_AXIS, F
090C  E007      	BZ	label38
090E  0E78      	MOVLW 0x78
0910  623E      	CPFSEQ FCD_0f051__00065_arg_FCL_AXIS
0912  D001      	BRA	label37
0914  D003      	BRA	label38
0916            label37
0916  0E58      	MOVLW 0x58
0918  623E      	CPFSEQ FCD_0f051__00065_arg_FCL_AXIS
091A  D004      	BRA	label39
091C            label38
091C  5029      	MOVF gbl_FCV_0f051_gLCD_EB076_4_0000F, W
091E  6E3F      	MOVWF FCD_0f051__00065_1_FCR_RETVAL
0920  502A      	MOVF gbl_FCV_0f051_gLCD_EB076_4_0000F+D'1', W
0922  6E40      	MOVWF FCD_0f051__00065_1_FCR_RETVAL+D'1'
0924            label39
0924  043E      	DECF FCD_0f051__00065_arg_FCL_AXIS, W
0926  E007      	BZ	label41
0928  0E79      	MOVLW 0x79
092A  623E      	CPFSEQ FCD_0f051__00065_arg_FCL_AXIS
092C  D001      	BRA	label40
092E  D003      	BRA	label41
0930            label40
0930  0E59      	MOVLW 0x59
0932  623E      	CPFSEQ FCD_0f051__00065_arg_FCL_AXIS
0934  D004      	BRA	label42
0936            label41
0936  5027      	MOVF gbl_FCV_0f051_gLCD_EB076_4_0000E, W
0938  6E3F      	MOVWF FCD_0f051__00065_1_FCR_RETVAL
093A  5028      	MOVF gbl_FCV_0f051_gLCD_EB076_4_0000E+D'1', W
093C  6E40      	MOVWF FCD_0f051__00065_1_FCR_RETVAL+D'1'
093E            label42
093E  503F      	MOVF FCD_0f051__00065_1_FCR_RETVAL, W
0940  6E41      	MOVWF CompTempVarRet2673
0942  5040      	MOVF FCD_0f051__00065_1_FCR_RETVAL+D'1', W
0944  6E42      	MOVWF CompTempVarRet2673+D'1'
0946  0012      	RETURN
0948            ; } FCD_0f051_gLCD_EB076_4D1__G4D_ReadTouchCoordinatesPicaso function end

	ORG 0x00000948
0948            main
0948            ; { main ; function begin
0948  0E0F      	MOVLW 0x0F
094A  6EC1      	MOVWF gbl_adcon1
094C  ECD7F003  	CALL FCM_Initia_0005B
0950            label43
0950  ECCDF003  	CALL FCM_Reinit_00060
0954            label44
0954  5234      	MOVF gbl_FCV_APPUI_ECRAN, F
0956  E103      	BNZ	label45
0958  ECD2F003  	CALL FCM_Recupe_00068
095C  D7FB      	BRA	label44
095E            label45
095E  5021      	MOVF gbl_FCV_X, W
0960  6E3E      	MOVWF FCD_0f051__00065_arg_FCL_AXIS
0962  EC83F004  	CALL FCD_0f051__00065
0966  5041      	MOVF CompTempVarRet2673, W
0968  6E21      	MOVWF gbl_FCV_X
096A  5042      	MOVF CompTempVarRet2673+D'1', W
096C  6E22      	MOVWF gbl_FCV_X+D'1'
096E  501F      	MOVF gbl_FCV_Y, W
0970  6E3E      	MOVWF FCD_0f051__00065_arg_FCL_AXIS
0972  EC83F004  	CALL FCD_0f051__00065
0976  5041      	MOVF CompTempVarRet2673, W
0978  6E1F      	MOVWF gbl_FCV_Y
097A  5042      	MOVF CompTempVarRet2673+D'1', W
097C  6E20      	MOVWF gbl_FCV_Y+D'1'
097E  0E01      	MOVLW 0x01
0980  6034      	CPFSLT gbl_FCV_APPUI_ECRAN
0982  D001      	BRA	label46
0984  D011      	BRA	label47
0986            label46
0986  0E01      	MOVLW 0x01
0988  6E3E      	MOVWF FCD_0f051__000A1_arg_FCL_X1
098A  6A3F      	CLRF FCD_0f051__000A1_arg_FCL_X1+D'1'
098C  0E01      	MOVLW 0x01
098E  6E40      	MOVWF FCD_0f051__000A1_arg_FCL_Y1
0990  6A41      	CLRF FCD_0f051__000A1_arg_FCL_Y1+D'1'
0992  0E17      	MOVLW 0x17
0994  6E42      	MOVWF FCD_0f051__000A1_arg_FCL_X2
0996  6A43      	CLRF FCD_0f051__000A1_arg_FCL_X2+D'1'
0998  0E17      	MOVLW 0x17
099A  6E44      	MOVWF FCD_0f051__000A1_arg_FCL_Y2
099C  6A45      	CLRF FCD_0f051__000A1_arg_FCL_Y2+D'1'
099E  6A46      	CLRF FCD_0f051__000A1_arg_FCL_T_000A2
09A0  0E01      	MOVLW 0x01
09A2  6E47      	MOVWF FCD_0f051__000A1_arg_FCL_SOLID
09A4  ECE0F003  	CALL FCD_0f051__000A1
09A8            label47
09A8  0E02      	MOVLW 0x02
09AA  6E42      	MOVWF delay_s_00000_arg_del
09AC  EC33F000  	CALL delay_s_00000
09B0  6A34      	CLRF gbl_FCV_APPUI_ECRAN
09B2  D7CE      	BRA	label43
09B4            ; } main function end

	ORG 0x000009B4
09B4            _startup
09B4  0ED5      	MOVLW 0xD5
09B6  6E05      	MOVWF gbl_14_LSR
09B8  0EC4      	MOVLW 0xC4
09BA  6E06      	MOVWF gbl_14_LSR+D'1'
09BC  0EBB      	MOVLW 0xBB
09BE  6E07      	MOVWF gbl_14_LSR+D'2'
09C0  0EDC      	MOVLW 0xDC
09C2  6E08      	MOVWF gbl_14_LSR+D'3'
09C4  6A09      	CLRF gbl_15_gbl_aSig
09C6  6A0A      	CLRF gbl_15_gbl_aSig+D'1'
09C8  6A0B      	CLRF gbl_15_gbl_aSig+D'2'
09CA  6A0C      	CLRF gbl_15_gbl_aSig+D'3'
09CC  6A0D      	CLRF gbl_15_gbl_bSig
09CE  6A0E      	CLRF gbl_15_gbl_bSig+D'1'
09D0  6A0F      	CLRF gbl_15_gbl_bSig+D'2'
09D2  6A10      	CLRF gbl_15_gbl_bSig+D'3'
09D4  6A11      	CLRF gbl_15_gbl_zSig
09D6  6A12      	CLRF gbl_15_gbl_zSig+D'1'
09D8  6A13      	CLRF gbl_15_gbl_zSig+D'2'
09DA  6A14      	CLRF gbl_15_gbl_zSig+D'3'
09DC  6A2E      	CLRF gbl_15_gbl_aExp
09DE  6A2F      	CLRF gbl_15_gbl_bExp
09E0  6A1D      	CLRF gbl_15_gbl_zExp
09E2  6A1E      	CLRF gbl_15_gbl_zExp+D'1'
09E4  6A30      	CLRF gbl_15_gbl_aSign
09E6  6A31      	CLRF gbl_15_gbl_bSign
09E8  6A32      	CLRF gbl_15_gbl_zSign
09EA  6A33      	CLRF gbl_15_gbl_zSigZero
09EC  6A15      	CLRF gbl_15_gbl_ret
09EE  6A16      	CLRF gbl_15_gbl_ret+D'1'
09F0  6A17      	CLRF gbl_15_gbl_ret+D'2'
09F2  6A18      	CLRF gbl_15_gbl_ret+D'3'
09F4  6A2C      	CLRF gbl_float_rounding_mode
09F6  6A2D      	CLRF gbl_float_exception_flags
09F8  6A2B      	CLRF gbl_float_detect_tininess
09FA  0E00      	MOVLW 0x00
09FC  6E35      	MOVWF gbl_FCD_00fb8_ASCII6__INTL_00000
09FE  0E01      	MOVLW 0x01
0A00  6E36      	MOVWF gbl_FCD_00fb7_ASCII7__INTL_00001
0A02  0E02      	MOVLW 0x02
0A04  6E37      	MOVWF gbl_FCD_00fb6_ASCII5__INTL_00002
0A06  0E03      	MOVLW 0x03
0A08  6E38      	MOVWF gbl_FCD_00fb5_ASCII4__INTL_00003
0A0A  0E04      	MOVLW 0x04
0A0C  6E39      	MOVWF gbl_FCD_00fb4_ASCII3__INTL_00004
0A0E  0E05      	MOVLW 0x05
0A10  6E3A      	MOVWF gbl_FCD_00fb3_ASCII2__INTL_00005
0A12  0E06      	MOVLW 0x06
0A14  6E3B      	MOVWF gbl_FCD_00fb2_ASCII1__INTL_00006
0A16  0E07      	MOVLW 0x07
0A18  6E3C      	MOVWF gbl_FCD_00fb1_ASCII0__INTL_00007
0A1A  6A19      	CLRF gbl_FCV_0ba71_Base_GLCD__P_00009
0A1C  6A1A      	CLRF gbl_FCV_0ba71_Base_GLCD__P_00009+D'1'
0A1E  6A1B      	CLRF gbl_FCV_0ba71_Base_GLCD__P_00009+D'2'
0A20  6A1C      	CLRF gbl_FCV_0ba71_Base_GLCD__P_00009+D'3'
0A22  6A3D      	CLRF gbl_FCV_0ba71_Base_GLCD__O_0000B
0A24  EFA4F004  	GOTO	main
	ORG 0x00000A28
0A28            interrupt
0A28            ; { interrupt ; function begin
0A28  CFEAF001  	MOVFF FSR0H,  Int1Context
0A2C  CFE9F002  	MOVFF FSR0L,  Int1Context+D'1'
0A30  CFF4F003  	MOVFF PRODH,  Int1Context+D'2'
0A34  CFF3F004  	MOVFF PRODL,  Int1Context+D'3'
0A38  C004FFF3  	MOVFF Int1Context+D'3',  PRODL
0A3C  C003FFF4  	MOVFF Int1Context+D'2',  PRODH
0A40  C002FFE9  	MOVFF Int1Context+D'1',  FSR0L
0A44  C001FFEA  	MOVFF Int1Context,  FSR0H
0A48  0011      	RETFIE 1
0A4A            ; } interrupt function end

	ORG 0x00300000
300000  32FF      	DW 0x32FF
300002  FEFF      	DW 0xFEFF
300004  FBFF      	DW 0xFBFF
300006  FFBA      	DW 0xFFBA
300008  FFFF      	DW 0xFFFF
30000A  FFFF      	DW 0xFFFF
30000C  FFFF      	DW 0xFFFF
