;/////////////////////////////////////////////////////////////////////////////////
;// Code Generator: BoostC Compiler - http://www.sourceboost.com
;// Version       : 7.20
;// License Type  : Pro License
;// Limitations   : PIC18 max code size:Unlimited, max RAM banks:Unlimited
;/////////////////////////////////////////////////////////////////////////////////

	ORG 0x00000000
0000  EF8AF005  	GOTO	_startup
	ORG 0x00000008
0008  EFCBF005  	GOTO	interrupt
	ORG 0x0000000C
000C            delay_us_00000
000C            ; { delay_us ; function begin
000C            label1
000C  0000      	NOP
000E  0000      	NOP
0010  2E54      	DECFSZ delay_us_00000_arg_del, F
0012  D7FC      	BRA	label1
0014  0012      	RETURN
0016            ; } delay_us function end

	ORG 0x00000016
0016            delay_ms_00000
0016            ; { delay_ms ; function begin
0016  5244      	MOVF delay_ms_00000_arg_del, F
0018  0000      	NOP
001A  E101      	BNZ	label2
001C  0012      	RETURN
001E            label2
001E  0EF5      	MOVLW 0xF5
0020            label3
0020  0000      	NOP
0022  0000      	NOP
0024  0000      	NOP
0026  0000      	NOP
0028  0000      	NOP
002A  0000      	NOP
002C  0000      	NOP
002E  0000      	NOP
0030  0000      	NOP
0032  0000      	NOP
0034  0000      	NOP
0036  0000      	NOP
0038  0000      	NOP
003A  0000      	NOP
003C  0000      	NOP
003E  0000      	NOP
0040  0FFF      	ADDLW 0xFF
0042  A4D8      	BTFSS STATUS,Z
0044  D7ED      	BRA	label3
0046  0000      	NOP
0048  0000      	NOP
004A  0000      	NOP
004C  0000      	NOP
004E  0000      	NOP
0050  0000      	NOP
0052  0000      	NOP
0054  0000      	NOP
0056  0000      	NOP
0058  0000      	NOP
005A  0000      	NOP
005C  0000      	NOP
005E  0000      	NOP
0060  2E44      	DECFSZ delay_ms_00000_arg_del, F
0062  D7DD      	BRA	label2
0064  0012      	RETURN
0066            ; } delay_ms function end

	ORG 0x00000066
0066            delay_s_00000
0066            ; { delay_s ; function begin
0066            label4
0066  0EFA      	MOVLW 0xFA
0068  6E44      	MOVWF delay_ms_00000_arg_del
006A  EC0BF000  	CALL delay_ms_00000
006E  0EFA      	MOVLW 0xFA
0070  6E44      	MOVWF delay_ms_00000_arg_del
0072  EC0BF000  	CALL delay_ms_00000
0076  0EFA      	MOVLW 0xFA
0078  6E44      	MOVWF delay_ms_00000_arg_del
007A  EC0BF000  	CALL delay_ms_00000
007E  0EFA      	MOVLW 0xFA
0080  6E44      	MOVWF delay_ms_00000_arg_del
0082  EC0BF000  	CALL delay_ms_00000
0086  2E43      	DECFSZ delay_s_00000_arg_del, F
0088  D7EE      	BRA	label4
008A  0012      	RETURN
008C            ; } delay_s function end

	ORG 0x0000008C
008C            __mul_32_3_00016
008C            ; { __mul_32_32 ; function begin
008C  6A6A      	CLRF CompTempVarRet414
008E  6A6B      	CLRF CompTempVarRet414+D'1'
0090  6A6C      	CLRF CompTempVarRet414+D'2'
0092  6A6D      	CLRF CompTempVarRet414+D'3'
0094  6A6C      	CLRF CompTempVarRet414+D'2'
0096  6A6D      	CLRF CompTempVarRet414+D'3'
0098  505E      	MOVF __mul_32_3_00016_arg_a, W
009A  0262      	MULWF __mul_32_3_00016_arg_b
009C  50F3      	MOVF gbl_prodl, W
009E  6E6A      	MOVWF CompTempVarRet414
00A0  50F4      	MOVF gbl_prodh, W
00A2  6E6B      	MOVWF CompTempVarRet414+D'1'
00A4  505F      	MOVF __mul_32_3_00016_arg_a+D'1', W
00A6  0262      	MULWF __mul_32_3_00016_arg_b
00A8  50F3      	MOVF gbl_prodl, W
00AA  266B      	ADDWF CompTempVarRet414+D'1', F
00AC  50F4      	MOVF gbl_prodh, W
00AE  226C      	ADDWFC CompTempVarRet414+D'2', F
00B0  B0D8      	BTFSC gbl_status,0
00B2  2A6D      	INCF CompTempVarRet414+D'3', F
00B4  5060      	MOVF __mul_32_3_00016_arg_a+D'2', W
00B6  0262      	MULWF __mul_32_3_00016_arg_b
00B8  50F3      	MOVF gbl_prodl, W
00BA  266C      	ADDWF CompTempVarRet414+D'2', F
00BC  50F4      	MOVF gbl_prodh, W
00BE  226D      	ADDWFC CompTempVarRet414+D'3', F
00C0  5061      	MOVF __mul_32_3_00016_arg_a+D'3', W
00C2  0262      	MULWF __mul_32_3_00016_arg_b
00C4  50F3      	MOVF gbl_prodl, W
00C6  266D      	ADDWF CompTempVarRet414+D'3', F
00C8  505E      	MOVF __mul_32_3_00016_arg_a, W
00CA  0263      	MULWF __mul_32_3_00016_arg_b+D'1'
00CC  50F3      	MOVF gbl_prodl, W
00CE  266B      	ADDWF CompTempVarRet414+D'1', F
00D0  50F4      	MOVF gbl_prodh, W
00D2  226C      	ADDWFC CompTempVarRet414+D'2', F
00D4  B0D8      	BTFSC gbl_status,0
00D6  2A6D      	INCF CompTempVarRet414+D'3', F
00D8  505F      	MOVF __mul_32_3_00016_arg_a+D'1', W
00DA  0263      	MULWF __mul_32_3_00016_arg_b+D'1'
00DC  50F3      	MOVF gbl_prodl, W
00DE  266C      	ADDWF CompTempVarRet414+D'2', F
00E0  50F4      	MOVF gbl_prodh, W
00E2  226D      	ADDWFC CompTempVarRet414+D'3', F
00E4  5060      	MOVF __mul_32_3_00016_arg_a+D'2', W
00E6  0263      	MULWF __mul_32_3_00016_arg_b+D'1'
00E8  50F3      	MOVF gbl_prodl, W
00EA  266D      	ADDWF CompTempVarRet414+D'3', F
00EC  505E      	MOVF __mul_32_3_00016_arg_a, W
00EE  0264      	MULWF __mul_32_3_00016_arg_b+D'2'
00F0  50F3      	MOVF gbl_prodl, W
00F2  266C      	ADDWF CompTempVarRet414+D'2', F
00F4  50F4      	MOVF gbl_prodh, W
00F6  226D      	ADDWFC CompTempVarRet414+D'3', F
00F8  505F      	MOVF __mul_32_3_00016_arg_a+D'1', W
00FA  0264      	MULWF __mul_32_3_00016_arg_b+D'2'
00FC  50F3      	MOVF gbl_prodl, W
00FE  266D      	ADDWF CompTempVarRet414+D'3', F
0100  505E      	MOVF __mul_32_3_00016_arg_a, W
0102  0265      	MULWF __mul_32_3_00016_arg_b+D'3'
0104  50F3      	MOVF gbl_prodl, W
0106  266D      	ADDWF CompTempVarRet414+D'3', F
0108  0012      	RETURN
010A            ; } __mul_32_32 function end

	ORG 0x0000010A
010A            __div_32_3_00011
010A            ; { __div_32_32 ; function begin
010A  6A66      	CLRF __div_32_3_00011_1_r
010C  6A67      	CLRF __div_32_3_00011_1_r+D'1'
010E  6A68      	CLRF __div_32_3_00011_1_r+D'2'
0110  6A69      	CLRF __div_32_3_00011_1_r+D'3'
0112  6A6C      	CLRF CompTempVarRet172
0114  6A6D      	CLRF CompTempVarRet172+D'1'
0116  6A6E      	CLRF CompTempVarRet172+D'2'
0118  6A6F      	CLRF CompTempVarRet172+D'3'
011A  6A6A      	CLRF __div_32_3_00011_1_i
011C            label5
011C  0E20      	MOVLW 0x20
011E  146A      	ANDWF __div_32_3_00011_1_i, W
0120  6E6B      	MOVWF CompTempVar174
0122  666B      	TSTFSZ CompTempVar174
0124  0012      	RETURN
0126  90D8      	BCF STATUS,C
0128  366C      	RLCF CompTempVarRet172, F
012A  366D      	RLCF CompTempVarRet172+D'1', F
012C  366E      	RLCF CompTempVarRet172+D'2', F
012E  366F      	RLCF CompTempVarRet172+D'3', F
0130  365E      	RLCF __div_32_3_00011_arg_a, F
0132  365F      	RLCF __div_32_3_00011_arg_a+D'1', F
0134  3660      	RLCF __div_32_3_00011_arg_a+D'2', F
0136  3661      	RLCF __div_32_3_00011_arg_a+D'3', F
0138  3666      	RLCF __div_32_3_00011_1_r, F
013A  3667      	RLCF __div_32_3_00011_1_r+D'1', F
013C  3668      	RLCF __div_32_3_00011_1_r+D'2', F
013E  3669      	RLCF __div_32_3_00011_1_r+D'3', F
0140  5065      	MOVF __div_32_3_00011_arg_b+D'3', W
0142  5C69      	SUBWF __div_32_3_00011_1_r+D'3', W
0144  E108      	BNZ	label6
0146  5064      	MOVF __div_32_3_00011_arg_b+D'2', W
0148  5C68      	SUBWF __div_32_3_00011_1_r+D'2', W
014A  E105      	BNZ	label6
014C  5063      	MOVF __div_32_3_00011_arg_b+D'1', W
014E  5C67      	SUBWF __div_32_3_00011_1_r+D'1', W
0150  E102      	BNZ	label6
0152  5062      	MOVF __div_32_3_00011_arg_b, W
0154  5C66      	SUBWF __div_32_3_00011_1_r, W
0156            label6
0156  E309      	BNC	label7
0158  5062      	MOVF __div_32_3_00011_arg_b, W
015A  5E66      	SUBWF __div_32_3_00011_1_r, F
015C  5063      	MOVF __div_32_3_00011_arg_b+D'1', W
015E  5A67      	SUBWFB __div_32_3_00011_1_r+D'1', F
0160  5064      	MOVF __div_32_3_00011_arg_b+D'2', W
0162  5A68      	SUBWFB __div_32_3_00011_1_r+D'2', F
0164  5065      	MOVF __div_32_3_00011_arg_b+D'3', W
0166  5A69      	SUBWFB __div_32_3_00011_1_r+D'3', F
0168  806C      	BSF CompTempVarRet172,0
016A            label7
016A  2A6A      	INCF __div_32_3_00011_1_i, F
016C  D7D7      	BRA	label5
016E            ; } __div_32_32 function end

	ORG 0x0000016E
016E            FC_CAL_UAR_0006F
016E            ; { FC_CAL_UART_Send_1 ; function begin
016E            label8
016E  0E10      	MOVLW 0x10
0170  149E      	ANDWF gbl_pir1, W
0172  6E49      	MOVWF CompTempVar2666
0174  5249      	MOVF CompTempVar2666, F
0176  E0FB      	BZ	label8
0178  5047      	MOVF FC_CAL_UAR_0006F_arg_nChar, W
017A  6EAD      	MOVWF gbl_txreg
017C  0012      	RETURN
017E            ; } FC_CAL_UART_Send_1 function end

	ORG 0x0000017E
017E            FC_CAL_UAR_0006E
017E            ; { FC_CAL_UART_Receive_1 ; function begin
017E  6848      	SETF FC_CAL_UAR_0006E_1_retVal
0180  6A49      	CLRF FC_CAL_UAR_0006E_1_delay1
0182  6A4A      	CLRF FC_CAL_UAR_0006E_1_regcheck
0184  6A4B      	CLRF FC_CAL_UAR_0006E_1_bWaitForever
0186  6A4C      	CLRF FC_CAL_UAR_0006E_1_rxStatus
0188  6A4F      	CLRF FC_CAL_UAR_0006E_1_dummy
018A  2847      	INCF FC_CAL_UAR_0006E_arg_nTimeout, W
018C  E102      	BNZ	label9
018E  0E01      	MOVLW 0x01
0190  6E4B      	MOVWF FC_CAL_UAR_0006E_1_bWaitForever
0192            label9
0192  524C      	MOVF FC_CAL_UAR_0006E_1_rxStatus, F
0194  E124      	BNZ	label14
0196  524B      	MOVF FC_CAL_UAR_0006E_1_bWaitForever, F
0198  E118      	BNZ	label13
019A  5247      	MOVF FC_CAL_UAR_0006E_arg_nTimeout, F
019C  E103      	BNZ	label10
019E  0E01      	MOVLW 0x01
01A0  6E4C      	MOVWF FC_CAL_UAR_0006E_1_rxStatus
01A2  D013      	BRA	label13
01A4            label10
01A4  6A4D      	CLRF FC_CAL_UAR_0006E_1_delaycnt
01A6  6A4E      	CLRF FC_CAL_UAR_0006E_1_delaycnt+D'1'
01A8            label11
01A8  0E31      	MOVLW 0x31
01AA  5C4D      	SUBWF FC_CAL_UAR_0006E_1_delaycnt, W
01AC  E205      	BC	label12
01AE  664E      	TSTFSZ FC_CAL_UAR_0006E_1_delaycnt+D'1'
01B0  D003      	BRA	label12
01B2  4A4D      	INFSNZ FC_CAL_UAR_0006E_1_delaycnt, F
01B4  2A4E      	INCF FC_CAL_UAR_0006E_1_delaycnt+D'1', F
01B6  D7F8      	BRA	label11
01B8            label12
01B8  2849      	INCF FC_CAL_UAR_0006E_1_delay1, W
01BA  6E49      	MOVWF FC_CAL_UAR_0006E_1_delay1
01BC  0E64      	MOVLW 0x64
01BE  6249      	CPFSEQ FC_CAL_UAR_0006E_1_delay1
01C0  D004      	BRA	label13
01C2  0447      	DECF FC_CAL_UAR_0006E_arg_nTimeout, W
01C4  6E47      	MOVWF FC_CAL_UAR_0006E_arg_nTimeout
01C6  0004      	CLRWDT
01C8  6A49      	CLRF FC_CAL_UAR_0006E_1_delay1
01CA            label13
01CA  0E20      	MOVLW 0x20
01CC  149E      	ANDWF gbl_pir1, W
01CE  6E50      	MOVWF CompTempVar2663
01D0  5050      	MOVF CompTempVar2663, W
01D2  6E4A      	MOVWF FC_CAL_UAR_0006E_1_regcheck
01D4  524A      	MOVF FC_CAL_UAR_0006E_1_regcheck, F
01D6  E0DD      	BZ	label9
01D8  0E02      	MOVLW 0x02
01DA  6E4C      	MOVWF FC_CAL_UAR_0006E_1_rxStatus
01DC  D7DA      	BRA	label9
01DE            label14
01DE  0E02      	MOVLW 0x02
01E0  624C      	CPFSEQ FC_CAL_UAR_0006E_1_rxStatus
01E2  D018      	BRA	label17
01E4  0E04      	MOVLW 0x04
01E6  14AB      	ANDWF gbl_rcsta, W
01E8  6E50      	MOVWF CompTempVar2664
01EA  5050      	MOVF CompTempVar2664, W
01EC  6E4A      	MOVWF FC_CAL_UAR_0006E_1_regcheck
01EE  524A      	MOVF FC_CAL_UAR_0006E_1_regcheck, F
01F0  E003      	BZ	label15
01F2  50AE      	MOVF gbl_rcreg, W
01F4  6E4F      	MOVWF FC_CAL_UAR_0006E_1_dummy
01F6  D00E      	BRA	label17
01F8            label15
01F8  0E02      	MOVLW 0x02
01FA  14AB      	ANDWF gbl_rcsta, W
01FC  6E50      	MOVWF CompTempVar2665
01FE  5050      	MOVF CompTempVar2665, W
0200  6E4A      	MOVWF FC_CAL_UAR_0006E_1_regcheck
0202  524A      	MOVF FC_CAL_UAR_0006E_1_regcheck, F
0204  E003      	BZ	label16
0206  98AB      	BCF gbl_rcsta,4
0208  88AB      	BSF gbl_rcsta,4
020A  D004      	BRA	label17
020C            label16
020C  6A48      	CLRF FC_CAL_UAR_0006E_1_retVal
020E  50AE      	MOVF gbl_rcreg, W
0210  1048      	IORWF FC_CAL_UAR_0006E_1_retVal, W
0212  6E48      	MOVWF FC_CAL_UAR_0006E_1_retVal
0214            label17
0214  5048      	MOVF FC_CAL_UAR_0006E_1_retVal, W
0216  6E50      	MOVWF CompTempVarRet2662
0218  6A51      	CLRF CompTempVarRet2662+D'1'
021A  0012      	RETURN
021C            ; } FC_CAL_UART_Receive_1 function end

	ORG 0x0000021C
021C            FC_CAL_UAR_0006D
021C            ; { FC_CAL_UART_Uninit_1 ; function begin
021C  6AAB      	CLRF gbl_rcsta
021E  6AAC      	CLRF gbl_txsta
0220  0012      	RETURN
0222            ; } FC_CAL_UART_Uninit_1 function end

	ORG 0x00000222
0222            FCI_GETLEN_0004B
0222            ; { FCI_GETLENGTH ; function begin
0222  6A54      	CLRF FCI_GETLEN_0004B_1_tmp
0224            label18
0224  5053      	MOVF FCI_GETLEN_0004B_arg_iStr1_len, W
0226  6054      	CPFSLT FCI_GETLEN_0004B_1_tmp
0228  D009      	BRA	label19
022A  5052      	MOVF FCI_GETLEN_0004B_arg_sStr1+D'1', W
022C  6EEA      	MOVWF FSR0H
022E  5051      	MOVF FCI_GETLEN_0004B_arg_sStr1, W
0230  2454      	ADDWF FCI_GETLEN_0004B_1_tmp, W
0232  6EE9      	MOVWF FSR0L
0234  52EF      	MOVF INDF0, F
0236  E002      	BZ	label19
0238  2A54      	INCF FCI_GETLEN_0004B_1_tmp, F
023A  D7F4      	BRA	label18
023C            label19
023C  5054      	MOVF FCI_GETLEN_0004B_1_tmp, W
023E  6E55      	MOVWF CompTempVarRet1850
0240  0012      	RETURN
0242            ; } FCI_GETLENGTH function end

	ORG 0x00000242
0242            FCD_04071__0005C
0242            ; { FCD_04071_LCD__RawSend ; function begin
0242  6A54      	CLRF FCD_04071__0005C_2_ptmp
0244  9093      	BCF gbl_trisb,0
0246  5254      	MOVF FCD_04071__0005C_2_ptmp, F
0248  E004      	BZ	label20
024A  0E01      	MOVLW 0x01
024C  108A      	IORWF gbl_latb, W
024E  6E81      	MOVWF gbl_portb
0250  D003      	BRA	label21
0252            label20
0252  0EFE      	MOVLW 0xFE
0254  148A      	ANDWF gbl_latb, W
0256  6E81      	MOVWF gbl_portb
0258            label21
0258  6A54      	CLRF FCD_04071__0005C_9_ptmp
025A  9293      	BCF gbl_trisb,1
025C  5254      	MOVF FCD_04071__0005C_9_ptmp, F
025E  E004      	BZ	label22
0260  0E02      	MOVLW 0x02
0262  108A      	IORWF gbl_latb, W
0264  6E81      	MOVWF gbl_portb
0266  D003      	BRA	label23
0268            label22
0268  0EFD      	MOVLW 0xFD
026A  148A      	ANDWF gbl_latb, W
026C  6E81      	MOVWF gbl_portb
026E            label23
026E  6A54      	CLRF FCD_04071__0005C_16_ptmp
0270  9493      	BCF gbl_trisb,2
0272  5254      	MOVF FCD_04071__0005C_16_ptmp, F
0274  E004      	BZ	label24
0276  0E04      	MOVLW 0x04
0278  108A      	IORWF gbl_latb, W
027A  6E81      	MOVWF gbl_portb
027C  D003      	BRA	label25
027E            label24
027E  0EFB      	MOVLW 0xFB
0280  148A      	ANDWF gbl_latb, W
0282  6E81      	MOVWF gbl_portb
0284            label25
0284  6A54      	CLRF FCD_04071__0005C_23_ptmp
0286  9693      	BCF gbl_trisb,3
0288  5254      	MOVF FCD_04071__0005C_23_ptmp, F
028A  E004      	BZ	label26
028C  0E08      	MOVLW 0x08
028E  108A      	IORWF gbl_latb, W
0290  6E81      	MOVWF gbl_portb
0292  D003      	BRA	label27
0294            label26
0294  0EF7      	MOVLW 0xF7
0296  148A      	ANDWF gbl_latb, W
0298  6E81      	MOVWF gbl_portb
029A            label27
029A  6A54      	CLRF FCD_04071__0005C_30_ptmp
029C  9893      	BCF gbl_trisb,4
029E  5254      	MOVF FCD_04071__0005C_30_ptmp, F
02A0  E004      	BZ	label28
02A2  0E10      	MOVLW 0x10
02A4  108A      	IORWF gbl_latb, W
02A6  6E81      	MOVWF gbl_portb
02A8  D003      	BRA	label29
02AA            label28
02AA  0EEF      	MOVLW 0xEF
02AC  148A      	ANDWF gbl_latb, W
02AE  6E81      	MOVWF gbl_portb
02B0            label29
02B0  6A54      	CLRF FCD_04071__0005C_37_ptmp
02B2  9A93      	BCF gbl_trisb,5
02B4  5254      	MOVF FCD_04071__0005C_37_ptmp, F
02B6  E004      	BZ	label30
02B8  0E20      	MOVLW 0x20
02BA  108A      	IORWF gbl_latb, W
02BC  6E81      	MOVWF gbl_portb
02BE  D003      	BRA	label31
02C0            label30
02C0  0EDF      	MOVLW 0xDF
02C2  148A      	ANDWF gbl_latb, W
02C4  6E81      	MOVWF gbl_portb
02C6            label31
02C6  3851      	SWAPF FCD_04071__0005C_arg_FCL_DATA, W
02C8  0B0F      	ANDLW 0x0F
02CA  6E53      	MOVWF FCD_04071__0005C_1_FCL_NIBBLE
02CC  0E01      	MOVLW 0x01
02CE  1453      	ANDWF FCD_04071__0005C_1_FCL_NIBBLE, W
02D0  6E54      	MOVWF FCD_04071__0005C_46_ptmp
02D2  9093      	BCF gbl_trisb,0
02D4  5254      	MOVF FCD_04071__0005C_46_ptmp, F
02D6  E004      	BZ	label32
02D8  0E01      	MOVLW 0x01
02DA  108A      	IORWF gbl_latb, W
02DC  6E81      	MOVWF gbl_portb
02DE  D003      	BRA	label33
02E0            label32
02E0  0EFE      	MOVLW 0xFE
02E2  148A      	ANDWF gbl_latb, W
02E4  6E81      	MOVWF gbl_portb
02E6            label33
02E6  5253      	MOVF FCD_04071__0005C_1_FCL_NIBBLE, F
02E8  90D8      	BCF STATUS,C
02EA  3253      	RRCF FCD_04071__0005C_1_FCL_NIBBLE, F
02EC  0E01      	MOVLW 0x01
02EE  1453      	ANDWF FCD_04071__0005C_1_FCL_NIBBLE, W
02F0  6E54      	MOVWF FCD_04071__0005C_55_ptmp
02F2  9293      	BCF gbl_trisb,1
02F4  5254      	MOVF FCD_04071__0005C_55_ptmp, F
02F6  E004      	BZ	label34
02F8  0E02      	MOVLW 0x02
02FA  108A      	IORWF gbl_latb, W
02FC  6E81      	MOVWF gbl_portb
02FE  D003      	BRA	label35
0300            label34
0300  0EFD      	MOVLW 0xFD
0302  148A      	ANDWF gbl_latb, W
0304  6E81      	MOVWF gbl_portb
0306            label35
0306  5253      	MOVF FCD_04071__0005C_1_FCL_NIBBLE, F
0308  90D8      	BCF STATUS,C
030A  3253      	RRCF FCD_04071__0005C_1_FCL_NIBBLE, F
030C  0E01      	MOVLW 0x01
030E  1453      	ANDWF FCD_04071__0005C_1_FCL_NIBBLE, W
0310  6E54      	MOVWF FCD_04071__0005C_64_ptmp
0312  9493      	BCF gbl_trisb,2
0314  5254      	MOVF FCD_04071__0005C_64_ptmp, F
0316  E004      	BZ	label36
0318  0E04      	MOVLW 0x04
031A  108A      	IORWF gbl_latb, W
031C  6E81      	MOVWF gbl_portb
031E  D003      	BRA	label37
0320            label36
0320  0EFB      	MOVLW 0xFB
0322  148A      	ANDWF gbl_latb, W
0324  6E81      	MOVWF gbl_portb
0326            label37
0326  5253      	MOVF FCD_04071__0005C_1_FCL_NIBBLE, F
0328  90D8      	BCF STATUS,C
032A  3253      	RRCF FCD_04071__0005C_1_FCL_NIBBLE, F
032C  0E01      	MOVLW 0x01
032E  1453      	ANDWF FCD_04071__0005C_1_FCL_NIBBLE, W
0330  6E54      	MOVWF FCD_04071__0005C_73_ptmp
0332  9693      	BCF gbl_trisb,3
0334  5254      	MOVF FCD_04071__0005C_73_ptmp, F
0336  E004      	BZ	label38
0338  0E08      	MOVLW 0x08
033A  108A      	IORWF gbl_latb, W
033C  6E81      	MOVWF gbl_portb
033E  D003      	BRA	label39
0340            label38
0340  0EF7      	MOVLW 0xF7
0342  148A      	ANDWF gbl_latb, W
0344  6E81      	MOVWF gbl_portb
0346            label39
0346  A052      	BTFSS FCD_04071__0005C_arg_FCL_TYPE,0
0348  D00C      	BRA	label41
034A  0E01      	MOVLW 0x01
034C  6E54      	MOVWF FCD_04071__0005C_82_ptmp
034E  9893      	BCF gbl_trisb,4
0350  5254      	MOVF FCD_04071__0005C_82_ptmp, F
0352  E004      	BZ	label40
0354  0E10      	MOVLW 0x10
0356  108A      	IORWF gbl_latb, W
0358  6E81      	MOVWF gbl_portb
035A  D003      	BRA	label41
035C            label40
035C  0EEF      	MOVLW 0xEF
035E  148A      	ANDWF gbl_latb, W
0360  6E81      	MOVWF gbl_portb
0362            label41
0362  0E64      	MOVLW 0x64
0364  6E54      	MOVWF delay_us_00000_arg_del
0366  EC06F000  	CALL delay_us_00000
036A  0E01      	MOVLW 0x01
036C  6E54      	MOVWF FCD_04071__0005C_93_ptmp
036E  9A93      	BCF gbl_trisb,5
0370  5254      	MOVF FCD_04071__0005C_93_ptmp, F
0372  E004      	BZ	label42
0374  0E20      	MOVLW 0x20
0376  108A      	IORWF gbl_latb, W
0378  6E81      	MOVWF gbl_portb
037A  D003      	BRA	label43
037C            label42
037C  0EDF      	MOVLW 0xDF
037E  148A      	ANDWF gbl_latb, W
0380  6E81      	MOVWF gbl_portb
0382            label43
0382  0E64      	MOVLW 0x64
0384  6E54      	MOVWF delay_us_00000_arg_del
0386  EC06F000  	CALL delay_us_00000
038A  6A54      	CLRF FCD_04071__0005C_104_ptmp
038C  9A93      	BCF gbl_trisb,5
038E  5254      	MOVF FCD_04071__0005C_104_ptmp, F
0390  E004      	BZ	label44
0392  0E20      	MOVLW 0x20
0394  108A      	IORWF gbl_latb, W
0396  6E81      	MOVWF gbl_portb
0398  D003      	BRA	label45
039A            label44
039A  0EDF      	MOVLW 0xDF
039C  148A      	ANDWF gbl_latb, W
039E  6E81      	MOVWF gbl_portb
03A0            label45
03A0  0E64      	MOVLW 0x64
03A2  6E54      	MOVWF delay_us_00000_arg_del
03A4  EC06F000  	CALL delay_us_00000
03A8  6A54      	CLRF FCD_04071__0005C_115_ptmp
03AA  9093      	BCF gbl_trisb,0
03AC  5254      	MOVF FCD_04071__0005C_115_ptmp, F
03AE  E004      	BZ	label46
03B0  0E01      	MOVLW 0x01
03B2  108A      	IORWF gbl_latb, W
03B4  6E81      	MOVWF gbl_portb
03B6  D003      	BRA	label47
03B8            label46
03B8  0EFE      	MOVLW 0xFE
03BA  148A      	ANDWF gbl_latb, W
03BC  6E81      	MOVWF gbl_portb
03BE            label47
03BE  6A54      	CLRF FCD_04071__0005C_122_ptmp
03C0  9293      	BCF gbl_trisb,1
03C2  5254      	MOVF FCD_04071__0005C_122_ptmp, F
03C4  E004      	BZ	label48
03C6  0E02      	MOVLW 0x02
03C8  108A      	IORWF gbl_latb, W
03CA  6E81      	MOVWF gbl_portb
03CC  D003      	BRA	label49
03CE            label48
03CE  0EFD      	MOVLW 0xFD
03D0  148A      	ANDWF gbl_latb, W
03D2  6E81      	MOVWF gbl_portb
03D4            label49
03D4  6A54      	CLRF FCD_04071__0005C_129_ptmp
03D6  9493      	BCF gbl_trisb,2
03D8  5254      	MOVF FCD_04071__0005C_129_ptmp, F
03DA  E004      	BZ	label50
03DC  0E04      	MOVLW 0x04
03DE  108A      	IORWF gbl_latb, W
03E0  6E81      	MOVWF gbl_portb
03E2  D003      	BRA	label51
03E4            label50
03E4  0EFB      	MOVLW 0xFB
03E6  148A      	ANDWF gbl_latb, W
03E8  6E81      	MOVWF gbl_portb
03EA            label51
03EA  6A54      	CLRF FCD_04071__0005C_136_ptmp
03EC  9693      	BCF gbl_trisb,3
03EE  5254      	MOVF FCD_04071__0005C_136_ptmp, F
03F0  E004      	BZ	label52
03F2  0E08      	MOVLW 0x08
03F4  108A      	IORWF gbl_latb, W
03F6  6E81      	MOVWF gbl_portb
03F8  D003      	BRA	label53
03FA            label52
03FA  0EF7      	MOVLW 0xF7
03FC  148A      	ANDWF gbl_latb, W
03FE  6E81      	MOVWF gbl_portb
0400            label53
0400  6A54      	CLRF FCD_04071__0005C_143_ptmp
0402  9893      	BCF gbl_trisb,4
0404  5254      	MOVF FCD_04071__0005C_143_ptmp, F
0406  E004      	BZ	label54
0408  0E10      	MOVLW 0x10
040A  108A      	IORWF gbl_latb, W
040C  6E81      	MOVWF gbl_portb
040E  D003      	BRA	label55
0410            label54
0410  0EEF      	MOVLW 0xEF
0412  148A      	ANDWF gbl_latb, W
0414  6E81      	MOVWF gbl_portb
0416            label55
0416  0E0F      	MOVLW 0x0F
0418  1451      	ANDWF FCD_04071__0005C_arg_FCL_DATA, W
041A  6E54      	MOVWF CompTempVar2641
041C  5054      	MOVF CompTempVar2641, W
041E  6E53      	MOVWF FCD_04071__0005C_1_FCL_NIBBLE
0420  0E01      	MOVLW 0x01
0422  1453      	ANDWF FCD_04071__0005C_1_FCL_NIBBLE, W
0424  6E54      	MOVWF FCD_04071__0005C_152_ptmp
0426  9093      	BCF gbl_trisb,0
0428  5254      	MOVF FCD_04071__0005C_152_ptmp, F
042A  E004      	BZ	label56
042C  0E01      	MOVLW 0x01
042E  108A      	IORWF gbl_latb, W
0430  6E81      	MOVWF gbl_portb
0432  D003      	BRA	label57
0434            label56
0434  0EFE      	MOVLW 0xFE
0436  148A      	ANDWF gbl_latb, W
0438  6E81      	MOVWF gbl_portb
043A            label57
043A  5253      	MOVF FCD_04071__0005C_1_FCL_NIBBLE, F
043C  90D8      	BCF STATUS,C
043E  3253      	RRCF FCD_04071__0005C_1_FCL_NIBBLE, F
0440  0E01      	MOVLW 0x01
0442  1453      	ANDWF FCD_04071__0005C_1_FCL_NIBBLE, W
0444  6E54      	MOVWF FCD_04071__0005C_161_ptmp
0446  9293      	BCF gbl_trisb,1
0448  5254      	MOVF FCD_04071__0005C_161_ptmp, F
044A  E004      	BZ	label58
044C  0E02      	MOVLW 0x02
044E  108A      	IORWF gbl_latb, W
0450  6E81      	MOVWF gbl_portb
0452  D003      	BRA	label59
0454            label58
0454  0EFD      	MOVLW 0xFD
0456  148A      	ANDWF gbl_latb, W
0458  6E81      	MOVWF gbl_portb
045A            label59
045A  5253      	MOVF FCD_04071__0005C_1_FCL_NIBBLE, F
045C  90D8      	BCF STATUS,C
045E  3253      	RRCF FCD_04071__0005C_1_FCL_NIBBLE, F
0460  0E01      	MOVLW 0x01
0462  1453      	ANDWF FCD_04071__0005C_1_FCL_NIBBLE, W
0464  6E54      	MOVWF FCD_04071__0005C_170_ptmp
0466  9493      	BCF gbl_trisb,2
0468  5254      	MOVF FCD_04071__0005C_170_ptmp, F
046A  E004      	BZ	label60
046C  0E04      	MOVLW 0x04
046E  108A      	IORWF gbl_latb, W
0470  6E81      	MOVWF gbl_portb
0472  D003      	BRA	label61
0474            label60
0474  0EFB      	MOVLW 0xFB
0476  148A      	ANDWF gbl_latb, W
0478  6E81      	MOVWF gbl_portb
047A            label61
047A  5253      	MOVF FCD_04071__0005C_1_FCL_NIBBLE, F
047C  90D8      	BCF STATUS,C
047E  3253      	RRCF FCD_04071__0005C_1_FCL_NIBBLE, F
0480  0E01      	MOVLW 0x01
0482  1453      	ANDWF FCD_04071__0005C_1_FCL_NIBBLE, W
0484  6E54      	MOVWF FCD_04071__0005C_179_ptmp
0486  9693      	BCF gbl_trisb,3
0488  5254      	MOVF FCD_04071__0005C_179_ptmp, F
048A  E004      	BZ	label62
048C  0E08      	MOVLW 0x08
048E  108A      	IORWF gbl_latb, W
0490  6E81      	MOVWF gbl_portb
0492  D003      	BRA	label63
0494            label62
0494  0EF7      	MOVLW 0xF7
0496  148A      	ANDWF gbl_latb, W
0498  6E81      	MOVWF gbl_portb
049A            label63
049A  A052      	BTFSS FCD_04071__0005C_arg_FCL_TYPE,0
049C  D00C      	BRA	label65
049E  0E01      	MOVLW 0x01
04A0  6E54      	MOVWF FCD_04071__0005C_188_ptmp
04A2  9893      	BCF gbl_trisb,4
04A4  5254      	MOVF FCD_04071__0005C_188_ptmp, F
04A6  E004      	BZ	label64
04A8  0E10      	MOVLW 0x10
04AA  108A      	IORWF gbl_latb, W
04AC  6E81      	MOVWF gbl_portb
04AE  D003      	BRA	label65
04B0            label64
04B0  0EEF      	MOVLW 0xEF
04B2  148A      	ANDWF gbl_latb, W
04B4  6E81      	MOVWF gbl_portb
04B6            label65
04B6  0E64      	MOVLW 0x64
04B8  6E54      	MOVWF delay_us_00000_arg_del
04BA  EC06F000  	CALL delay_us_00000
04BE  0E01      	MOVLW 0x01
04C0  6E54      	MOVWF FCD_04071__0005C_199_ptmp
04C2  9A93      	BCF gbl_trisb,5
04C4  5254      	MOVF FCD_04071__0005C_199_ptmp, F
04C6  E004      	BZ	label66
04C8  0E20      	MOVLW 0x20
04CA  108A      	IORWF gbl_latb, W
04CC  6E81      	MOVWF gbl_portb
04CE  D003      	BRA	label67
04D0            label66
04D0  0EDF      	MOVLW 0xDF
04D2  148A      	ANDWF gbl_latb, W
04D4  6E81      	MOVWF gbl_portb
04D6            label67
04D6  0E64      	MOVLW 0x64
04D8  6E54      	MOVWF delay_us_00000_arg_del
04DA  EC06F000  	CALL delay_us_00000
04DE  6A54      	CLRF FCD_04071__0005C_210_ptmp
04E0  9A93      	BCF gbl_trisb,5
04E2  5254      	MOVF FCD_04071__0005C_210_ptmp, F
04E4  E004      	BZ	label68
04E6  0E20      	MOVLW 0x20
04E8  108A      	IORWF gbl_latb, W
04EA  6E81      	MOVWF gbl_portb
04EC  D003      	BRA	label69
04EE            label68
04EE  0EDF      	MOVLW 0xDF
04F0  148A      	ANDWF gbl_latb, W
04F2  6E81      	MOVWF gbl_portb
04F4            label69
04F4  0E64      	MOVLW 0x64
04F6  6E54      	MOVWF delay_us_00000_arg_del
04F8  EC06F000  	CALL delay_us_00000
04FC  0012      	RETURN
04FE            ; } FCD_04071_LCD__RawSend function end

	ORG 0x000004FE
04FE            FC_CAL_UAR_00070
04FE            ; { FC_CAL_UART_Init_1 ; function begin
04FE  84AC      	BSF gbl_txsta,2
0500  0E7F      	MOVLW 0x7F
0502  6EAF      	MOVWF gbl_spbrg
0504  6AAB      	CLRF gbl_rcsta
0506  8EAB      	BSF gbl_rcsta,7
0508  8AAC      	BSF gbl_txsta,5
050A  88AB      	BSF gbl_rcsta,4
050C  9A9D      	BCF gbl_pie1,5
050E  0012      	RETURN
0510            ; } FC_CAL_UART_Init_1 function end

	ORG 0x00000510
0510            FC_CAL_UAR_0006C
0510            ; { FC_CAL_UART_UpdateBaud_1 ; function begin
0510  0E07      	MOVLW 0x07
0512  6443      	CPFSGT FC_CAL_UAR_0006C_arg_new_baud
0514  D001      	BRA	label70
0516  0012      	RETURN
0518            label70
0518  5243      	MOVF FC_CAL_UAR_0006C_arg_new_baud, F
051A  E104      	BNZ	label71
051C  6844      	SETF FC_CAL_UAR_0006C_1_baudrate
051E  0E01      	MOVLW 0x01
0520  6E45      	MOVWF FC_CAL_UAR_0006C_1_baudmode
0522  D02F      	BRA	label78
0524            label71
0524  0443      	DECF FC_CAL_UAR_0006C_arg_new_baud, W
0526  E105      	BNZ	label72
0528  0E7F      	MOVLW 0x7F
052A  6E44      	MOVWF FC_CAL_UAR_0006C_1_baudrate
052C  0E01      	MOVLW 0x01
052E  6E45      	MOVWF FC_CAL_UAR_0006C_1_baudmode
0530  D028      	BRA	label78
0532            label72
0532  0E02      	MOVLW 0x02
0534  6243      	CPFSEQ FC_CAL_UAR_0006C_arg_new_baud
0536  D003      	BRA	label73
0538  6844      	SETF FC_CAL_UAR_0006C_1_baudrate
053A  6A45      	CLRF FC_CAL_UAR_0006C_1_baudmode
053C  D022      	BRA	label78
053E            label73
053E  0E03      	MOVLW 0x03
0540  6243      	CPFSEQ FC_CAL_UAR_0006C_arg_new_baud
0542  D004      	BRA	label74
0544  0E7F      	MOVLW 0x7F
0546  6E44      	MOVWF FC_CAL_UAR_0006C_1_baudrate
0548  6A45      	CLRF FC_CAL_UAR_0006C_1_baudmode
054A  D01B      	BRA	label78
054C            label74
054C  0E04      	MOVLW 0x04
054E  6243      	CPFSEQ FC_CAL_UAR_0006C_arg_new_baud
0550  D004      	BRA	label75
0552  0E3F      	MOVLW 0x3F
0554  6E44      	MOVWF FC_CAL_UAR_0006C_1_baudrate
0556  6A45      	CLRF FC_CAL_UAR_0006C_1_baudmode
0558  D014      	BRA	label78
055A            label75
055A  0E05      	MOVLW 0x05
055C  6243      	CPFSEQ FC_CAL_UAR_0006C_arg_new_baud
055E  D004      	BRA	label76
0560  0E1F      	MOVLW 0x1F
0562  6E44      	MOVWF FC_CAL_UAR_0006C_1_baudrate
0564  6A45      	CLRF FC_CAL_UAR_0006C_1_baudmode
0566  D00D      	BRA	label78
0568            label76
0568  0E06      	MOVLW 0x06
056A  6243      	CPFSEQ FC_CAL_UAR_0006C_arg_new_baud
056C  D004      	BRA	label77
056E  0E14      	MOVLW 0x14
0570  6E44      	MOVWF FC_CAL_UAR_0006C_1_baudrate
0572  6A45      	CLRF FC_CAL_UAR_0006C_1_baudmode
0574  D006      	BRA	label78
0576            label77
0576  0E07      	MOVLW 0x07
0578  6243      	CPFSEQ FC_CAL_UAR_0006C_arg_new_baud
057A  D003      	BRA	label78
057C  0E0A      	MOVLW 0x0A
057E  6E44      	MOVWF FC_CAL_UAR_0006C_1_baudrate
0580  6A45      	CLRF FC_CAL_UAR_0006C_1_baudmode
0582            label78
0582  EC0EF001  	CALL FC_CAL_UAR_0006D
0586  0445      	DECF FC_CAL_UAR_0006C_1_baudmode, W
0588  E102      	BNZ	label79
058A  94AC      	BCF gbl_txsta,2
058C  D001      	BRA	label80
058E            label79
058E  84AC      	BSF gbl_txsta,2
0590            label80
0590  5044      	MOVF FC_CAL_UAR_0006C_1_baudrate, W
0592  6EAF      	MOVWF gbl_spbrg
0594  6AAB      	CLRF gbl_rcsta
0596  8EAB      	BSF gbl_rcsta,7
0598  8AAC      	BSF gbl_txsta,5
059A  88AB      	BSF gbl_rcsta,4
059C  9A9D      	BCF gbl_pie1,5
059E  0012      	RETURN
05A0            ; } FC_CAL_UART_UpdateBaud_1 function end

	ORG 0x000005A0
05A0            FC_CAL_Por_00042
05A0            ; { FC_CAL_Port_In_DDR__x ; function begin
05A0  5046      	MOVF FC_CAL_Por_00042_arg_Tris+D'1', W
05A2  6EEA      	MOVWF FSR0H
05A4  5045      	MOVF FC_CAL_Por_00042_arg_Tris, W
05A6  6EE9      	MOVWF FSR0L
05A8  5047      	MOVF FC_CAL_Por_00042_arg_InMask, W
05AA  10EF      	IORWF INDF0, W
05AC  6E49      	MOVWF CompTempVar1825
05AE  5049      	MOVF CompTempVar1825, W
05B0  6EEF      	MOVWF INDF0
05B2  5044      	MOVF FC_CAL_Por_00042_arg_Port+D'1', W
05B4  6EEA      	MOVWF FSR0H
05B6  5043      	MOVF FC_CAL_Por_00042_arg_Port, W
05B8  6EE9      	MOVWF FSR0L
05BA  5047      	MOVF FC_CAL_Por_00042_arg_InMask, W
05BC  14EF      	ANDWF INDF0, W
05BE  6E49      	MOVWF CompTempVarRet1822
05C0  5048      	MOVF FC_CAL_Por_00042_arg_Shift, W
05C2  6E4A      	MOVWF CompTempVar1827
05C4            label81
05C4  B4D8      	BTFSC STATUS,Z
05C6  0012      	RETURN
05C8  90D8      	BCF STATUS,C
05CA  3249      	RRCF CompTempVarRet1822, F
05CC  064A      	DECF CompTempVar1827, F
05CE  D7FA      	BRA	label81
05D0            ; } FC_CAL_Port_In_DDR__x function end

	ORG 0x000005D0
05D0            FCI_TOSTRI_0004F
05D0            ; { FCI_TOSTRING ; function begin
05D0  504B      	MOVF FCI_TOSTRI_0004F_arg_iSrc1, W
05D2  6E53      	MOVWF FCI_TOSTRI_0004F_1_iSrc
05D4  504C      	MOVF FCI_TOSTRI_0004F_arg_iSrc1+D'1', W
05D6  6E54      	MOVWF FCI_TOSTRI_0004F_1_iSrc+D'1'
05D8  504D      	MOVF FCI_TOSTRI_0004F_arg_iSrc1+D'2', W
05DA  6E55      	MOVWF FCI_TOSTRI_0004F_1_iSrc+D'2'
05DC  504E      	MOVF FCI_TOSTRI_0004F_arg_iSrc1+D'3', W
05DE  6E56      	MOVWF FCI_TOSTRI_0004F_1_iSrc+D'3'
05E0  6A57      	CLRF FCI_TOSTRI_0004F_1_top
05E2  0ECA      	MOVLW 0xCA
05E4  6E58      	MOVWF FCI_TOSTRI_0004F_1_top+D'1'
05E6  0E9A      	MOVLW 0x9A
05E8  6E59      	MOVWF FCI_TOSTRI_0004F_1_top+D'2'
05EA  0E3B      	MOVLW 0x3B
05EC  6E5A      	MOVWF FCI_TOSTRI_0004F_1_top+D'3'
05EE  6A5B      	CLRF FCI_TOSTRI_0004F_1_idx
05F0  5251      	MOVF FCI_TOSTRI_0004F_arg_iDst_len, F
05F2  E105      	BNZ	label82
05F4  504F      	MOVF FCI_TOSTRI_0004F_arg_sDst, W
05F6  6E5C      	MOVWF CompTempVarRet1863
05F8  5050      	MOVF FCI_TOSTRI_0004F_arg_sDst+D'1', W
05FA  6E5D      	MOVWF CompTempVarRet1863+D'1'
05FC  0012      	RETURN
05FE            label82
05FE  AE56      	BTFSS FCI_TOSTRI_0004F_1_iSrc+D'3',7
0600  D014      	BRA	label83
0602  5050      	MOVF FCI_TOSTRI_0004F_arg_sDst+D'1', W
0604  6EEA      	MOVWF FSR0H
0606  504F      	MOVF FCI_TOSTRI_0004F_arg_sDst, W
0608  6EE9      	MOVWF FSR0L
060A  6A5E      	CLRF CompTempVar1865
060C  505E      	MOVF CompTempVar1865, W
060E  26E9      	ADDWF FSR0L, F
0610  0E2D      	MOVLW 0x2D
0612  6EEF      	MOVWF INDF0
0614  2A5B      	INCF FCI_TOSTRI_0004F_1_idx, F
0616  1E53      	COMF FCI_TOSTRI_0004F_1_iSrc, F
0618  1E54      	COMF FCI_TOSTRI_0004F_1_iSrc+D'1', F
061A  1E55      	COMF FCI_TOSTRI_0004F_1_iSrc+D'2', F
061C  1E56      	COMF FCI_TOSTRI_0004F_1_iSrc+D'3', F
061E  3E53      	INCFSZ FCI_TOSTRI_0004F_1_iSrc, F
0620  D004      	BRA	label83
0622  3E54      	INCFSZ FCI_TOSTRI_0004F_1_iSrc+D'1', F
0624  D002      	BRA	label83
0626  4A55      	INFSNZ FCI_TOSTRI_0004F_1_iSrc+D'2', F
0628  2A56      	INCF FCI_TOSTRI_0004F_1_iSrc+D'3', F
062A            label83
062A  6A52      	CLRF FCI_TOSTRI_0004F_1_tmp1
062C  5053      	MOVF FCI_TOSTRI_0004F_1_iSrc, W
062E  1054      	IORWF FCI_TOSTRI_0004F_1_iSrc+D'1', W
0630  1055      	IORWF FCI_TOSTRI_0004F_1_iSrc+D'2', W
0632  1056      	IORWF FCI_TOSTRI_0004F_1_iSrc+D'3', W
0634  0BFF      	ANDLW 0xFF
0636  E106      	BNZ	label84
0638  0E01      	MOVLW 0x01
063A  6E52      	MOVWF FCI_TOSTRI_0004F_1_tmp1
063C  6E57      	MOVWF FCI_TOSTRI_0004F_1_top
063E  6A58      	CLRF FCI_TOSTRI_0004F_1_top+D'1'
0640  6A59      	CLRF FCI_TOSTRI_0004F_1_top+D'2'
0642  6A5A      	CLRF FCI_TOSTRI_0004F_1_top+D'3'
0644            label84
0644  5051      	MOVF FCI_TOSTRI_0004F_arg_iDst_len, W
0646  605B      	CPFSLT FCI_TOSTRI_0004F_1_idx
0648  D072      	BRA	label89
064A  505A      	MOVF FCI_TOSTRI_0004F_1_top+D'3', W
064C  0800      	SUBLW 0x00
064E  E108      	BNZ	label85
0650  5059      	MOVF FCI_TOSTRI_0004F_1_top+D'2', W
0652  0800      	SUBLW 0x00
0654  E105      	BNZ	label85
0656  5058      	MOVF FCI_TOSTRI_0004F_1_top+D'1', W
0658  0800      	SUBLW 0x00
065A  E102      	BNZ	label85
065C  5057      	MOVF FCI_TOSTRI_0004F_1_top, W
065E  0800      	SUBLW 0x00
0660            label85
0660  E266      	BC	label89
0662  505A      	MOVF FCI_TOSTRI_0004F_1_top+D'3', W
0664  5C56      	SUBWF FCI_TOSTRI_0004F_1_iSrc+D'3', W
0666  E108      	BNZ	label86
0668  5059      	MOVF FCI_TOSTRI_0004F_1_top+D'2', W
066A  5C55      	SUBWF FCI_TOSTRI_0004F_1_iSrc+D'2', W
066C  E105      	BNZ	label86
066E  5058      	MOVF FCI_TOSTRI_0004F_1_top+D'1', W
0670  5C54      	SUBWF FCI_TOSTRI_0004F_1_iSrc+D'1', W
0672  E102      	BNZ	label86
0674  5057      	MOVF FCI_TOSTRI_0004F_1_top, W
0676  5C53      	SUBWF FCI_TOSTRI_0004F_1_iSrc, W
0678            label86
0678  E202      	BC	label87
067A  5252      	MOVF FCI_TOSTRI_0004F_1_tmp1, F
067C  E040      	BZ	label88
067E            label87
067E  5053      	MOVF FCI_TOSTRI_0004F_1_iSrc, W
0680  6E5E      	MOVWF __div_32_3_00011_arg_a
0682  5054      	MOVF FCI_TOSTRI_0004F_1_iSrc+D'1', W
0684  6E5F      	MOVWF __div_32_3_00011_arg_a+D'1'
0686  5055      	MOVF FCI_TOSTRI_0004F_1_iSrc+D'2', W
0688  6E60      	MOVWF __div_32_3_00011_arg_a+D'2'
068A  5056      	MOVF FCI_TOSTRI_0004F_1_iSrc+D'3', W
068C  6E61      	MOVWF __div_32_3_00011_arg_a+D'3'
068E  5057      	MOVF FCI_TOSTRI_0004F_1_top, W
0690  6E62      	MOVWF __div_32_3_00011_arg_b
0692  5058      	MOVF FCI_TOSTRI_0004F_1_top+D'1', W
0694  6E63      	MOVWF __div_32_3_00011_arg_b+D'1'
0696  5059      	MOVF FCI_TOSTRI_0004F_1_top+D'2', W
0698  6E64      	MOVWF __div_32_3_00011_arg_b+D'2'
069A  505A      	MOVF FCI_TOSTRI_0004F_1_top+D'3', W
069C  6E65      	MOVWF __div_32_3_00011_arg_b+D'3'
069E  EC85F000  	CALL __div_32_3_00011
06A2  506C      	MOVF CompTempVarRet172, W
06A4  6E52      	MOVWF FCI_TOSTRI_0004F_1_tmp1
06A6  5052      	MOVF FCI_TOSTRI_0004F_1_tmp1, W
06A8  0F30      	ADDLW 0x30
06AA  6E5E      	MOVWF CompTempVar1871
06AC  5050      	MOVF FCI_TOSTRI_0004F_arg_sDst+D'1', W
06AE  6EEA      	MOVWF FSR0H
06B0  504F      	MOVF FCI_TOSTRI_0004F_arg_sDst, W
06B2  245B      	ADDWF FCI_TOSTRI_0004F_1_idx, W
06B4  6EE9      	MOVWF FSR0L
06B6  505E      	MOVF CompTempVar1871, W
06B8  6EEF      	MOVWF INDF0
06BA  2A5B      	INCF FCI_TOSTRI_0004F_1_idx, F
06BC  5052      	MOVF FCI_TOSTRI_0004F_1_tmp1, W
06BE  6E5E      	MOVWF __mul_32_3_00016_arg_a
06C0  6A5F      	CLRF __mul_32_3_00016_arg_a+D'1'
06C2  6A60      	CLRF __mul_32_3_00016_arg_a+D'2'
06C4  6A61      	CLRF __mul_32_3_00016_arg_a+D'3'
06C6  5057      	MOVF FCI_TOSTRI_0004F_1_top, W
06C8  6E62      	MOVWF __mul_32_3_00016_arg_b
06CA  5058      	MOVF FCI_TOSTRI_0004F_1_top+D'1', W
06CC  6E63      	MOVWF __mul_32_3_00016_arg_b+D'1'
06CE  5059      	MOVF FCI_TOSTRI_0004F_1_top+D'2', W
06D0  6E64      	MOVWF __mul_32_3_00016_arg_b+D'2'
06D2  505A      	MOVF FCI_TOSTRI_0004F_1_top+D'3', W
06D4  6E65      	MOVWF __mul_32_3_00016_arg_b+D'3'
06D6  EC46F000  	CALL __mul_32_3_00016
06DA  506A      	MOVF CompTempVarRet414, W
06DC  6E66      	MOVWF CompTempVar1872
06DE  506B      	MOVF CompTempVarRet414+D'1', W
06E0  6E67      	MOVWF CompTempVar1873
06E2  506C      	MOVF CompTempVarRet414+D'2', W
06E4  6E68      	MOVWF CompTempVar1874
06E6  506D      	MOVF CompTempVarRet414+D'3', W
06E8  6E69      	MOVWF CompTempVar1875
06EA  5066      	MOVF CompTempVar1872, W
06EC  5E53      	SUBWF FCI_TOSTRI_0004F_1_iSrc, F
06EE  5067      	MOVF CompTempVar1873, W
06F0  5A54      	SUBWFB FCI_TOSTRI_0004F_1_iSrc+D'1', F
06F2  5068      	MOVF CompTempVar1874, W
06F4  5A55      	SUBWFB FCI_TOSTRI_0004F_1_iSrc+D'2', F
06F6  5069      	MOVF CompTempVar1875, W
06F8  5A56      	SUBWFB FCI_TOSTRI_0004F_1_iSrc+D'3', F
06FA  0E01      	MOVLW 0x01
06FC  6E52      	MOVWF FCI_TOSTRI_0004F_1_tmp1
06FE            label88
06FE  5057      	MOVF FCI_TOSTRI_0004F_1_top, W
0700  6E5E      	MOVWF __div_32_3_00011_arg_a
0702  5058      	MOVF FCI_TOSTRI_0004F_1_top+D'1', W
0704  6E5F      	MOVWF __div_32_3_00011_arg_a+D'1'
0706  5059      	MOVF FCI_TOSTRI_0004F_1_top+D'2', W
0708  6E60      	MOVWF __div_32_3_00011_arg_a+D'2'
070A  505A      	MOVF FCI_TOSTRI_0004F_1_top+D'3', W
070C  6E61      	MOVWF __div_32_3_00011_arg_a+D'3'
070E  0E0A      	MOVLW 0x0A
0710  6E62      	MOVWF __div_32_3_00011_arg_b
0712  6A63      	CLRF __div_32_3_00011_arg_b+D'1'
0714  6A64      	CLRF __div_32_3_00011_arg_b+D'2'
0716  6A65      	CLRF __div_32_3_00011_arg_b+D'3'
0718  EC85F000  	CALL __div_32_3_00011
071C  506C      	MOVF CompTempVarRet172, W
071E  6E57      	MOVWF FCI_TOSTRI_0004F_1_top
0720  506D      	MOVF CompTempVarRet172+D'1', W
0722  6E58      	MOVWF FCI_TOSTRI_0004F_1_top+D'1'
0724  506E      	MOVF CompTempVarRet172+D'2', W
0726  6E59      	MOVWF FCI_TOSTRI_0004F_1_top+D'2'
0728  506F      	MOVF CompTempVarRet172+D'3', W
072A  6E5A      	MOVWF FCI_TOSTRI_0004F_1_top+D'3'
072C  D78B      	BRA	label84
072E            label89
072E  5051      	MOVF FCI_TOSTRI_0004F_arg_iDst_len, W
0730  605B      	CPFSLT FCI_TOSTRI_0004F_1_idx
0732  D007      	BRA	label90
0734  5050      	MOVF FCI_TOSTRI_0004F_arg_sDst+D'1', W
0736  6EEA      	MOVWF FSR0H
0738  504F      	MOVF FCI_TOSTRI_0004F_arg_sDst, W
073A  245B      	ADDWF FCI_TOSTRI_0004F_1_idx, W
073C  6EE9      	MOVWF FSR0L
073E  0E00      	MOVLW 0x00
0740  6EEF      	MOVWF INDF0
0742            label90
0742  504F      	MOVF FCI_TOSTRI_0004F_arg_sDst, W
0744  6E5C      	MOVWF CompTempVarRet1863
0746  5050      	MOVF FCI_TOSTRI_0004F_arg_sDst+D'1', W
0748  6E5D      	MOVWF CompTempVarRet1863+D'1'
074A  0012      	RETURN
074C            ; } FCI_TOSTRING function end

	ORG 0x0000074C
074C            FCD_0f051__000A1
074C            ; { FCD_0f051_gLCD_EB076_4D1__ClearDisplay ; function begin
074C  6A43      	CLRF FCD_0f051__000A1_1_FCL_Y
074E  6A44      	CLRF FCD_0f051__000A1_1_FCL_Y+D'1'
0750  6A45      	CLRF FCD_0f051__000A1_1_FCL_X
0752  6A46      	CLRF FCD_0f051__000A1_1_FCL_X+D'1'
0754  0E42      	MOVLW 0x42
0756  6E47      	MOVWF FC_CAL_UAR_0006F_arg_nChar
0758  6A48      	CLRF FC_CAL_UAR_0006F_arg_nChar+D'1'
075A  ECB7F000  	CALL FC_CAL_UAR_0006F
075E  5024      	MOVF gbl_FCV_0f051_gLCD_EB076_4_0000C+D'1', W
0760  6E47      	MOVWF FC_CAL_UAR_0006F_arg_nChar
0762  6A48      	CLRF FC_CAL_UAR_0006F_arg_nChar+D'1'
0764  ECB7F000  	CALL FC_CAL_UAR_0006F
0768  5023      	MOVF gbl_FCV_0f051_gLCD_EB076_4_0000C, W
076A  6E47      	MOVWF FC_CAL_UAR_0006F_arg_nChar
076C  5024      	MOVF gbl_FCV_0f051_gLCD_EB076_4_0000C+D'1', W
076E  6E48      	MOVWF FC_CAL_UAR_0006F_arg_nChar+D'1'
0770  ECB7F000  	CALL FC_CAL_UAR_0006F
0774  6847      	SETF FC_CAL_UAR_0006E_arg_nTimeout
0776  ECBFF000  	CALL FC_CAL_UAR_0006E
077A  0E45      	MOVLW 0x45
077C  6E47      	MOVWF FC_CAL_UAR_0006F_arg_nChar
077E  6A48      	CLRF FC_CAL_UAR_0006F_arg_nChar+D'1'
0780  ECB7F000  	CALL FC_CAL_UAR_0006F
0784  6847      	SETF FC_CAL_UAR_0006E_arg_nTimeout
0786  ECBFF000  	CALL FC_CAL_UAR_0006E
078A  0012      	RETURN
078C            ; } FCD_0f051_gLCD_EB076_4D1__ClearDisplay function end

	ORG 0x0000078C
078C            FCD_04071__0005D
078C            ; { FCD_04071_LCD__PrintString ; function begin
078C  6A4F      	CLRF FCD_04071__0005D_1_FCL_IDX
078E  504B      	MOVF FCD_04071__0005D_arg_FCL_TEXT, W
0790  6E51      	MOVWF FCI_GETLEN_0004B_arg_sStr1
0792  504C      	MOVF FCD_04071__0005D_arg_FCL_TEXT+D'1', W
0794  6E52      	MOVWF FCI_GETLEN_0004B_arg_sStr1+D'1'
0796  504D      	MOVF FCD_04071__0005D_arg_FCLsz_TEXT, W
0798  6E53      	MOVWF FCI_GETLEN_0004B_arg_iStr1_len
079A  EC11F001  	CALL FCI_GETLEN_0004B
079E  5055      	MOVF CompTempVarRet1850, W
07A0  6E50      	MOVWF FCD_04071__0005D_1_FCL_COUNT
07A2            label91
07A2  5050      	MOVF FCD_04071__0005D_1_FCL_COUNT, W
07A4  604F      	CPFSLT FCD_04071__0005D_1_FCL_IDX
07A6  0012      	RETURN
07A8  504C      	MOVF FCD_04071__0005D_arg_FCL_TEXT+D'1', W
07AA  6EEA      	MOVWF FSR0H
07AC  504B      	MOVF FCD_04071__0005D_arg_FCL_TEXT, W
07AE  244F      	ADDWF FCD_04071__0005D_1_FCL_IDX, W
07B0  6EE9      	MOVWF FSR0L
07B2  50EF      	MOVF INDF0, W
07B4  6E51      	MOVWF FCD_04071__0005C_arg_FCL_DATA
07B6  8052      	BSF FCD_04071__0005C_arg_FCL_TYPE,0
07B8  EC21F001  	CALL FCD_04071__0005C
07BC  284F      	INCF FCD_04071__0005D_1_FCL_IDX, W
07BE  6E4F      	MOVWF FCD_04071__0005D_1_FCL_IDX
07C0  D7F0      	BRA	label91
07C2            ; } FCD_04071_LCD__PrintString function end

	ORG 0x000007C2
07C2            FCD_0f051__000AC
07C2            ; { FCD_0f051_gLCD_EB076_4D1__Initialise ; function begin
07C2  6A43      	CLRF FCD_0f051__000AC_2_ptmp
07C4  9A94      	BCF gbl_trisc,5
07C6  5243      	MOVF FCD_0f051__000AC_2_ptmp, F
07C8  E004      	BZ	label92
07CA  0E20      	MOVLW 0x20
07CC  108B      	IORWF gbl_latc, W
07CE  6E82      	MOVWF gbl_portc
07D0  D003      	BRA	label93
07D2            label92
07D2  0EDF      	MOVLW 0xDF
07D4  148B      	ANDWF gbl_latc, W
07D6  6E82      	MOVWF gbl_portc
07D8            label93
07D8  EC7FF002  	CALL FC_CAL_UAR_00070
07DC  0E64      	MOVLW 0x64
07DE  6E54      	MOVWF delay_us_00000_arg_del
07E0  EC06F000  	CALL delay_us_00000
07E4  0E0F      	MOVLW HIGH(gbl_portc+D'0')
07E6  6E44      	MOVWF FC_CAL_Por_00042_arg_Port+D'1'
07E8  0E82      	MOVLW LOW(gbl_portc+D'0')
07EA  6E43      	MOVWF FC_CAL_Por_00042_arg_Port
07EC  0E0F      	MOVLW HIGH(gbl_trisc+D'0')
07EE  6E46      	MOVWF FC_CAL_Por_00042_arg_Tris+D'1'
07F0  0E94      	MOVLW LOW(gbl_trisc+D'0')
07F2  6E45      	MOVWF FC_CAL_Por_00042_arg_Tris
07F4  0E20      	MOVLW 0x20
07F6  6E47      	MOVWF FC_CAL_Por_00042_arg_InMask
07F8  0E05      	MOVLW 0x05
07FA  6E48      	MOVWF FC_CAL_Por_00042_arg_Shift
07FC  ECD0F002  	CALL FC_CAL_Por_00042
0800  5049      	MOVF CompTempVarRet1822, W
0802  6E42      	MOVWF FCD_0f051__000AC_1_FCL_DUMMY
0804  0E03      	MOVLW 0x03
0806  6E43      	MOVWF delay_s_00000_arg_del
0808  EC33F000  	CALL delay_s_00000
080C  6A47      	CLRF FC_CAL_UAR_0006E_arg_nTimeout
080E  ECBFF000  	CALL FC_CAL_UAR_0006E
0812  6A47      	CLRF FC_CAL_UAR_0006E_arg_nTimeout
0814  ECBFF000  	CALL FC_CAL_UAR_0006E
0818  6A47      	CLRF FC_CAL_UAR_0006E_arg_nTimeout
081A  ECBFF000  	CALL FC_CAL_UAR_0006E
081E  0E55      	MOVLW 0x55
0820  6E47      	MOVWF FC_CAL_UAR_0006F_arg_nChar
0822  6A48      	CLRF FC_CAL_UAR_0006F_arg_nChar+D'1'
0824  ECB7F000  	CALL FC_CAL_UAR_0006F
0828  6847      	SETF FC_CAL_UAR_0006E_arg_nTimeout
082A  ECBFF000  	CALL FC_CAL_UAR_0006E
082E  0E51      	MOVLW 0x51
0830  6E47      	MOVWF FC_CAL_UAR_0006F_arg_nChar
0832  6A48      	CLRF FC_CAL_UAR_0006F_arg_nChar+D'1'
0834  ECB7F000  	CALL FC_CAL_UAR_0006F
0838  0E0C      	MOVLW 0x0C
083A  6E47      	MOVWF FC_CAL_UAR_0006F_arg_nChar
083C  6A48      	CLRF FC_CAL_UAR_0006F_arg_nChar+D'1'
083E  ECB7F000  	CALL FC_CAL_UAR_0006F
0842  6847      	SETF FC_CAL_UAR_0006E_arg_nTimeout
0844  ECBFF000  	CALL FC_CAL_UAR_0006E
0848  0E06      	MOVLW 0x06
084A  6E43      	MOVWF FC_CAL_UAR_0006C_arg_new_baud
084C  EC88F002  	CALL FC_CAL_UAR_0006C
0850  0E0A      	MOVLW 0x0A
0852  6E47      	MOVWF FC_CAL_UAR_0006E_arg_nTimeout
0854  ECBFF000  	CALL FC_CAL_UAR_0006E
0858  0E0A      	MOVLW 0x0A
085A  6E47      	MOVWF FC_CAL_UAR_0006E_arg_nTimeout
085C  ECBFF000  	CALL FC_CAL_UAR_0006E
0860  6A3F      	CLRF FCD_0f051__000AC_1_FCL_RED
0862  323F      	RRCF FCD_0f051__000AC_1_FCL_RED, F
0864  323F      	RRCF FCD_0f051__000AC_1_FCL_RED, F
0866  323F      	RRCF FCD_0f051__000AC_1_FCL_RED, F
0868  0E1F      	MOVLW 0x1F
086A  163F      	ANDWF FCD_0f051__000AC_1_FCL_RED, F
086C  6A40      	CLRF FCD_0f051__000AC_1_FCL_GREEN
086E  3240      	RRCF FCD_0f051__000AC_1_FCL_GREEN, F
0870  3240      	RRCF FCD_0f051__000AC_1_FCL_GREEN, F
0872  0E3F      	MOVLW 0x3F
0874  1640      	ANDWF FCD_0f051__000AC_1_FCL_GREEN, F
0876  6A41      	CLRF FCD_0f051__000AC_1_FCL_BLUE
0878  3241      	RRCF FCD_0f051__000AC_1_FCL_BLUE, F
087A  3241      	RRCF FCD_0f051__000AC_1_FCL_BLUE, F
087C  3241      	RRCF FCD_0f051__000AC_1_FCL_BLUE, F
087E  0E1F      	MOVLW 0x1F
0880  1641      	ANDWF FCD_0f051__000AC_1_FCL_BLUE, F
0882  5040      	MOVF FCD_0f051__000AC_1_FCL_GREEN, W
0884  6E43      	MOVWF CompTempVar2991
0886  6A26      	CLRF gbl_FCV_0f051_gLCD_EB076_4_0000D+D'1'
0888  3643      	RLCF CompTempVar2991, F
088A  3626      	RLCF gbl_FCV_0f051_gLCD_EB076_4_0000D+D'1', F
088C  3643      	RLCF CompTempVar2991, F
088E  3626      	RLCF gbl_FCV_0f051_gLCD_EB076_4_0000D+D'1', F
0890  3643      	RLCF CompTempVar2991, F
0892  3626      	RLCF gbl_FCV_0f051_gLCD_EB076_4_0000D+D'1', F
0894  3643      	RLCF CompTempVar2991, F
0896  3626      	RLCF gbl_FCV_0f051_gLCD_EB076_4_0000D+D'1', F
0898  3643      	RLCF CompTempVar2991, F
089A  3626      	RLCF gbl_FCV_0f051_gLCD_EB076_4_0000D+D'1', F
089C  0EE0      	MOVLW 0xE0
089E  1643      	ANDWF CompTempVar2991, F
08A0  5043      	MOVF CompTempVar2991, W
08A2  1041      	IORWF FCD_0f051__000AC_1_FCL_BLUE, W
08A4  6E25      	MOVWF gbl_FCV_0f051_gLCD_EB076_4_0000D
08A6  6A43      	CLRF CompTempVar2995
08A8  503F      	MOVF FCD_0f051__000AC_1_FCL_RED, W
08AA  6E44      	MOVWF CompTempVar2996
08AC  90D8      	BCF STATUS,C
08AE  3644      	RLCF CompTempVar2996, F
08B0  90D8      	BCF STATUS,C
08B2  3644      	RLCF CompTempVar2996, F
08B4  90D8      	BCF STATUS,C
08B6  3644      	RLCF CompTempVar2996, F
08B8  5043      	MOVF CompTempVar2995, W
08BA  1225      	IORWF gbl_FCV_0f051_gLCD_EB076_4_0000D, F
08BC  5044      	MOVF CompTempVar2996, W
08BE  1226      	IORWF gbl_FCV_0f051_gLCD_EB076_4_0000D+D'1', F
08C0  683F      	SETF FCD_0f051__000AC_1_FCL_RED
08C2  323F      	RRCF FCD_0f051__000AC_1_FCL_RED, F
08C4  323F      	RRCF FCD_0f051__000AC_1_FCL_RED, F
08C6  323F      	RRCF FCD_0f051__000AC_1_FCL_RED, F
08C8  0E1F      	MOVLW 0x1F
08CA  163F      	ANDWF FCD_0f051__000AC_1_FCL_RED, F
08CC  6840      	SETF FCD_0f051__000AC_1_FCL_GREEN
08CE  3240      	RRCF FCD_0f051__000AC_1_FCL_GREEN, F
08D0  3240      	RRCF FCD_0f051__000AC_1_FCL_GREEN, F
08D2  0E3F      	MOVLW 0x3F
08D4  1640      	ANDWF FCD_0f051__000AC_1_FCL_GREEN, F
08D6  6841      	SETF FCD_0f051__000AC_1_FCL_BLUE
08D8  3241      	RRCF FCD_0f051__000AC_1_FCL_BLUE, F
08DA  3241      	RRCF FCD_0f051__000AC_1_FCL_BLUE, F
08DC  3241      	RRCF FCD_0f051__000AC_1_FCL_BLUE, F
08DE  0E1F      	MOVLW 0x1F
08E0  1641      	ANDWF FCD_0f051__000AC_1_FCL_BLUE, F
08E2  5040      	MOVF FCD_0f051__000AC_1_FCL_GREEN, W
08E4  6E43      	MOVWF CompTempVar3002
08E6  6A24      	CLRF gbl_FCV_0f051_gLCD_EB076_4_0000C+D'1'
08E8  3643      	RLCF CompTempVar3002, F
08EA  3624      	RLCF gbl_FCV_0f051_gLCD_EB076_4_0000C+D'1', F
08EC  3643      	RLCF CompTempVar3002, F
08EE  3624      	RLCF gbl_FCV_0f051_gLCD_EB076_4_0000C+D'1', F
08F0  3643      	RLCF CompTempVar3002, F
08F2  3624      	RLCF gbl_FCV_0f051_gLCD_EB076_4_0000C+D'1', F
08F4  3643      	RLCF CompTempVar3002, F
08F6  3624      	RLCF gbl_FCV_0f051_gLCD_EB076_4_0000C+D'1', F
08F8  3643      	RLCF CompTempVar3002, F
08FA  3624      	RLCF gbl_FCV_0f051_gLCD_EB076_4_0000C+D'1', F
08FC  0EE0      	MOVLW 0xE0
08FE  1643      	ANDWF CompTempVar3002, F
0900  5043      	MOVF CompTempVar3002, W
0902  1041      	IORWF FCD_0f051__000AC_1_FCL_BLUE, W
0904  6E23      	MOVWF gbl_FCV_0f051_gLCD_EB076_4_0000C
0906  6A43      	CLRF CompTempVar3006
0908  503F      	MOVF FCD_0f051__000AC_1_FCL_RED, W
090A  6E44      	MOVWF CompTempVar3007
090C  90D8      	BCF STATUS,C
090E  3644      	RLCF CompTempVar3007, F
0910  90D8      	BCF STATUS,C
0912  3644      	RLCF CompTempVar3007, F
0914  90D8      	BCF STATUS,C
0916  3644      	RLCF CompTempVar3007, F
0918  5043      	MOVF CompTempVar3006, W
091A  1223      	IORWF gbl_FCV_0f051_gLCD_EB076_4_0000C, F
091C  5044      	MOVF CompTempVar3007, W
091E  1224      	IORWF gbl_FCV_0f051_gLCD_EB076_4_0000C+D'1', F
0920  ECA6F003  	CALL FCD_0f051__000A1
0924  0E0A      	MOVLW 0x0A
0926  6E47      	MOVWF FC_CAL_UAR_0006E_arg_nTimeout
0928  ECBFF000  	CALL FC_CAL_UAR_0006E
092C  0E0A      	MOVLW 0x0A
092E  6E47      	MOVWF FC_CAL_UAR_0006E_arg_nTimeout
0930  ECBFF000  	CALL FC_CAL_UAR_0006E
0934  0012      	RETURN
0936            ; } FCD_0f051_gLCD_EB076_4D1__Initialise function end

	ORG 0x00000936
0936            FCD_0f051__00097
0936            ; { FCD_0f051_gLCD_EB076_4D1__G4D_EnableTouchscreenPicaso ; function begin
0936  0E59      	MOVLW 0x59
0938  6E47      	MOVWF FC_CAL_UAR_0006F_arg_nChar
093A  6A48      	CLRF FC_CAL_UAR_0006F_arg_nChar+D'1'
093C  ECB7F000  	CALL FC_CAL_UAR_0006F
0940  0E05      	MOVLW 0x05
0942  6E47      	MOVWF FC_CAL_UAR_0006F_arg_nChar
0944  6A48      	CLRF FC_CAL_UAR_0006F_arg_nChar+D'1'
0946  ECB7F000  	CALL FC_CAL_UAR_0006F
094A  6A47      	CLRF FC_CAL_UAR_0006F_arg_nChar
094C  6A48      	CLRF FC_CAL_UAR_0006F_arg_nChar+D'1'
094E  ECB7F000  	CALL FC_CAL_UAR_0006F
0952  6847      	SETF FC_CAL_UAR_0006E_arg_nTimeout
0954  ECBFF000  	CALL FC_CAL_UAR_0006E
0958  5050      	MOVF CompTempVarRet2662, W
095A  6E3F      	MOVWF FCD_0f051__00097_1_FCR_RETVAL
095C  0E59      	MOVLW 0x59
095E  6E47      	MOVWF FC_CAL_UAR_0006F_arg_nChar
0960  6A48      	CLRF FC_CAL_UAR_0006F_arg_nChar+D'1'
0962  ECB7F000  	CALL FC_CAL_UAR_0006F
0966  0E05      	MOVLW 0x05
0968  6E47      	MOVWF FC_CAL_UAR_0006F_arg_nChar
096A  6A48      	CLRF FC_CAL_UAR_0006F_arg_nChar+D'1'
096C  ECB7F000  	CALL FC_CAL_UAR_0006F
0970  0E02      	MOVLW 0x02
0972  6E47      	MOVWF FC_CAL_UAR_0006F_arg_nChar
0974  6A48      	CLRF FC_CAL_UAR_0006F_arg_nChar+D'1'
0976  ECB7F000  	CALL FC_CAL_UAR_0006F
097A  6847      	SETF FC_CAL_UAR_0006E_arg_nTimeout
097C  ECBFF000  	CALL FC_CAL_UAR_0006E
0980  5050      	MOVF CompTempVarRet2662, W
0982  6E3F      	MOVWF FCD_0f051__00097_1_FCR_RETVAL
0984  0E06      	MOVLW 0x06
0986  623F      	CPFSEQ FCD_0f051__00097_1_FCR_RETVAL
0988  D002      	BRA	label94
098A  6A3F      	CLRF FCD_0f051__00097_1_FCR_RETVAL
098C  D001      	BRA	label95
098E            label94
098E  683F      	SETF FCD_0f051__00097_1_FCR_RETVAL
0990            label95
0990  503F      	MOVF FCD_0f051__00097_1_FCR_RETVAL, W
0992  6E40      	MOVWF CompTempVarRet2878
0994  0012      	RETURN
0996            ; } FCD_0f051_gLCD_EB076_4D1__G4D_EnableTouchscreenPicaso function end

	ORG 0x00000996
0996            FCD_0f051__00089
0996            ; { FCD_0f051_gLCD_EB076_4D1__G4D_GetTouchCoordinatesPicaso ; function begin
0996  0E6F      	MOVLW 0x6F
0998  6E47      	MOVWF FC_CAL_UAR_0006F_arg_nChar
099A  6A48      	CLRF FC_CAL_UAR_0006F_arg_nChar+D'1'
099C  ECB7F000  	CALL FC_CAL_UAR_0006F
09A0  0E04      	MOVLW 0x04
09A2  6E47      	MOVWF FC_CAL_UAR_0006F_arg_nChar
09A4  6A48      	CLRF FC_CAL_UAR_0006F_arg_nChar+D'1'
09A6  ECB7F000  	CALL FC_CAL_UAR_0006F
09AA  6847      	SETF FC_CAL_UAR_0006E_arg_nTimeout
09AC  ECBFF000  	CALL FC_CAL_UAR_0006E
09B0  6847      	SETF FC_CAL_UAR_0006E_arg_nTimeout
09B2  ECBFF000  	CALL FC_CAL_UAR_0006E
09B6  5050      	MOVF CompTempVarRet2662, W
09B8  6E40      	MOVWF FCD_0f051__00089_1_FCR_RETVAL
09BA  6847      	SETF FC_CAL_UAR_0006E_arg_nTimeout
09BC  ECBFF000  	CALL FC_CAL_UAR_0006E
09C0  6847      	SETF FC_CAL_UAR_0006E_arg_nTimeout
09C2  ECBFF000  	CALL FC_CAL_UAR_0006E
09C6  5240      	MOVF FCD_0f051__00089_1_FCR_RETVAL, F
09C8  E032      	BZ	label96
09CA  0E6F      	MOVLW 0x6F
09CC  6E47      	MOVWF FC_CAL_UAR_0006F_arg_nChar
09CE  6A48      	CLRF FC_CAL_UAR_0006F_arg_nChar+D'1'
09D0  ECB7F000  	CALL FC_CAL_UAR_0006F
09D4  0E05      	MOVLW 0x05
09D6  6E47      	MOVWF FC_CAL_UAR_0006F_arg_nChar
09D8  6A48      	CLRF FC_CAL_UAR_0006F_arg_nChar+D'1'
09DA  ECB7F000  	CALL FC_CAL_UAR_0006F
09DE  6847      	SETF FC_CAL_UAR_0006E_arg_nTimeout
09E0  ECBFF000  	CALL FC_CAL_UAR_0006E
09E4  5050      	MOVF CompTempVarRet2662, W
09E6  6E29      	MOVWF gbl_FCV_0f051_gLCD_EB076_4_0000F
09E8  5051      	MOVF CompTempVarRet2662+D'1', W
09EA  6E2A      	MOVWF gbl_FCV_0f051_gLCD_EB076_4_0000F+D'1'
09EC  6847      	SETF FC_CAL_UAR_0006E_arg_nTimeout
09EE  ECBFF000  	CALL FC_CAL_UAR_0006E
09F2  5050      	MOVF CompTempVarRet2662, W
09F4  6E3F      	MOVWF FCD_0f051__00089_1_FCL_TEMP
09F6  6A41      	CLRF CompTempVar2815
09F8  5029      	MOVF gbl_FCV_0f051_gLCD_EB076_4_0000F, W
09FA  6E2A      	MOVWF gbl_FCV_0f051_gLCD_EB076_4_0000F+D'1'
09FC  5041      	MOVF CompTempVar2815, W
09FE  6E29      	MOVWF gbl_FCV_0f051_gLCD_EB076_4_0000F
0A00  503F      	MOVF FCD_0f051__00089_1_FCL_TEMP, W
0A02  1229      	IORWF gbl_FCV_0f051_gLCD_EB076_4_0000F, F
0A04  522A      	MOVF gbl_FCV_0f051_gLCD_EB076_4_0000F+D'1', F
0A06  6847      	SETF FC_CAL_UAR_0006E_arg_nTimeout
0A08  ECBFF000  	CALL FC_CAL_UAR_0006E
0A0C  5050      	MOVF CompTempVarRet2662, W
0A0E  6E27      	MOVWF gbl_FCV_0f051_gLCD_EB076_4_0000E
0A10  5051      	MOVF CompTempVarRet2662+D'1', W
0A12  6E28      	MOVWF gbl_FCV_0f051_gLCD_EB076_4_0000E+D'1'
0A14  6847      	SETF FC_CAL_UAR_0006E_arg_nTimeout
0A16  ECBFF000  	CALL FC_CAL_UAR_0006E
0A1A  5050      	MOVF CompTempVarRet2662, W
0A1C  6E3F      	MOVWF FCD_0f051__00089_1_FCL_TEMP
0A1E  6A41      	CLRF CompTempVar2819
0A20  5027      	MOVF gbl_FCV_0f051_gLCD_EB076_4_0000E, W
0A22  6E28      	MOVWF gbl_FCV_0f051_gLCD_EB076_4_0000E+D'1'
0A24  5041      	MOVF CompTempVar2819, W
0A26  6E27      	MOVWF gbl_FCV_0f051_gLCD_EB076_4_0000E
0A28  503F      	MOVF FCD_0f051__00089_1_FCL_TEMP, W
0A2A  1227      	IORWF gbl_FCV_0f051_gLCD_EB076_4_0000E, F
0A2C  5228      	MOVF gbl_FCV_0f051_gLCD_EB076_4_0000E+D'1', F
0A2E            label96
0A2E  5040      	MOVF FCD_0f051__00089_1_FCR_RETVAL, W
0A30  6E41      	MOVWF CompTempVarRet2814
0A32  0012      	RETURN
0A34            ; } FCD_0f051_gLCD_EB076_4D1__G4D_GetTouchCoordinatesPicaso function end

	ORG 0x00000A34
0A34            FCD_0f051__00088
0A34            ; { FCD_0f051_gLCD_EB076_4D1__G4D_ReadTouchCoordinatesPicaso ; function begin
0A34  6A40      	CLRF FCD_0f051__00088_1_FCR_RETVAL
0A36  6A41      	CLRF FCD_0f051__00088_1_FCR_RETVAL+D'1'
0A38  523F      	MOVF FCD_0f051__00088_arg_FCL_AXIS, F
0A3A  E007      	BZ	label98
0A3C  0E78      	MOVLW 0x78
0A3E  623F      	CPFSEQ FCD_0f051__00088_arg_FCL_AXIS
0A40  D001      	BRA	label97
0A42  D003      	BRA	label98
0A44            label97
0A44  0E58      	MOVLW 0x58
0A46  623F      	CPFSEQ FCD_0f051__00088_arg_FCL_AXIS
0A48  D004      	BRA	label99
0A4A            label98
0A4A  5029      	MOVF gbl_FCV_0f051_gLCD_EB076_4_0000F, W
0A4C  6E40      	MOVWF FCD_0f051__00088_1_FCR_RETVAL
0A4E  502A      	MOVF gbl_FCV_0f051_gLCD_EB076_4_0000F+D'1', W
0A50  6E41      	MOVWF FCD_0f051__00088_1_FCR_RETVAL+D'1'
0A52            label99
0A52  043F      	DECF FCD_0f051__00088_arg_FCL_AXIS, W
0A54  E007      	BZ	label101
0A56  0E79      	MOVLW 0x79
0A58  623F      	CPFSEQ FCD_0f051__00088_arg_FCL_AXIS
0A5A  D001      	BRA	label100
0A5C  D003      	BRA	label101
0A5E            label100
0A5E  0E59      	MOVLW 0x59
0A60  623F      	CPFSEQ FCD_0f051__00088_arg_FCL_AXIS
0A62  D004      	BRA	label102
0A64            label101
0A64  5027      	MOVF gbl_FCV_0f051_gLCD_EB076_4_0000E, W
0A66  6E40      	MOVWF FCD_0f051__00088_1_FCR_RETVAL
0A68  5028      	MOVF gbl_FCV_0f051_gLCD_EB076_4_0000E+D'1', W
0A6A  6E41      	MOVWF FCD_0f051__00088_1_FCR_RETVAL+D'1'
0A6C            label102
0A6C  5040      	MOVF FCD_0f051__00088_1_FCR_RETVAL, W
0A6E  6E42      	MOVWF CompTempVarRet2813
0A70  5041      	MOVF FCD_0f051__00088_1_FCR_RETVAL+D'1', W
0A72  6E43      	MOVWF CompTempVarRet2813+D'1'
0A74  0012      	RETURN
0A76            ; } FCD_0f051_gLCD_EB076_4D1__G4D_ReadTouchCoordinatesPicaso function end

	ORG 0x00000A76
0A76            FCD_04071__00060
0A76            ; { FCD_04071_LCD__PrintNumber ; function begin
0A76  503F      	MOVF FCD_04071__00060_arg_FCL_NUMBER, W
0A78  6E4B      	MOVWF FCI_TOSTRI_0004F_arg_iSrc1
0A7A  5040      	MOVF FCD_04071__00060_arg_FCL_NUMBER+D'1', W
0A7C  6E4C      	MOVWF FCI_TOSTRI_0004F_arg_iSrc1+D'1'
0A7E  6A4D      	CLRF FCI_TOSTRI_0004F_arg_iSrc1+D'2'
0A80  6A4E      	CLRF FCI_TOSTRI_0004F_arg_iSrc1+D'3'
0A82  AE40      	BTFSS FCD_04071__00060_arg_FCL_NUMBER+D'1',7
0A84  D002      	BRA	label103
0A86  064D      	DECF FCI_TOSTRI_0004F_arg_iSrc1+D'2', F
0A88  064E      	DECF FCI_TOSTRI_0004F_arg_iSrc1+D'3', F
0A8A            label103
0A8A  0E00      	MOVLW HIGH(FCD_04071__00060_1_FCL_S+D'0')
0A8C  6E50      	MOVWF FCI_TOSTRI_0004F_arg_sDst+D'1'
0A8E  0E41      	MOVLW LOW(FCD_04071__00060_1_FCL_S+D'0')
0A90  6E4F      	MOVWF FCI_TOSTRI_0004F_arg_sDst
0A92  0E0A      	MOVLW 0x0A
0A94  6E51      	MOVWF FCI_TOSTRI_0004F_arg_iDst_len
0A96  ECE8F002  	CALL FCI_TOSTRI_0004F
0A9A  0E00      	MOVLW HIGH(FCD_04071__00060_1_FCL_S+D'0')
0A9C  6E4C      	MOVWF FCD_04071__0005D_arg_FCL_TEXT+D'1'
0A9E  0E41      	MOVLW LOW(FCD_04071__00060_1_FCL_S+D'0')
0AA0  6E4B      	MOVWF FCD_04071__0005D_arg_FCL_TEXT
0AA2  0E0A      	MOVLW 0x0A
0AA4  6E4D      	MOVWF FCD_04071__0005D_arg_FCLsz_TEXT
0AA6  6A4E      	CLRF FCD_04071__0005D_arg_FCLsz_TEXT+D'1'
0AA8  ECC6F003  	CALL FCD_04071__0005D
0AAC  0012      	RETURN
0AAE            ; } FCD_04071_LCD__PrintNumber function end

	ORG 0x00000AAE
0AAE            FCD_04071__0005B
0AAE            ; { FCD_04071_LCD__Clear ; function begin
0AAE  0E01      	MOVLW 0x01
0AB0  6E51      	MOVWF FCD_04071__0005C_arg_FCL_DATA
0AB2  9052      	BCF FCD_04071__0005C_arg_FCL_TYPE,0
0AB4  EC21F001  	CALL FCD_04071__0005C
0AB8  0E02      	MOVLW 0x02
0ABA  6E44      	MOVWF delay_ms_00000_arg_del
0ABC  EC0BF000  	CALL delay_ms_00000
0AC0  0E02      	MOVLW 0x02
0AC2  6E51      	MOVWF FCD_04071__0005C_arg_FCL_DATA
0AC4  9052      	BCF FCD_04071__0005C_arg_FCL_TYPE,0
0AC6  EC21F001  	CALL FCD_04071__0005C
0ACA  0E02      	MOVLW 0x02
0ACC  6E44      	MOVWF delay_ms_00000_arg_del
0ACE  EC0BF000  	CALL delay_ms_00000
0AD2  0012      	RETURN
0AD4            ; } FCD_04071_LCD__Clear function end

	ORG 0x00000AD4
0AD4            main
0AD4            ; { main ; function begin
0AD4  0E0F      	MOVLW 0x0F
0AD6  6EC1      	MOVWF gbl_adcon1
0AD8  ECE1F003  	CALL FCD_0f051__000AC
0ADC  EC9BF004  	CALL FCD_0f051__00097
0AE0            label104
0AE0  ECCBF004  	CALL FCD_0f051__00089
0AE4  5041      	MOVF CompTempVarRet2814, W
0AE6  6E21      	MOVWF gbl_FCV_X
0AE8  6A22      	CLRF gbl_FCV_X+D'1'
0AEA  0E01      	MOVLW 0x01
0AEC  6E3F      	MOVWF FCD_0f051__00088_arg_FCL_AXIS
0AEE  EC1AF005  	CALL FCD_0f051__00088
0AF2  5042      	MOVF CompTempVarRet2813, W
0AF4  6E1F      	MOVWF gbl_FCV_Y
0AF6  5043      	MOVF CompTempVarRet2813+D'1', W
0AF8  6E20      	MOVWF gbl_FCV_Y+D'1'
0AFA  EC57F005  	CALL FCD_04071__0005B
0AFE  501F      	MOVF gbl_FCV_Y, W
0B00  6E3F      	MOVWF FCD_04071__00060_arg_FCL_NUMBER
0B02  5020      	MOVF gbl_FCV_Y+D'1', W
0B04  6E40      	MOVWF FCD_04071__00060_arg_FCL_NUMBER+D'1'
0B06  EC3BF005  	CALL FCD_04071__00060
0B0A  6A1F      	CLRF gbl_FCV_Y
0B0C  6A20      	CLRF gbl_FCV_Y+D'1'
0B0E  6A21      	CLRF gbl_FCV_X
0B10  6A22      	CLRF gbl_FCV_X+D'1'
0B12  D7E6      	BRA	label104
0B14            ; } main function end

	ORG 0x00000B14
0B14            _startup
0B14  0ED5      	MOVLW 0xD5
0B16  6E05      	MOVWF gbl_14_LSR
0B18  0EC4      	MOVLW 0xC4
0B1A  6E06      	MOVWF gbl_14_LSR+D'1'
0B1C  0EBB      	MOVLW 0xBB
0B1E  6E07      	MOVWF gbl_14_LSR+D'2'
0B20  0EDC      	MOVLW 0xDC
0B22  6E08      	MOVWF gbl_14_LSR+D'3'
0B24  6A09      	CLRF gbl_15_gbl_aSig
0B26  6A0A      	CLRF gbl_15_gbl_aSig+D'1'
0B28  6A0B      	CLRF gbl_15_gbl_aSig+D'2'
0B2A  6A0C      	CLRF gbl_15_gbl_aSig+D'3'
0B2C  6A0D      	CLRF gbl_15_gbl_bSig
0B2E  6A0E      	CLRF gbl_15_gbl_bSig+D'1'
0B30  6A0F      	CLRF gbl_15_gbl_bSig+D'2'
0B32  6A10      	CLRF gbl_15_gbl_bSig+D'3'
0B34  6A11      	CLRF gbl_15_gbl_zSig
0B36  6A12      	CLRF gbl_15_gbl_zSig+D'1'
0B38  6A13      	CLRF gbl_15_gbl_zSig+D'2'
0B3A  6A14      	CLRF gbl_15_gbl_zSig+D'3'
0B3C  6A2E      	CLRF gbl_15_gbl_aExp
0B3E  6A2F      	CLRF gbl_15_gbl_bExp
0B40  6A1D      	CLRF gbl_15_gbl_zExp
0B42  6A1E      	CLRF gbl_15_gbl_zExp+D'1'
0B44  6A30      	CLRF gbl_15_gbl_aSign
0B46  6A31      	CLRF gbl_15_gbl_bSign
0B48  6A32      	CLRF gbl_15_gbl_zSign
0B4A  6A33      	CLRF gbl_15_gbl_zSigZero
0B4C  6A15      	CLRF gbl_15_gbl_ret
0B4E  6A16      	CLRF gbl_15_gbl_ret+D'1'
0B50  6A17      	CLRF gbl_15_gbl_ret+D'2'
0B52  6A18      	CLRF gbl_15_gbl_ret+D'3'
0B54  6A2C      	CLRF gbl_float_rounding_mode
0B56  6A2D      	CLRF gbl_float_exception_flags
0B58  6A2B      	CLRF gbl_float_detect_tininess
0B5A  6A34      	CLRF gbl_FCV_Y_HOLD
0B5C  6A1F      	CLRF gbl_FCV_Y
0B5E  6A20      	CLRF gbl_FCV_Y+D'1'
0B60  6A21      	CLRF gbl_FCV_X
0B62  6A22      	CLRF gbl_FCV_X+D'1'
0B64  0E01      	MOVLW 0x01
0B66  6E35      	MOVWF gbl_FCV_Y_OLD
0B68  0E00      	MOVLW 0x00
0B6A  6E36      	MOVWF gbl_FCD_00fb8_ASCII6__INTL_00000
0B6C  0E01      	MOVLW 0x01
0B6E  6E37      	MOVWF gbl_FCD_00fb7_ASCII7__INTL_00001
0B70  0E02      	MOVLW 0x02
0B72  6E38      	MOVWF gbl_FCD_00fb6_ASCII5__INTL_00002
0B74  0E03      	MOVLW 0x03
0B76  6E39      	MOVWF gbl_FCD_00fb5_ASCII4__INTL_00003
0B78  0E04      	MOVLW 0x04
0B7A  6E3A      	MOVWF gbl_FCD_00fb4_ASCII3__INTL_00004
0B7C  0E05      	MOVLW 0x05
0B7E  6E3B      	MOVWF gbl_FCD_00fb3_ASCII2__INTL_00005
0B80  0E06      	MOVLW 0x06
0B82  6E3C      	MOVWF gbl_FCD_00fb2_ASCII1__INTL_00006
0B84  0E07      	MOVLW 0x07
0B86  6E3D      	MOVWF gbl_FCD_00fb1_ASCII0__INTL_00007
0B88  6A19      	CLRF gbl_FCV_0ba71_Base_GLCD__P_00009
0B8A  6A1A      	CLRF gbl_FCV_0ba71_Base_GLCD__P_00009+D'1'
0B8C  6A1B      	CLRF gbl_FCV_0ba71_Base_GLCD__P_00009+D'2'
0B8E  6A1C      	CLRF gbl_FCV_0ba71_Base_GLCD__P_00009+D'3'
0B90  6A3E      	CLRF gbl_FCV_0ba71_Base_GLCD__O_0000B
0B92  EF6AF005  	GOTO	main
	ORG 0x00000B96
0B96            interrupt
0B96            ; { interrupt ; function begin
0B96  CFEAF001  	MOVFF FSR0H,  Int1Context
0B9A  CFE9F002  	MOVFF FSR0L,  Int1Context+D'1'
0B9E  CFF4F003  	MOVFF PRODH,  Int1Context+D'2'
0BA2  CFF3F004  	MOVFF PRODL,  Int1Context+D'3'
0BA6  C004FFF3  	MOVFF Int1Context+D'3',  PRODL
0BAA  C003FFF4  	MOVFF Int1Context+D'2',  PRODH
0BAE  C002FFE9  	MOVFF Int1Context+D'1',  FSR0L
0BB2  C001FFEA  	MOVFF Int1Context,  FSR0H
0BB6  0011      	RETFIE 1
0BB8            ; } interrupt function end

	ORG 0x00300000
300000  32FF      	DW 0x32FF
300002  FEF9      	DW 0xFEF9
300004  79FF      	DW 0x79FF
300006  FFBA      	DW 0xFFBA
300008  FFFF      	DW 0xFFFF
30000A  FFFF      	DW 0xFFFF
30000C  FFFF      	DW 0xFFFF
