;/////////////////////////////////////////////////////////////////////////////////
;// Code Generator: BoostC Compiler - http://www.sourceboost.com
;// Version       : 7.20
;// License Type  : Pro License
;// Limitations   : PIC18 max code size:Unlimited, max RAM banks:Unlimited
;/////////////////////////////////////////////////////////////////////////////////

	ORG 0x00000000
0000  EF03F005  	GOTO	_startup
	ORG 0x00000008
0008  EF43F005  	GOTO	interrupt
	ORG 0x0000000C
000C            delay_ms_00000
000C            ; { delay_ms ; function begin
000C  5244      	MOVF delay_ms_00000_arg_del, F
000E  0000      	NOP
0010  E101      	BNZ	label1
0012  0012      	RETURN
0014            label1
0014  0EF5      	MOVLW 0xF5
0016            label2
0016  0000      	NOP
0018  0000      	NOP
001A  0000      	NOP
001C  0000      	NOP
001E  0000      	NOP
0020  0000      	NOP
0022  0000      	NOP
0024  0000      	NOP
0026  0000      	NOP
0028  0000      	NOP
002A  0000      	NOP
002C  0000      	NOP
002E  0000      	NOP
0030  0000      	NOP
0032  0000      	NOP
0034  0000      	NOP
0036  0FFF      	ADDLW 0xFF
0038  A4D8      	BTFSS STATUS,Z
003A  D7ED      	BRA	label2
003C  0000      	NOP
003E  0000      	NOP
0040  0000      	NOP
0042  0000      	NOP
0044  0000      	NOP
0046  0000      	NOP
0048  0000      	NOP
004A  0000      	NOP
004C  0000      	NOP
004E  0000      	NOP
0050  0000      	NOP
0052  0000      	NOP
0054  0000      	NOP
0056  2E44      	DECFSZ delay_ms_00000_arg_del, F
0058  D7DD      	BRA	label1
005A  0012      	RETURN
005C            ; } delay_ms function end

	ORG 0x0000005C
005C            delay_us_00000
005C            ; { delay_us ; function begin
005C            label3
005C  0000      	NOP
005E  0000      	NOP
0060  2E43      	DECFSZ delay_us_00000_arg_del, F
0062  D7FC      	BRA	label3
0064  0012      	RETURN
0066            ; } delay_us function end

	ORG 0x00000066
0066            delay_s_00000
0066            ; { delay_s ; function begin
0066            label4
0066  0EFA      	MOVLW 0xFA
0068  6E44      	MOVWF delay_ms_00000_arg_del
006A  EC06F000  	CALL delay_ms_00000
006E  0EFA      	MOVLW 0xFA
0070  6E44      	MOVWF delay_ms_00000_arg_del
0072  EC06F000  	CALL delay_ms_00000
0076  0EFA      	MOVLW 0xFA
0078  6E44      	MOVWF delay_ms_00000_arg_del
007A  EC06F000  	CALL delay_ms_00000
007E  0EFA      	MOVLW 0xFA
0080  6E44      	MOVWF delay_ms_00000_arg_del
0082  EC06F000  	CALL delay_ms_00000
0086  2E43      	DECFSZ delay_s_00000_arg_del, F
0088  D7EE      	BRA	label4
008A  0012      	RETURN
008C            ; } delay_s function end

	ORG 0x0000008C
008C            __mul_32_3_00016
008C            ; { __mul_32_32 ; function begin
008C  6A6C      	CLRF CompTempVarRet414
008E  6A6D      	CLRF CompTempVarRet414+D'1'
0090  6A6E      	CLRF CompTempVarRet414+D'2'
0092  6A6F      	CLRF CompTempVarRet414+D'3'
0094  6A6E      	CLRF CompTempVarRet414+D'2'
0096  6A6F      	CLRF CompTempVarRet414+D'3'
0098  5060      	MOVF __mul_32_3_00016_arg_a, W
009A  0264      	MULWF __mul_32_3_00016_arg_b
009C  50F3      	MOVF gbl_prodl, W
009E  6E6C      	MOVWF CompTempVarRet414
00A0  50F4      	MOVF gbl_prodh, W
00A2  6E6D      	MOVWF CompTempVarRet414+D'1'
00A4  5061      	MOVF __mul_32_3_00016_arg_a+D'1', W
00A6  0264      	MULWF __mul_32_3_00016_arg_b
00A8  50F3      	MOVF gbl_prodl, W
00AA  266D      	ADDWF CompTempVarRet414+D'1', F
00AC  50F4      	MOVF gbl_prodh, W
00AE  226E      	ADDWFC CompTempVarRet414+D'2', F
00B0  B0D8      	BTFSC gbl_status,0
00B2  2A6F      	INCF CompTempVarRet414+D'3', F
00B4  5062      	MOVF __mul_32_3_00016_arg_a+D'2', W
00B6  0264      	MULWF __mul_32_3_00016_arg_b
00B8  50F3      	MOVF gbl_prodl, W
00BA  266E      	ADDWF CompTempVarRet414+D'2', F
00BC  50F4      	MOVF gbl_prodh, W
00BE  226F      	ADDWFC CompTempVarRet414+D'3', F
00C0  5063      	MOVF __mul_32_3_00016_arg_a+D'3', W
00C2  0264      	MULWF __mul_32_3_00016_arg_b
00C4  50F3      	MOVF gbl_prodl, W
00C6  266F      	ADDWF CompTempVarRet414+D'3', F
00C8  5060      	MOVF __mul_32_3_00016_arg_a, W
00CA  0265      	MULWF __mul_32_3_00016_arg_b+D'1'
00CC  50F3      	MOVF gbl_prodl, W
00CE  266D      	ADDWF CompTempVarRet414+D'1', F
00D0  50F4      	MOVF gbl_prodh, W
00D2  226E      	ADDWFC CompTempVarRet414+D'2', F
00D4  B0D8      	BTFSC gbl_status,0
00D6  2A6F      	INCF CompTempVarRet414+D'3', F
00D8  5061      	MOVF __mul_32_3_00016_arg_a+D'1', W
00DA  0265      	MULWF __mul_32_3_00016_arg_b+D'1'
00DC  50F3      	MOVF gbl_prodl, W
00DE  266E      	ADDWF CompTempVarRet414+D'2', F
00E0  50F4      	MOVF gbl_prodh, W
00E2  226F      	ADDWFC CompTempVarRet414+D'3', F
00E4  5062      	MOVF __mul_32_3_00016_arg_a+D'2', W
00E6  0265      	MULWF __mul_32_3_00016_arg_b+D'1'
00E8  50F3      	MOVF gbl_prodl, W
00EA  266F      	ADDWF CompTempVarRet414+D'3', F
00EC  5060      	MOVF __mul_32_3_00016_arg_a, W
00EE  0266      	MULWF __mul_32_3_00016_arg_b+D'2'
00F0  50F3      	MOVF gbl_prodl, W
00F2  266E      	ADDWF CompTempVarRet414+D'2', F
00F4  50F4      	MOVF gbl_prodh, W
00F6  226F      	ADDWFC CompTempVarRet414+D'3', F
00F8  5061      	MOVF __mul_32_3_00016_arg_a+D'1', W
00FA  0266      	MULWF __mul_32_3_00016_arg_b+D'2'
00FC  50F3      	MOVF gbl_prodl, W
00FE  266F      	ADDWF CompTempVarRet414+D'3', F
0100  5060      	MOVF __mul_32_3_00016_arg_a, W
0102  0267      	MULWF __mul_32_3_00016_arg_b+D'3'
0104  50F3      	MOVF gbl_prodl, W
0106  266F      	ADDWF CompTempVarRet414+D'3', F
0108  0012      	RETURN
010A            ; } __mul_32_32 function end

	ORG 0x0000010A
010A            __div_32_3_00011
010A            ; { __div_32_32 ; function begin
010A  6A68      	CLRF __div_32_3_00011_1_r
010C  6A69      	CLRF __div_32_3_00011_1_r+D'1'
010E  6A6A      	CLRF __div_32_3_00011_1_r+D'2'
0110  6A6B      	CLRF __div_32_3_00011_1_r+D'3'
0112  6A6E      	CLRF CompTempVarRet172
0114  6A6F      	CLRF CompTempVarRet172+D'1'
0116  6A70      	CLRF CompTempVarRet172+D'2'
0118  6A71      	CLRF CompTempVarRet172+D'3'
011A  6A6C      	CLRF __div_32_3_00011_1_i
011C            label5
011C  0E20      	MOVLW 0x20
011E  146C      	ANDWF __div_32_3_00011_1_i, W
0120  6E6D      	MOVWF CompTempVar174
0122  666D      	TSTFSZ CompTempVar174
0124  0012      	RETURN
0126  90D8      	BCF STATUS,C
0128  366E      	RLCF CompTempVarRet172, F
012A  366F      	RLCF CompTempVarRet172+D'1', F
012C  3670      	RLCF CompTempVarRet172+D'2', F
012E  3671      	RLCF CompTempVarRet172+D'3', F
0130  3660      	RLCF __div_32_3_00011_arg_a, F
0132  3661      	RLCF __div_32_3_00011_arg_a+D'1', F
0134  3662      	RLCF __div_32_3_00011_arg_a+D'2', F
0136  3663      	RLCF __div_32_3_00011_arg_a+D'3', F
0138  3668      	RLCF __div_32_3_00011_1_r, F
013A  3669      	RLCF __div_32_3_00011_1_r+D'1', F
013C  366A      	RLCF __div_32_3_00011_1_r+D'2', F
013E  366B      	RLCF __div_32_3_00011_1_r+D'3', F
0140  5067      	MOVF __div_32_3_00011_arg_b+D'3', W
0142  5C6B      	SUBWF __div_32_3_00011_1_r+D'3', W
0144  E108      	BNZ	label6
0146  5066      	MOVF __div_32_3_00011_arg_b+D'2', W
0148  5C6A      	SUBWF __div_32_3_00011_1_r+D'2', W
014A  E105      	BNZ	label6
014C  5065      	MOVF __div_32_3_00011_arg_b+D'1', W
014E  5C69      	SUBWF __div_32_3_00011_1_r+D'1', W
0150  E102      	BNZ	label6
0152  5064      	MOVF __div_32_3_00011_arg_b, W
0154  5C68      	SUBWF __div_32_3_00011_1_r, W
0156            label6
0156  E309      	BNC	label7
0158  5064      	MOVF __div_32_3_00011_arg_b, W
015A  5E68      	SUBWF __div_32_3_00011_1_r, F
015C  5065      	MOVF __div_32_3_00011_arg_b+D'1', W
015E  5A69      	SUBWFB __div_32_3_00011_1_r+D'1', F
0160  5066      	MOVF __div_32_3_00011_arg_b+D'2', W
0162  5A6A      	SUBWFB __div_32_3_00011_1_r+D'2', F
0164  5067      	MOVF __div_32_3_00011_arg_b+D'3', W
0166  5A6B      	SUBWFB __div_32_3_00011_1_r+D'3', F
0168  806E      	BSF CompTempVarRet172,0
016A            label7
016A  2A6C      	INCF __div_32_3_00011_1_i, F
016C  D7D7      	BRA	label5
016E            ; } __div_32_32 function end

	ORG 0x0000016E
016E            FC_CAL_UAR_0006B
016E            ; { FC_CAL_UART_Send_1 ; function begin
016E            label8
016E  0E10      	MOVLW 0x10
0170  149E      	ANDWF gbl_pir1, W
0172  6E6C      	MOVWF CompTempVar2692
0174  526C      	MOVF CompTempVar2692, F
0176  E0FB      	BZ	label8
0178  506A      	MOVF FC_CAL_UAR_0006B_arg_nChar, W
017A  6EAD      	MOVWF gbl_txreg
017C  0012      	RETURN
017E            ; } FC_CAL_UART_Send_1 function end

	ORG 0x0000017E
017E            FC_CAL_UAR_0006A
017E            ; { FC_CAL_UART_Receive_1 ; function begin
017E  686B      	SETF FC_CAL_UAR_0006A_1_retVal
0180  6A6C      	CLRF FC_CAL_UAR_0006A_1_delay1
0182  6A6D      	CLRF FC_CAL_UAR_0006A_1_regcheck
0184  6A6E      	CLRF FC_CAL_UAR_0006A_1_bWaitForever
0186  6A6F      	CLRF FC_CAL_UAR_0006A_1_rxStatus
0188  6A72      	CLRF FC_CAL_UAR_0006A_1_dummy
018A  286A      	INCF FC_CAL_UAR_0006A_arg_nTimeout, W
018C  E102      	BNZ	label9
018E  0E01      	MOVLW 0x01
0190  6E6E      	MOVWF FC_CAL_UAR_0006A_1_bWaitForever
0192            label9
0192  526F      	MOVF FC_CAL_UAR_0006A_1_rxStatus, F
0194  E124      	BNZ	label14
0196  526E      	MOVF FC_CAL_UAR_0006A_1_bWaitForever, F
0198  E118      	BNZ	label13
019A  526A      	MOVF FC_CAL_UAR_0006A_arg_nTimeout, F
019C  E103      	BNZ	label10
019E  0E01      	MOVLW 0x01
01A0  6E6F      	MOVWF FC_CAL_UAR_0006A_1_rxStatus
01A2  D013      	BRA	label13
01A4            label10
01A4  6A70      	CLRF FC_CAL_UAR_0006A_1_delaycnt
01A6  6A71      	CLRF FC_CAL_UAR_0006A_1_delaycnt+D'1'
01A8            label11
01A8  0E31      	MOVLW 0x31
01AA  5C70      	SUBWF FC_CAL_UAR_0006A_1_delaycnt, W
01AC  E205      	BC	label12
01AE  6671      	TSTFSZ FC_CAL_UAR_0006A_1_delaycnt+D'1'
01B0  D003      	BRA	label12
01B2  4A70      	INFSNZ FC_CAL_UAR_0006A_1_delaycnt, F
01B4  2A71      	INCF FC_CAL_UAR_0006A_1_delaycnt+D'1', F
01B6  D7F8      	BRA	label11
01B8            label12
01B8  286C      	INCF FC_CAL_UAR_0006A_1_delay1, W
01BA  6E6C      	MOVWF FC_CAL_UAR_0006A_1_delay1
01BC  0E64      	MOVLW 0x64
01BE  626C      	CPFSEQ FC_CAL_UAR_0006A_1_delay1
01C0  D004      	BRA	label13
01C2  046A      	DECF FC_CAL_UAR_0006A_arg_nTimeout, W
01C4  6E6A      	MOVWF FC_CAL_UAR_0006A_arg_nTimeout
01C6  0004      	CLRWDT
01C8  6A6C      	CLRF FC_CAL_UAR_0006A_1_delay1
01CA            label13
01CA  0E20      	MOVLW 0x20
01CC  149E      	ANDWF gbl_pir1, W
01CE  6E73      	MOVWF CompTempVar2689
01D0  5073      	MOVF CompTempVar2689, W
01D2  6E6D      	MOVWF FC_CAL_UAR_0006A_1_regcheck
01D4  526D      	MOVF FC_CAL_UAR_0006A_1_regcheck, F
01D6  E0DD      	BZ	label9
01D8  0E02      	MOVLW 0x02
01DA  6E6F      	MOVWF FC_CAL_UAR_0006A_1_rxStatus
01DC  D7DA      	BRA	label9
01DE            label14
01DE  0E02      	MOVLW 0x02
01E0  626F      	CPFSEQ FC_CAL_UAR_0006A_1_rxStatus
01E2  D018      	BRA	label17
01E4  0E04      	MOVLW 0x04
01E6  14AB      	ANDWF gbl_rcsta, W
01E8  6E73      	MOVWF CompTempVar2690
01EA  5073      	MOVF CompTempVar2690, W
01EC  6E6D      	MOVWF FC_CAL_UAR_0006A_1_regcheck
01EE  526D      	MOVF FC_CAL_UAR_0006A_1_regcheck, F
01F0  E003      	BZ	label15
01F2  50AE      	MOVF gbl_rcreg, W
01F4  6E72      	MOVWF FC_CAL_UAR_0006A_1_dummy
01F6  D00E      	BRA	label17
01F8            label15
01F8  0E02      	MOVLW 0x02
01FA  14AB      	ANDWF gbl_rcsta, W
01FC  6E73      	MOVWF CompTempVar2691
01FE  5073      	MOVF CompTempVar2691, W
0200  6E6D      	MOVWF FC_CAL_UAR_0006A_1_regcheck
0202  526D      	MOVF FC_CAL_UAR_0006A_1_regcheck, F
0204  E003      	BZ	label16
0206  98AB      	BCF gbl_rcsta,4
0208  88AB      	BSF gbl_rcsta,4
020A  D004      	BRA	label17
020C            label16
020C  6A6B      	CLRF FC_CAL_UAR_0006A_1_retVal
020E  50AE      	MOVF gbl_rcreg, W
0210  106B      	IORWF FC_CAL_UAR_0006A_1_retVal, W
0212  6E6B      	MOVWF FC_CAL_UAR_0006A_1_retVal
0214            label17
0214  506B      	MOVF FC_CAL_UAR_0006A_1_retVal, W
0216  6E73      	MOVWF CompTempVarRet2688
0218  6A74      	CLRF CompTempVarRet2688+D'1'
021A  0012      	RETURN
021C            ; } FC_CAL_UART_Receive_1 function end

	ORG 0x0000021C
021C            FC_CAL_UAR_00069
021C            ; { FC_CAL_UART_Uninit_1 ; function begin
021C  6AAB      	CLRF gbl_rcsta
021E  6AAC      	CLRF gbl_txsta
0220  0012      	RETURN
0222            ; } FC_CAL_UART_Uninit_1 function end

	ORG 0x00000222
0222            FCI_GETLEN_0004B
0222            ; { FCI_GETLENGTH ; function begin
0222  6A6D      	CLRF FCI_GETLEN_0004B_1_tmp
0224            label18
0224  506C      	MOVF FCI_GETLEN_0004B_arg_iStr1_len, W
0226  606D      	CPFSLT FCI_GETLEN_0004B_1_tmp
0228  D009      	BRA	label19
022A  506B      	MOVF FCI_GETLEN_0004B_arg_sStr1+D'1', W
022C  6EEA      	MOVWF FSR0H
022E  506A      	MOVF FCI_GETLEN_0004B_arg_sStr1, W
0230  246D      	ADDWF FCI_GETLEN_0004B_1_tmp, W
0232  6EE9      	MOVWF FSR0L
0234  52EF      	MOVF INDF0, F
0236  E002      	BZ	label19
0238  2A6D      	INCF FCI_GETLEN_0004B_1_tmp, F
023A  D7F4      	BRA	label18
023C            label19
023C  506D      	MOVF FCI_GETLEN_0004B_1_tmp, W
023E  6E6E      	MOVWF CompTempVarRet1850
0240  0012      	RETURN
0242            ; } FCI_GETLENGTH function end

	ORG 0x00000242
0242            FC_CAL_UAR_0006C
0242            ; { FC_CAL_UART_Init_1 ; function begin
0242  84AC      	BSF gbl_txsta,2
0244  0E7F      	MOVLW 0x7F
0246  6EAF      	MOVWF gbl_spbrg
0248  6AAB      	CLRF gbl_rcsta
024A  8EAB      	BSF gbl_rcsta,7
024C  8AAC      	BSF gbl_txsta,5
024E  88AB      	BSF gbl_rcsta,4
0250  9A9D      	BCF gbl_pie1,5
0252  0012      	RETURN
0254            ; } FC_CAL_UART_Init_1 function end

	ORG 0x00000254
0254            FC_CAL_UAR_00068
0254            ; { FC_CAL_UART_UpdateBaud_1 ; function begin
0254  0E07      	MOVLW 0x07
0256  6443      	CPFSGT FC_CAL_UAR_00068_arg_new_baud
0258  D001      	BRA	label20
025A  0012      	RETURN
025C            label20
025C  5243      	MOVF FC_CAL_UAR_00068_arg_new_baud, F
025E  E104      	BNZ	label21
0260  6844      	SETF FC_CAL_UAR_00068_1_baudrate
0262  0E01      	MOVLW 0x01
0264  6E45      	MOVWF FC_CAL_UAR_00068_1_baudmode
0266  D02F      	BRA	label28
0268            label21
0268  0443      	DECF FC_CAL_UAR_00068_arg_new_baud, W
026A  E105      	BNZ	label22
026C  0E7F      	MOVLW 0x7F
026E  6E44      	MOVWF FC_CAL_UAR_00068_1_baudrate
0270  0E01      	MOVLW 0x01
0272  6E45      	MOVWF FC_CAL_UAR_00068_1_baudmode
0274  D028      	BRA	label28
0276            label22
0276  0E02      	MOVLW 0x02
0278  6243      	CPFSEQ FC_CAL_UAR_00068_arg_new_baud
027A  D003      	BRA	label23
027C  6844      	SETF FC_CAL_UAR_00068_1_baudrate
027E  6A45      	CLRF FC_CAL_UAR_00068_1_baudmode
0280  D022      	BRA	label28
0282            label23
0282  0E03      	MOVLW 0x03
0284  6243      	CPFSEQ FC_CAL_UAR_00068_arg_new_baud
0286  D004      	BRA	label24
0288  0E7F      	MOVLW 0x7F
028A  6E44      	MOVWF FC_CAL_UAR_00068_1_baudrate
028C  6A45      	CLRF FC_CAL_UAR_00068_1_baudmode
028E  D01B      	BRA	label28
0290            label24
0290  0E04      	MOVLW 0x04
0292  6243      	CPFSEQ FC_CAL_UAR_00068_arg_new_baud
0294  D004      	BRA	label25
0296  0E3F      	MOVLW 0x3F
0298  6E44      	MOVWF FC_CAL_UAR_00068_1_baudrate
029A  6A45      	CLRF FC_CAL_UAR_00068_1_baudmode
029C  D014      	BRA	label28
029E            label25
029E  0E05      	MOVLW 0x05
02A0  6243      	CPFSEQ FC_CAL_UAR_00068_arg_new_baud
02A2  D004      	BRA	label26
02A4  0E1F      	MOVLW 0x1F
02A6  6E44      	MOVWF FC_CAL_UAR_00068_1_baudrate
02A8  6A45      	CLRF FC_CAL_UAR_00068_1_baudmode
02AA  D00D      	BRA	label28
02AC            label26
02AC  0E06      	MOVLW 0x06
02AE  6243      	CPFSEQ FC_CAL_UAR_00068_arg_new_baud
02B0  D004      	BRA	label27
02B2  0E14      	MOVLW 0x14
02B4  6E44      	MOVWF FC_CAL_UAR_00068_1_baudrate
02B6  6A45      	CLRF FC_CAL_UAR_00068_1_baudmode
02B8  D006      	BRA	label28
02BA            label27
02BA  0E07      	MOVLW 0x07
02BC  6243      	CPFSEQ FC_CAL_UAR_00068_arg_new_baud
02BE  D003      	BRA	label28
02C0  0E0A      	MOVLW 0x0A
02C2  6E44      	MOVWF FC_CAL_UAR_00068_1_baudrate
02C4  6A45      	CLRF FC_CAL_UAR_00068_1_baudmode
02C6            label28
02C6  EC0EF001  	CALL FC_CAL_UAR_00069
02CA  0445      	DECF FC_CAL_UAR_00068_1_baudmode, W
02CC  E102      	BNZ	label29
02CE  94AC      	BCF gbl_txsta,2
02D0  D001      	BRA	label30
02D2            label29
02D2  84AC      	BSF gbl_txsta,2
02D4            label30
02D4  5044      	MOVF FC_CAL_UAR_00068_1_baudrate, W
02D6  6EAF      	MOVWF gbl_spbrg
02D8  6AAB      	CLRF gbl_rcsta
02DA  8EAB      	BSF gbl_rcsta,7
02DC  8AAC      	BSF gbl_txsta,5
02DE  88AB      	BSF gbl_rcsta,4
02E0  9A9D      	BCF gbl_pie1,5
02E2  0012      	RETURN
02E4            ; } FC_CAL_UART_UpdateBaud_1 function end

	ORG 0x000002E4
02E4            FC_CAL_Por_00042
02E4            ; { FC_CAL_Port_In_DDR__x ; function begin
02E4  5046      	MOVF FC_CAL_Por_00042_arg_Tris+D'1', W
02E6  6EEA      	MOVWF FSR0H
02E8  5045      	MOVF FC_CAL_Por_00042_arg_Tris, W
02EA  6EE9      	MOVWF FSR0L
02EC  5047      	MOVF FC_CAL_Por_00042_arg_InMask, W
02EE  10EF      	IORWF INDF0, W
02F0  6E49      	MOVWF CompTempVar1825
02F2  5049      	MOVF CompTempVar1825, W
02F4  6EEF      	MOVWF INDF0
02F6  5044      	MOVF FC_CAL_Por_00042_arg_Port+D'1', W
02F8  6EEA      	MOVWF FSR0H
02FA  5043      	MOVF FC_CAL_Por_00042_arg_Port, W
02FC  6EE9      	MOVWF FSR0L
02FE  5047      	MOVF FC_CAL_Por_00042_arg_InMask, W
0300  14EF      	ANDWF INDF0, W
0302  6E49      	MOVWF CompTempVarRet1822
0304  5048      	MOVF FC_CAL_Por_00042_arg_Shift, W
0306  6E4A      	MOVWF CompTempVar1827
0308            label31
0308  B4D8      	BTFSC STATUS,Z
030A  0012      	RETURN
030C  90D8      	BCF STATUS,C
030E  3249      	RRCF CompTempVarRet1822, F
0310  064A      	DECF CompTempVar1827, F
0312  D7FA      	BRA	label31
0314            ; } FC_CAL_Port_In_DDR__x function end

	ORG 0x00000314
0314            FCI_TOSTRI_0004F
0314            ; { FCI_TOSTRING ; function begin
0314  504D      	MOVF FCI_TOSTRI_0004F_arg_iSrc1, W
0316  6E55      	MOVWF FCI_TOSTRI_0004F_1_iSrc
0318  504E      	MOVF FCI_TOSTRI_0004F_arg_iSrc1+D'1', W
031A  6E56      	MOVWF FCI_TOSTRI_0004F_1_iSrc+D'1'
031C  504F      	MOVF FCI_TOSTRI_0004F_arg_iSrc1+D'2', W
031E  6E57      	MOVWF FCI_TOSTRI_0004F_1_iSrc+D'2'
0320  5050      	MOVF FCI_TOSTRI_0004F_arg_iSrc1+D'3', W
0322  6E58      	MOVWF FCI_TOSTRI_0004F_1_iSrc+D'3'
0324  6A59      	CLRF FCI_TOSTRI_0004F_1_top
0326  0ECA      	MOVLW 0xCA
0328  6E5A      	MOVWF FCI_TOSTRI_0004F_1_top+D'1'
032A  0E9A      	MOVLW 0x9A
032C  6E5B      	MOVWF FCI_TOSTRI_0004F_1_top+D'2'
032E  0E3B      	MOVLW 0x3B
0330  6E5C      	MOVWF FCI_TOSTRI_0004F_1_top+D'3'
0332  6A5D      	CLRF FCI_TOSTRI_0004F_1_idx
0334  5253      	MOVF FCI_TOSTRI_0004F_arg_iDst_len, F
0336  E105      	BNZ	label32
0338  5051      	MOVF FCI_TOSTRI_0004F_arg_sDst, W
033A  6E5E      	MOVWF CompTempVarRet1863
033C  5052      	MOVF FCI_TOSTRI_0004F_arg_sDst+D'1', W
033E  6E5F      	MOVWF CompTempVarRet1863+D'1'
0340  0012      	RETURN
0342            label32
0342  AE58      	BTFSS FCI_TOSTRI_0004F_1_iSrc+D'3',7
0344  D014      	BRA	label33
0346  5052      	MOVF FCI_TOSTRI_0004F_arg_sDst+D'1', W
0348  6EEA      	MOVWF FSR0H
034A  5051      	MOVF FCI_TOSTRI_0004F_arg_sDst, W
034C  6EE9      	MOVWF FSR0L
034E  6A60      	CLRF CompTempVar1865
0350  5060      	MOVF CompTempVar1865, W
0352  26E9      	ADDWF FSR0L, F
0354  0E2D      	MOVLW 0x2D
0356  6EEF      	MOVWF INDF0
0358  2A5D      	INCF FCI_TOSTRI_0004F_1_idx, F
035A  1E55      	COMF FCI_TOSTRI_0004F_1_iSrc, F
035C  1E56      	COMF FCI_TOSTRI_0004F_1_iSrc+D'1', F
035E  1E57      	COMF FCI_TOSTRI_0004F_1_iSrc+D'2', F
0360  1E58      	COMF FCI_TOSTRI_0004F_1_iSrc+D'3', F
0362  3E55      	INCFSZ FCI_TOSTRI_0004F_1_iSrc, F
0364  D004      	BRA	label33
0366  3E56      	INCFSZ FCI_TOSTRI_0004F_1_iSrc+D'1', F
0368  D002      	BRA	label33
036A  4A57      	INFSNZ FCI_TOSTRI_0004F_1_iSrc+D'2', F
036C  2A58      	INCF FCI_TOSTRI_0004F_1_iSrc+D'3', F
036E            label33
036E  6A54      	CLRF FCI_TOSTRI_0004F_1_tmp1
0370  5055      	MOVF FCI_TOSTRI_0004F_1_iSrc, W
0372  1056      	IORWF FCI_TOSTRI_0004F_1_iSrc+D'1', W
0374  1057      	IORWF FCI_TOSTRI_0004F_1_iSrc+D'2', W
0376  1058      	IORWF FCI_TOSTRI_0004F_1_iSrc+D'3', W
0378  0BFF      	ANDLW 0xFF
037A  E106      	BNZ	label34
037C  0E01      	MOVLW 0x01
037E  6E54      	MOVWF FCI_TOSTRI_0004F_1_tmp1
0380  6E59      	MOVWF FCI_TOSTRI_0004F_1_top
0382  6A5A      	CLRF FCI_TOSTRI_0004F_1_top+D'1'
0384  6A5B      	CLRF FCI_TOSTRI_0004F_1_top+D'2'
0386  6A5C      	CLRF FCI_TOSTRI_0004F_1_top+D'3'
0388            label34
0388  5053      	MOVF FCI_TOSTRI_0004F_arg_iDst_len, W
038A  605D      	CPFSLT FCI_TOSTRI_0004F_1_idx
038C  D072      	BRA	label39
038E  505C      	MOVF FCI_TOSTRI_0004F_1_top+D'3', W
0390  0800      	SUBLW 0x00
0392  E108      	BNZ	label35
0394  505B      	MOVF FCI_TOSTRI_0004F_1_top+D'2', W
0396  0800      	SUBLW 0x00
0398  E105      	BNZ	label35
039A  505A      	MOVF FCI_TOSTRI_0004F_1_top+D'1', W
039C  0800      	SUBLW 0x00
039E  E102      	BNZ	label35
03A0  5059      	MOVF FCI_TOSTRI_0004F_1_top, W
03A2  0800      	SUBLW 0x00
03A4            label35
03A4  E266      	BC	label39
03A6  505C      	MOVF FCI_TOSTRI_0004F_1_top+D'3', W
03A8  5C58      	SUBWF FCI_TOSTRI_0004F_1_iSrc+D'3', W
03AA  E108      	BNZ	label36
03AC  505B      	MOVF FCI_TOSTRI_0004F_1_top+D'2', W
03AE  5C57      	SUBWF FCI_TOSTRI_0004F_1_iSrc+D'2', W
03B0  E105      	BNZ	label36
03B2  505A      	MOVF FCI_TOSTRI_0004F_1_top+D'1', W
03B4  5C56      	SUBWF FCI_TOSTRI_0004F_1_iSrc+D'1', W
03B6  E102      	BNZ	label36
03B8  5059      	MOVF FCI_TOSTRI_0004F_1_top, W
03BA  5C55      	SUBWF FCI_TOSTRI_0004F_1_iSrc, W
03BC            label36
03BC  E202      	BC	label37
03BE  5254      	MOVF FCI_TOSTRI_0004F_1_tmp1, F
03C0  E040      	BZ	label38
03C2            label37
03C2  5055      	MOVF FCI_TOSTRI_0004F_1_iSrc, W
03C4  6E60      	MOVWF __div_32_3_00011_arg_a
03C6  5056      	MOVF FCI_TOSTRI_0004F_1_iSrc+D'1', W
03C8  6E61      	MOVWF __div_32_3_00011_arg_a+D'1'
03CA  5057      	MOVF FCI_TOSTRI_0004F_1_iSrc+D'2', W
03CC  6E62      	MOVWF __div_32_3_00011_arg_a+D'2'
03CE  5058      	MOVF FCI_TOSTRI_0004F_1_iSrc+D'3', W
03D0  6E63      	MOVWF __div_32_3_00011_arg_a+D'3'
03D2  5059      	MOVF FCI_TOSTRI_0004F_1_top, W
03D4  6E64      	MOVWF __div_32_3_00011_arg_b
03D6  505A      	MOVF FCI_TOSTRI_0004F_1_top+D'1', W
03D8  6E65      	MOVWF __div_32_3_00011_arg_b+D'1'
03DA  505B      	MOVF FCI_TOSTRI_0004F_1_top+D'2', W
03DC  6E66      	MOVWF __div_32_3_00011_arg_b+D'2'
03DE  505C      	MOVF FCI_TOSTRI_0004F_1_top+D'3', W
03E0  6E67      	MOVWF __div_32_3_00011_arg_b+D'3'
03E2  EC85F000  	CALL __div_32_3_00011
03E6  506E      	MOVF CompTempVarRet172, W
03E8  6E54      	MOVWF FCI_TOSTRI_0004F_1_tmp1
03EA  5054      	MOVF FCI_TOSTRI_0004F_1_tmp1, W
03EC  0F30      	ADDLW 0x30
03EE  6E60      	MOVWF CompTempVar1871
03F0  5052      	MOVF FCI_TOSTRI_0004F_arg_sDst+D'1', W
03F2  6EEA      	MOVWF FSR0H
03F4  5051      	MOVF FCI_TOSTRI_0004F_arg_sDst, W
03F6  245D      	ADDWF FCI_TOSTRI_0004F_1_idx, W
03F8  6EE9      	MOVWF FSR0L
03FA  5060      	MOVF CompTempVar1871, W
03FC  6EEF      	MOVWF INDF0
03FE  2A5D      	INCF FCI_TOSTRI_0004F_1_idx, F
0400  5054      	MOVF FCI_TOSTRI_0004F_1_tmp1, W
0402  6E60      	MOVWF __mul_32_3_00016_arg_a
0404  6A61      	CLRF __mul_32_3_00016_arg_a+D'1'
0406  6A62      	CLRF __mul_32_3_00016_arg_a+D'2'
0408  6A63      	CLRF __mul_32_3_00016_arg_a+D'3'
040A  5059      	MOVF FCI_TOSTRI_0004F_1_top, W
040C  6E64      	MOVWF __mul_32_3_00016_arg_b
040E  505A      	MOVF FCI_TOSTRI_0004F_1_top+D'1', W
0410  6E65      	MOVWF __mul_32_3_00016_arg_b+D'1'
0412  505B      	MOVF FCI_TOSTRI_0004F_1_top+D'2', W
0414  6E66      	MOVWF __mul_32_3_00016_arg_b+D'2'
0416  505C      	MOVF FCI_TOSTRI_0004F_1_top+D'3', W
0418  6E67      	MOVWF __mul_32_3_00016_arg_b+D'3'
041A  EC46F000  	CALL __mul_32_3_00016
041E  506C      	MOVF CompTempVarRet414, W
0420  6E68      	MOVWF CompTempVar1872
0422  506D      	MOVF CompTempVarRet414+D'1', W
0424  6E69      	MOVWF CompTempVar1873
0426  506E      	MOVF CompTempVarRet414+D'2', W
0428  6E6A      	MOVWF CompTempVar1874
042A  506F      	MOVF CompTempVarRet414+D'3', W
042C  6E6B      	MOVWF CompTempVar1875
042E  5068      	MOVF CompTempVar1872, W
0430  5E55      	SUBWF FCI_TOSTRI_0004F_1_iSrc, F
0432  5069      	MOVF CompTempVar1873, W
0434  5A56      	SUBWFB FCI_TOSTRI_0004F_1_iSrc+D'1', F
0436  506A      	MOVF CompTempVar1874, W
0438  5A57      	SUBWFB FCI_TOSTRI_0004F_1_iSrc+D'2', F
043A  506B      	MOVF CompTempVar1875, W
043C  5A58      	SUBWFB FCI_TOSTRI_0004F_1_iSrc+D'3', F
043E  0E01      	MOVLW 0x01
0440  6E54      	MOVWF FCI_TOSTRI_0004F_1_tmp1
0442            label38
0442  5059      	MOVF FCI_TOSTRI_0004F_1_top, W
0444  6E60      	MOVWF __div_32_3_00011_arg_a
0446  505A      	MOVF FCI_TOSTRI_0004F_1_top+D'1', W
0448  6E61      	MOVWF __div_32_3_00011_arg_a+D'1'
044A  505B      	MOVF FCI_TOSTRI_0004F_1_top+D'2', W
044C  6E62      	MOVWF __div_32_3_00011_arg_a+D'2'
044E  505C      	MOVF FCI_TOSTRI_0004F_1_top+D'3', W
0450  6E63      	MOVWF __div_32_3_00011_arg_a+D'3'
0452  0E0A      	MOVLW 0x0A
0454  6E64      	MOVWF __div_32_3_00011_arg_b
0456  6A65      	CLRF __div_32_3_00011_arg_b+D'1'
0458  6A66      	CLRF __div_32_3_00011_arg_b+D'2'
045A  6A67      	CLRF __div_32_3_00011_arg_b+D'3'
045C  EC85F000  	CALL __div_32_3_00011
0460  506E      	MOVF CompTempVarRet172, W
0462  6E59      	MOVWF FCI_TOSTRI_0004F_1_top
0464  506F      	MOVF CompTempVarRet172+D'1', W
0466  6E5A      	MOVWF FCI_TOSTRI_0004F_1_top+D'1'
0468  5070      	MOVF CompTempVarRet172+D'2', W
046A  6E5B      	MOVWF FCI_TOSTRI_0004F_1_top+D'2'
046C  5071      	MOVF CompTempVarRet172+D'3', W
046E  6E5C      	MOVWF FCI_TOSTRI_0004F_1_top+D'3'
0470  D78B      	BRA	label34
0472            label39
0472  5053      	MOVF FCI_TOSTRI_0004F_arg_iDst_len, W
0474  605D      	CPFSLT FCI_TOSTRI_0004F_1_idx
0476  D007      	BRA	label40
0478  5052      	MOVF FCI_TOSTRI_0004F_arg_sDst+D'1', W
047A  6EEA      	MOVWF FSR0H
047C  5051      	MOVF FCI_TOSTRI_0004F_arg_sDst, W
047E  245D      	ADDWF FCI_TOSTRI_0004F_1_idx, W
0480  6EE9      	MOVWF FSR0L
0482  0E00      	MOVLW 0x00
0484  6EEF      	MOVWF INDF0
0486            label40
0486  5051      	MOVF FCI_TOSTRI_0004F_arg_sDst, W
0488  6E5E      	MOVWF CompTempVarRet1863
048A  5052      	MOVF FCI_TOSTRI_0004F_arg_sDst+D'1', W
048C  6E5F      	MOVWF CompTempVarRet1863+D'1'
048E  0012      	RETURN
0490            ; } FCI_TOSTRING function end

	ORG 0x00000490
0490            FCD_0f051__00062
0490            ; { FCD_0f051_gLCD_EB076_4D1__Print ; function begin
0490  6A69      	CLRF FCD_0f051__00062_1_FCL_IDX
0492  0E4F      	MOVLW 0x4F
0494  6E6A      	MOVWF FC_CAL_UAR_0006B_arg_nChar
0496  6A6B      	CLRF FC_CAL_UAR_0006B_arg_nChar+D'1'
0498  ECB7F000  	CALL FC_CAL_UAR_0006B
049C  5267      	MOVF FCD_0f051__00062_arg_FCL_T_00063, F
049E  E005      	BZ	label41
04A0  6A6A      	CLRF FC_CAL_UAR_0006B_arg_nChar
04A2  6A6B      	CLRF FC_CAL_UAR_0006B_arg_nChar+D'1'
04A4  ECB7F000  	CALL FC_CAL_UAR_0006B
04A8  D005      	BRA	label42
04AA            label41
04AA  0E01      	MOVLW 0x01
04AC  6E6A      	MOVWF FC_CAL_UAR_0006B_arg_nChar
04AE  6A6B      	CLRF FC_CAL_UAR_0006B_arg_nChar+D'1'
04B0  ECB7F000  	CALL FC_CAL_UAR_0006B
04B4            label42
04B4  686A      	SETF FC_CAL_UAR_0006A_arg_nTimeout
04B6  ECBFF000  	CALL FC_CAL_UAR_0006A
04BA  0E53      	MOVLW 0x53
04BC  6E6A      	MOVWF FC_CAL_UAR_0006B_arg_nChar
04BE  6A6B      	CLRF FC_CAL_UAR_0006B_arg_nChar+D'1'
04C0  ECB7F000  	CALL FC_CAL_UAR_0006B
04C4  5063      	MOVF FCD_0f051__00062_arg_FCL_X1+D'1', W
04C6  6E6A      	MOVWF FC_CAL_UAR_0006B_arg_nChar
04C8  6A6B      	CLRF FC_CAL_UAR_0006B_arg_nChar+D'1'
04CA  ECB7F000  	CALL FC_CAL_UAR_0006B
04CE  5062      	MOVF FCD_0f051__00062_arg_FCL_X1, W
04D0  6E6A      	MOVWF FC_CAL_UAR_0006B_arg_nChar
04D2  5063      	MOVF FCD_0f051__00062_arg_FCL_X1+D'1', W
04D4  6E6B      	MOVWF FC_CAL_UAR_0006B_arg_nChar+D'1'
04D6  ECB7F000  	CALL FC_CAL_UAR_0006B
04DA  5065      	MOVF FCD_0f051__00062_arg_FCL_Y1+D'1', W
04DC  6E6A      	MOVWF FC_CAL_UAR_0006B_arg_nChar
04DE  6A6B      	CLRF FC_CAL_UAR_0006B_arg_nChar+D'1'
04E0  ECB7F000  	CALL FC_CAL_UAR_0006B
04E4  5064      	MOVF FCD_0f051__00062_arg_FCL_Y1, W
04E6  6E6A      	MOVWF FC_CAL_UAR_0006B_arg_nChar
04E8  5065      	MOVF FCD_0f051__00062_arg_FCL_Y1+D'1', W
04EA  6E6B      	MOVWF FC_CAL_UAR_0006B_arg_nChar+D'1'
04EC  ECB7F000  	CALL FC_CAL_UAR_0006B
04F0  5066      	MOVF FCD_0f051__00062_arg_FCL_FONT, W
04F2  6E6A      	MOVWF FC_CAL_UAR_0006B_arg_nChar
04F4  6A6B      	CLRF FC_CAL_UAR_0006B_arg_nChar+D'1'
04F6  ECB7F000  	CALL FC_CAL_UAR_0006B
04FA  5028      	MOVF gbl_FCV_0f051_gLCD_EB076_4_0000D+D'1', W
04FC  6E6A      	MOVWF FC_CAL_UAR_0006B_arg_nChar
04FE  6A6B      	CLRF FC_CAL_UAR_0006B_arg_nChar+D'1'
0500  ECB7F000  	CALL FC_CAL_UAR_0006B
0504  5027      	MOVF gbl_FCV_0f051_gLCD_EB076_4_0000D, W
0506  6E6A      	MOVWF FC_CAL_UAR_0006B_arg_nChar
0508  5028      	MOVF gbl_FCV_0f051_gLCD_EB076_4_0000D+D'1', W
050A  6E6B      	MOVWF FC_CAL_UAR_0006B_arg_nChar+D'1'
050C  ECB7F000  	CALL FC_CAL_UAR_0006B
0510  0E01      	MOVLW 0x01
0512  6E6A      	MOVWF FC_CAL_UAR_0006B_arg_nChar
0514  6A6B      	CLRF FC_CAL_UAR_0006B_arg_nChar+D'1'
0516  ECB7F000  	CALL FC_CAL_UAR_0006B
051A  0E01      	MOVLW 0x01
051C  6E6A      	MOVWF FC_CAL_UAR_0006B_arg_nChar
051E  6A6B      	CLRF FC_CAL_UAR_0006B_arg_nChar+D'1'
0520  ECB7F000  	CALL FC_CAL_UAR_0006B
0524  504D      	MOVF FCD_0f051__00062_arg_FCL_STR, W
0526  6E6A      	MOVWF FCI_GETLEN_0004B_arg_sStr1
0528  504E      	MOVF FCD_0f051__00062_arg_FCL_STR+D'1', W
052A  6E6B      	MOVWF FCI_GETLEN_0004B_arg_sStr1+D'1'
052C  5060      	MOVF FCD_0f051__00062_arg_FCLsz_STR, W
052E  6E6C      	MOVWF FCI_GETLEN_0004B_arg_iStr1_len
0530  EC11F001  	CALL FCI_GETLEN_0004B
0534  506E      	MOVF CompTempVarRet1850, W
0536  6E68      	MOVWF FCD_0f051__00062_1_FCL_LEN_STR
0538            label43
0538  5068      	MOVF FCD_0f051__00062_1_FCL_LEN_STR, W
053A  6069      	CPFSLT FCD_0f051__00062_1_FCL_IDX
053C  D014      	BRA	label44
053E  504E      	MOVF FCD_0f051__00062_arg_FCL_STR+D'1', W
0540  6EEA      	MOVWF FSR0H
0542  504D      	MOVF FCD_0f051__00062_arg_FCL_STR, W
0544  2469      	ADDWF FCD_0f051__00062_1_FCL_IDX, W
0546  6EE9      	MOVWF FSR0L
0548  52EF      	MOVF INDF0, F
054A  E00D      	BZ	label44
054C  504E      	MOVF FCD_0f051__00062_arg_FCL_STR+D'1', W
054E  6EEA      	MOVWF FSR0H
0550  504D      	MOVF FCD_0f051__00062_arg_FCL_STR, W
0552  2469      	ADDWF FCD_0f051__00062_1_FCL_IDX, W
0554  6EE9      	MOVWF FSR0L
0556  50EF      	MOVF INDF0, W
0558  6E6A      	MOVWF FC_CAL_UAR_0006B_arg_nChar
055A  6A6B      	CLRF FC_CAL_UAR_0006B_arg_nChar+D'1'
055C  ECB7F000  	CALL FC_CAL_UAR_0006B
0560  2869      	INCF FCD_0f051__00062_1_FCL_IDX, W
0562  6E69      	MOVWF FCD_0f051__00062_1_FCL_IDX
0564  D7E9      	BRA	label43
0566            label44
0566  6A6A      	CLRF FC_CAL_UAR_0006B_arg_nChar
0568  6A6B      	CLRF FC_CAL_UAR_0006B_arg_nChar+D'1'
056A  ECB7F000  	CALL FC_CAL_UAR_0006B
056E  686A      	SETF FC_CAL_UAR_0006A_arg_nTimeout
0570  ECBFF000  	CALL FC_CAL_UAR_0006A
0574  0012      	RETURN
0576            ; } FCD_0f051_gLCD_EB076_4D1__Print function end

	ORG 0x00000576
0576            FCD_0f051__0005D
0576            ; { FCD_0f051_gLCD_EB076_4D1__ClearDisplay ; function begin
0576  6A43      	CLRF FCD_0f051__0005D_1_FCL_Y
0578  6A44      	CLRF FCD_0f051__0005D_1_FCL_Y+D'1'
057A  6A45      	CLRF FCD_0f051__0005D_1_FCL_X
057C  6A46      	CLRF FCD_0f051__0005D_1_FCL_X+D'1'
057E  0E42      	MOVLW 0x42
0580  6E6A      	MOVWF FC_CAL_UAR_0006B_arg_nChar
0582  6A6B      	CLRF FC_CAL_UAR_0006B_arg_nChar+D'1'
0584  ECB7F000  	CALL FC_CAL_UAR_0006B
0588  5026      	MOVF gbl_FCV_0f051_gLCD_EB076_4_0000C+D'1', W
058A  6E6A      	MOVWF FC_CAL_UAR_0006B_arg_nChar
058C  6A6B      	CLRF FC_CAL_UAR_0006B_arg_nChar+D'1'
058E  ECB7F000  	CALL FC_CAL_UAR_0006B
0592  5025      	MOVF gbl_FCV_0f051_gLCD_EB076_4_0000C, W
0594  6E6A      	MOVWF FC_CAL_UAR_0006B_arg_nChar
0596  5026      	MOVF gbl_FCV_0f051_gLCD_EB076_4_0000C+D'1', W
0598  6E6B      	MOVWF FC_CAL_UAR_0006B_arg_nChar+D'1'
059A  ECB7F000  	CALL FC_CAL_UAR_0006B
059E  686A      	SETF FC_CAL_UAR_0006A_arg_nTimeout
05A0  ECBFF000  	CALL FC_CAL_UAR_0006A
05A4  0E45      	MOVLW 0x45
05A6  6E6A      	MOVWF FC_CAL_UAR_0006B_arg_nChar
05A8  6A6B      	CLRF FC_CAL_UAR_0006B_arg_nChar+D'1'
05AA  ECB7F000  	CALL FC_CAL_UAR_0006B
05AE  686A      	SETF FC_CAL_UAR_0006A_arg_nTimeout
05B0  ECBFF000  	CALL FC_CAL_UAR_0006A
05B4  0012      	RETURN
05B6            ; } FCD_0f051_gLCD_EB076_4D1__ClearDisplay function end

	ORG 0x000005B6
05B6            FCD_0f051__00065
05B6            ; { FCD_0f051_gLCD_EB076_4D1__PrintNumber ; function begin
05B6  503F      	MOVF FCD_0f051__00065_arg_FCL_NUMBER, W
05B8  6E4D      	MOVWF FCI_TOSTRI_0004F_arg_iSrc1
05BA  5040      	MOVF FCD_0f051__00065_arg_FCL_NUMBER+D'1', W
05BC  6E4E      	MOVWF FCI_TOSTRI_0004F_arg_iSrc1+D'1'
05BE  6A4F      	CLRF FCI_TOSTRI_0004F_arg_iSrc1+D'2'
05C0  6A50      	CLRF FCI_TOSTRI_0004F_arg_iSrc1+D'3'
05C2  AE40      	BTFSS FCD_0f051__00065_arg_FCL_NUMBER+D'1',7
05C4  D002      	BRA	label45
05C6  064F      	DECF FCI_TOSTRI_0004F_arg_iSrc1+D'2', F
05C8  0650      	DECF FCI_TOSTRI_0004F_arg_iSrc1+D'3', F
05CA            label45
05CA  0E00      	MOVLW HIGH(FCD_0f051__00065_1_FCL_TEMP+D'0')
05CC  6E52      	MOVWF FCI_TOSTRI_0004F_arg_sDst+D'1'
05CE  0E47      	MOVLW LOW(FCD_0f051__00065_1_FCL_TEMP+D'0')
05D0  6E51      	MOVWF FCI_TOSTRI_0004F_arg_sDst
05D2  0E06      	MOVLW 0x06
05D4  6E53      	MOVWF FCI_TOSTRI_0004F_arg_iDst_len
05D6  EC8AF001  	CALL FCI_TOSTRI_0004F
05DA  0E00      	MOVLW HIGH(FCD_0f051__00065_1_FCL_TEMP+D'0')
05DC  6E4E      	MOVWF FCD_0f051__00062_arg_FCL_STR+D'1'
05DE  0E47      	MOVLW LOW(FCD_0f051__00065_1_FCL_TEMP+D'0')
05E0  6E4D      	MOVWF FCD_0f051__00062_arg_FCL_STR
05E2  0E06      	MOVLW 0x06
05E4  6E60      	MOVWF FCD_0f051__00062_arg_FCLsz_STR
05E6  6A61      	CLRF FCD_0f051__00062_arg_FCLsz_STR+D'1'
05E8  5041      	MOVF FCD_0f051__00065_arg_FCL_X, W
05EA  6E62      	MOVWF FCD_0f051__00062_arg_FCL_X1
05EC  5042      	MOVF FCD_0f051__00065_arg_FCL_X+D'1', W
05EE  6E63      	MOVWF FCD_0f051__00062_arg_FCL_X1+D'1'
05F0  5043      	MOVF FCD_0f051__00065_arg_FCL_Y, W
05F2  6E64      	MOVWF FCD_0f051__00062_arg_FCL_Y1
05F4  5044      	MOVF FCD_0f051__00065_arg_FCL_Y+D'1', W
05F6  6E65      	MOVWF FCD_0f051__00062_arg_FCL_Y1+D'1'
05F8  5045      	MOVF FCD_0f051__00065_arg_FCL_FONT, W
05FA  6E66      	MOVWF FCD_0f051__00062_arg_FCL_FONT
05FC  5046      	MOVF FCD_0f051__00065_arg_FCL_T_00066, W
05FE  6E67      	MOVWF FCD_0f051__00062_arg_FCL_T_00063
0600  EC48F002  	CALL FCD_0f051__00062
0604  0012      	RETURN
0606            ; } FCD_0f051_gLCD_EB076_4D1__PrintNumber function end

	ORG 0x00000606
0606            FCD_0f051__00064
0606            ; { FCD_0f051_gLCD_EB076_4D1__G4D_ReadTouchCoordinatesPicaso ; function begin
0606  6A40      	CLRF FCD_0f051__00064_1_FCR_RETVAL
0608  6A41      	CLRF FCD_0f051__00064_1_FCR_RETVAL+D'1'
060A  523F      	MOVF FCD_0f051__00064_arg_FCL_AXIS, F
060C  E007      	BZ	label47
060E  0E78      	MOVLW 0x78
0610  623F      	CPFSEQ FCD_0f051__00064_arg_FCL_AXIS
0612  D001      	BRA	label46
0614  D003      	BRA	label47
0616            label46
0616  0E58      	MOVLW 0x58
0618  623F      	CPFSEQ FCD_0f051__00064_arg_FCL_AXIS
061A  D004      	BRA	label48
061C            label47
061C  502B      	MOVF gbl_FCV_0f051_gLCD_EB076_4_0000F, W
061E  6E40      	MOVWF FCD_0f051__00064_1_FCR_RETVAL
0620  502C      	MOVF gbl_FCV_0f051_gLCD_EB076_4_0000F+D'1', W
0622  6E41      	MOVWF FCD_0f051__00064_1_FCR_RETVAL+D'1'
0624            label48
0624  043F      	DECF FCD_0f051__00064_arg_FCL_AXIS, W
0626  E007      	BZ	label50
0628  0E79      	MOVLW 0x79
062A  623F      	CPFSEQ FCD_0f051__00064_arg_FCL_AXIS
062C  D001      	BRA	label49
062E  D003      	BRA	label50
0630            label49
0630  0E59      	MOVLW 0x59
0632  623F      	CPFSEQ FCD_0f051__00064_arg_FCL_AXIS
0634  D004      	BRA	label51
0636            label50
0636  5029      	MOVF gbl_FCV_0f051_gLCD_EB076_4_0000E, W
0638  6E40      	MOVWF FCD_0f051__00064_1_FCR_RETVAL
063A  502A      	MOVF gbl_FCV_0f051_gLCD_EB076_4_0000E+D'1', W
063C  6E41      	MOVWF FCD_0f051__00064_1_FCR_RETVAL+D'1'
063E            label51
063E  5040      	MOVF FCD_0f051__00064_1_FCR_RETVAL, W
0640  6E42      	MOVWF CompTempVarRet2684
0642  5041      	MOVF FCD_0f051__00064_1_FCR_RETVAL+D'1', W
0644  6E43      	MOVWF CompTempVarRet2684+D'1'
0646  0012      	RETURN
0648            ; } FCD_0f051_gLCD_EB076_4D1__G4D_ReadTouchCoordinatesPicaso function end

	ORG 0x00000648
0648            FCD_0f051__00061
0648            ; { FCD_0f051_gLCD_EB076_4D1__G4D_GetTouchCoordinatesPicaso ; function begin
0648  0E6F      	MOVLW 0x6F
064A  6E6A      	MOVWF FC_CAL_UAR_0006B_arg_nChar
064C  6A6B      	CLRF FC_CAL_UAR_0006B_arg_nChar+D'1'
064E  ECB7F000  	CALL FC_CAL_UAR_0006B
0652  0E04      	MOVLW 0x04
0654  6E6A      	MOVWF FC_CAL_UAR_0006B_arg_nChar
0656  6A6B      	CLRF FC_CAL_UAR_0006B_arg_nChar+D'1'
0658  ECB7F000  	CALL FC_CAL_UAR_0006B
065C  686A      	SETF FC_CAL_UAR_0006A_arg_nTimeout
065E  ECBFF000  	CALL FC_CAL_UAR_0006A
0662  686A      	SETF FC_CAL_UAR_0006A_arg_nTimeout
0664  ECBFF000  	CALL FC_CAL_UAR_0006A
0668  5073      	MOVF CompTempVarRet2688, W
066A  6E40      	MOVWF FCD_0f051__00061_1_FCR_RETVAL
066C  686A      	SETF FC_CAL_UAR_0006A_arg_nTimeout
066E  ECBFF000  	CALL FC_CAL_UAR_0006A
0672  686A      	SETF FC_CAL_UAR_0006A_arg_nTimeout
0674  ECBFF000  	CALL FC_CAL_UAR_0006A
0678  5240      	MOVF FCD_0f051__00061_1_FCR_RETVAL, F
067A  E032      	BZ	label52
067C  0E6F      	MOVLW 0x6F
067E  6E6A      	MOVWF FC_CAL_UAR_0006B_arg_nChar
0680  6A6B      	CLRF FC_CAL_UAR_0006B_arg_nChar+D'1'
0682  ECB7F000  	CALL FC_CAL_UAR_0006B
0686  0E05      	MOVLW 0x05
0688  6E6A      	MOVWF FC_CAL_UAR_0006B_arg_nChar
068A  6A6B      	CLRF FC_CAL_UAR_0006B_arg_nChar+D'1'
068C  ECB7F000  	CALL FC_CAL_UAR_0006B
0690  686A      	SETF FC_CAL_UAR_0006A_arg_nTimeout
0692  ECBFF000  	CALL FC_CAL_UAR_0006A
0696  5073      	MOVF CompTempVarRet2688, W
0698  6E2B      	MOVWF gbl_FCV_0f051_gLCD_EB076_4_0000F
069A  5074      	MOVF CompTempVarRet2688+D'1', W
069C  6E2C      	MOVWF gbl_FCV_0f051_gLCD_EB076_4_0000F+D'1'
069E  686A      	SETF FC_CAL_UAR_0006A_arg_nTimeout
06A0  ECBFF000  	CALL FC_CAL_UAR_0006A
06A4  5073      	MOVF CompTempVarRet2688, W
06A6  6E3F      	MOVWF FCD_0f051__00061_1_FCL_TEMP
06A8  6A41      	CLRF CompTempVar2666
06AA  502B      	MOVF gbl_FCV_0f051_gLCD_EB076_4_0000F, W
06AC  6E2C      	MOVWF gbl_FCV_0f051_gLCD_EB076_4_0000F+D'1'
06AE  5041      	MOVF CompTempVar2666, W
06B0  6E2B      	MOVWF gbl_FCV_0f051_gLCD_EB076_4_0000F
06B2  503F      	MOVF FCD_0f051__00061_1_FCL_TEMP, W
06B4  122B      	IORWF gbl_FCV_0f051_gLCD_EB076_4_0000F, F
06B6  522C      	MOVF gbl_FCV_0f051_gLCD_EB076_4_0000F+D'1', F
06B8  686A      	SETF FC_CAL_UAR_0006A_arg_nTimeout
06BA  ECBFF000  	CALL FC_CAL_UAR_0006A
06BE  5073      	MOVF CompTempVarRet2688, W
06C0  6E29      	MOVWF gbl_FCV_0f051_gLCD_EB076_4_0000E
06C2  5074      	MOVF CompTempVarRet2688+D'1', W
06C4  6E2A      	MOVWF gbl_FCV_0f051_gLCD_EB076_4_0000E+D'1'
06C6  686A      	SETF FC_CAL_UAR_0006A_arg_nTimeout
06C8  ECBFF000  	CALL FC_CAL_UAR_0006A
06CC  5073      	MOVF CompTempVarRet2688, W
06CE  6E3F      	MOVWF FCD_0f051__00061_1_FCL_TEMP
06D0  6A41      	CLRF CompTempVar2670
06D2  5029      	MOVF gbl_FCV_0f051_gLCD_EB076_4_0000E, W
06D4  6E2A      	MOVWF gbl_FCV_0f051_gLCD_EB076_4_0000E+D'1'
06D6  5041      	MOVF CompTempVar2670, W
06D8  6E29      	MOVWF gbl_FCV_0f051_gLCD_EB076_4_0000E
06DA  503F      	MOVF FCD_0f051__00061_1_FCL_TEMP, W
06DC  1229      	IORWF gbl_FCV_0f051_gLCD_EB076_4_0000E, F
06DE  522A      	MOVF gbl_FCV_0f051_gLCD_EB076_4_0000E+D'1', F
06E0            label52
06E0  5040      	MOVF FCD_0f051__00061_1_FCR_RETVAL, W
06E2  6E41      	MOVWF CompTempVarRet2665
06E4  0012      	RETURN
06E6            ; } FCD_0f051_gLCD_EB076_4D1__G4D_GetTouchCoordinatesPicaso function end

	ORG 0x000006E6
06E6            FCD_0f051__00060
06E6            ; { FCD_0f051_gLCD_EB076_4D1__G4D_DisableTouchscreenPicaso ; function begin
06E6  0E59      	MOVLW 0x59
06E8  6E6A      	MOVWF FC_CAL_UAR_0006B_arg_nChar
06EA  6A6B      	CLRF FC_CAL_UAR_0006B_arg_nChar+D'1'
06EC  ECB7F000  	CALL FC_CAL_UAR_0006B
06F0  0E05      	MOVLW 0x05
06F2  6E6A      	MOVWF FC_CAL_UAR_0006B_arg_nChar
06F4  6A6B      	CLRF FC_CAL_UAR_0006B_arg_nChar+D'1'
06F6  ECB7F000  	CALL FC_CAL_UAR_0006B
06FA  0E01      	MOVLW 0x01
06FC  6E6A      	MOVWF FC_CAL_UAR_0006B_arg_nChar
06FE  6A6B      	CLRF FC_CAL_UAR_0006B_arg_nChar+D'1'
0700  ECB7F000  	CALL FC_CAL_UAR_0006B
0704  686A      	SETF FC_CAL_UAR_0006A_arg_nTimeout
0706  ECBFF000  	CALL FC_CAL_UAR_0006A
070A  5073      	MOVF CompTempVarRet2688, W
070C  6E3F      	MOVWF FCD_0f051__00060_1_FCR_RETVAL
070E  0E06      	MOVLW 0x06
0710  623F      	CPFSEQ FCD_0f051__00060_1_FCR_RETVAL
0712  D002      	BRA	label53
0714  6A3F      	CLRF FCD_0f051__00060_1_FCR_RETVAL
0716  D001      	BRA	label54
0718            label53
0718  683F      	SETF FCD_0f051__00060_1_FCR_RETVAL
071A            label54
071A  503F      	MOVF FCD_0f051__00060_1_FCR_RETVAL, W
071C  6E40      	MOVWF CompTempVarRet2664
071E  0012      	RETURN
0720            ; } FCD_0f051_gLCD_EB076_4D1__G4D_DisableTouchscreenPicaso function end

	ORG 0x00000720
0720            FCD_0f051__0005E
0720            ; { FCD_0f051_gLCD_EB076_4D1__G4D_EnableTouchscreenPicaso ; function begin
0720  0E59      	MOVLW 0x59
0722  6E6A      	MOVWF FC_CAL_UAR_0006B_arg_nChar
0724  6A6B      	CLRF FC_CAL_UAR_0006B_arg_nChar+D'1'
0726  ECB7F000  	CALL FC_CAL_UAR_0006B
072A  0E05      	MOVLW 0x05
072C  6E6A      	MOVWF FC_CAL_UAR_0006B_arg_nChar
072E  6A6B      	CLRF FC_CAL_UAR_0006B_arg_nChar+D'1'
0730  ECB7F000  	CALL FC_CAL_UAR_0006B
0734  6A6A      	CLRF FC_CAL_UAR_0006B_arg_nChar
0736  6A6B      	CLRF FC_CAL_UAR_0006B_arg_nChar+D'1'
0738  ECB7F000  	CALL FC_CAL_UAR_0006B
073C  686A      	SETF FC_CAL_UAR_0006A_arg_nTimeout
073E  ECBFF000  	CALL FC_CAL_UAR_0006A
0742  5073      	MOVF CompTempVarRet2688, W
0744  6E3F      	MOVWF FCD_0f051__0005E_1_FCR_RETVAL
0746  0E59      	MOVLW 0x59
0748  6E6A      	MOVWF FC_CAL_UAR_0006B_arg_nChar
074A  6A6B      	CLRF FC_CAL_UAR_0006B_arg_nChar+D'1'
074C  ECB7F000  	CALL FC_CAL_UAR_0006B
0750  0E05      	MOVLW 0x05
0752  6E6A      	MOVWF FC_CAL_UAR_0006B_arg_nChar
0754  6A6B      	CLRF FC_CAL_UAR_0006B_arg_nChar+D'1'
0756  ECB7F000  	CALL FC_CAL_UAR_0006B
075A  0E02      	MOVLW 0x02
075C  6E6A      	MOVWF FC_CAL_UAR_0006B_arg_nChar
075E  6A6B      	CLRF FC_CAL_UAR_0006B_arg_nChar+D'1'
0760  ECB7F000  	CALL FC_CAL_UAR_0006B
0764  686A      	SETF FC_CAL_UAR_0006A_arg_nTimeout
0766  ECBFF000  	CALL FC_CAL_UAR_0006A
076A  5073      	MOVF CompTempVarRet2688, W
076C  6E3F      	MOVWF FCD_0f051__0005E_1_FCR_RETVAL
076E  0E06      	MOVLW 0x06
0770  623F      	CPFSEQ FCD_0f051__0005E_1_FCR_RETVAL
0772  D002      	BRA	label55
0774  6A3F      	CLRF FCD_0f051__0005E_1_FCR_RETVAL
0776  D001      	BRA	label56
0778            label55
0778  683F      	SETF FCD_0f051__0005E_1_FCR_RETVAL
077A            label56
077A  503F      	MOVF FCD_0f051__0005E_1_FCR_RETVAL, W
077C  6E40      	MOVWF CompTempVarRet2661
077E  0012      	RETURN
0780            ; } FCD_0f051_gLCD_EB076_4D1__G4D_EnableTouchscreenPicaso function end

	ORG 0x00000780
0780            FCD_0f051__0005C
0780            ; { FCD_0f051_gLCD_EB076_4D1__Initialise ; function begin
0780  6A43      	CLRF FCD_0f051__0005C_2_ptmp
0782  9A94      	BCF gbl_trisc,5
0784  5243      	MOVF FCD_0f051__0005C_2_ptmp, F
0786  E004      	BZ	label57
0788  0E20      	MOVLW 0x20
078A  108B      	IORWF gbl_latc, W
078C  6E82      	MOVWF gbl_portc
078E  D003      	BRA	label58
0790            label57
0790  0EDF      	MOVLW 0xDF
0792  148B      	ANDWF gbl_latc, W
0794  6E82      	MOVWF gbl_portc
0796            label58
0796  EC21F001  	CALL FC_CAL_UAR_0006C
079A  0E64      	MOVLW 0x64
079C  6E43      	MOVWF delay_us_00000_arg_del
079E  EC2EF000  	CALL delay_us_00000
07A2  0E0F      	MOVLW HIGH(gbl_portc+D'0')
07A4  6E44      	MOVWF FC_CAL_Por_00042_arg_Port+D'1'
07A6  0E82      	MOVLW LOW(gbl_portc+D'0')
07A8  6E43      	MOVWF FC_CAL_Por_00042_arg_Port
07AA  0E0F      	MOVLW HIGH(gbl_trisc+D'0')
07AC  6E46      	MOVWF FC_CAL_Por_00042_arg_Tris+D'1'
07AE  0E94      	MOVLW LOW(gbl_trisc+D'0')
07B0  6E45      	MOVWF FC_CAL_Por_00042_arg_Tris
07B2  0E20      	MOVLW 0x20
07B4  6E47      	MOVWF FC_CAL_Por_00042_arg_InMask
07B6  0E05      	MOVLW 0x05
07B8  6E48      	MOVWF FC_CAL_Por_00042_arg_Shift
07BA  EC72F001  	CALL FC_CAL_Por_00042
07BE  5049      	MOVF CompTempVarRet1822, W
07C0  6E42      	MOVWF FCD_0f051__0005C_1_FCL_DUMMY
07C2  0E03      	MOVLW 0x03
07C4  6E43      	MOVWF delay_s_00000_arg_del
07C6  EC33F000  	CALL delay_s_00000
07CA  6A6A      	CLRF FC_CAL_UAR_0006A_arg_nTimeout
07CC  ECBFF000  	CALL FC_CAL_UAR_0006A
07D0  6A6A      	CLRF FC_CAL_UAR_0006A_arg_nTimeout
07D2  ECBFF000  	CALL FC_CAL_UAR_0006A
07D6  6A6A      	CLRF FC_CAL_UAR_0006A_arg_nTimeout
07D8  ECBFF000  	CALL FC_CAL_UAR_0006A
07DC  0E55      	MOVLW 0x55
07DE  6E6A      	MOVWF FC_CAL_UAR_0006B_arg_nChar
07E0  6A6B      	CLRF FC_CAL_UAR_0006B_arg_nChar+D'1'
07E2  ECB7F000  	CALL FC_CAL_UAR_0006B
07E6  686A      	SETF FC_CAL_UAR_0006A_arg_nTimeout
07E8  ECBFF000  	CALL FC_CAL_UAR_0006A
07EC  0E51      	MOVLW 0x51
07EE  6E6A      	MOVWF FC_CAL_UAR_0006B_arg_nChar
07F0  6A6B      	CLRF FC_CAL_UAR_0006B_arg_nChar+D'1'
07F2  ECB7F000  	CALL FC_CAL_UAR_0006B
07F6  0E0C      	MOVLW 0x0C
07F8  6E6A      	MOVWF FC_CAL_UAR_0006B_arg_nChar
07FA  6A6B      	CLRF FC_CAL_UAR_0006B_arg_nChar+D'1'
07FC  ECB7F000  	CALL FC_CAL_UAR_0006B
0800  686A      	SETF FC_CAL_UAR_0006A_arg_nTimeout
0802  ECBFF000  	CALL FC_CAL_UAR_0006A
0806  0E06      	MOVLW 0x06
0808  6E43      	MOVWF FC_CAL_UAR_00068_arg_new_baud
080A  EC2AF001  	CALL FC_CAL_UAR_00068
080E  0E0A      	MOVLW 0x0A
0810  6E6A      	MOVWF FC_CAL_UAR_0006A_arg_nTimeout
0812  ECBFF000  	CALL FC_CAL_UAR_0006A
0816  0E0A      	MOVLW 0x0A
0818  6E6A      	MOVWF FC_CAL_UAR_0006A_arg_nTimeout
081A  ECBFF000  	CALL FC_CAL_UAR_0006A
081E  6A3F      	CLRF FCD_0f051__0005C_1_FCL_RED
0820  323F      	RRCF FCD_0f051__0005C_1_FCL_RED, F
0822  323F      	RRCF FCD_0f051__0005C_1_FCL_RED, F
0824  323F      	RRCF FCD_0f051__0005C_1_FCL_RED, F
0826  0E1F      	MOVLW 0x1F
0828  163F      	ANDWF FCD_0f051__0005C_1_FCL_RED, F
082A  6A40      	CLRF FCD_0f051__0005C_1_FCL_GREEN
082C  3240      	RRCF FCD_0f051__0005C_1_FCL_GREEN, F
082E  3240      	RRCF FCD_0f051__0005C_1_FCL_GREEN, F
0830  0E3F      	MOVLW 0x3F
0832  1640      	ANDWF FCD_0f051__0005C_1_FCL_GREEN, F
0834  6A41      	CLRF FCD_0f051__0005C_1_FCL_BLUE
0836  3241      	RRCF FCD_0f051__0005C_1_FCL_BLUE, F
0838  3241      	RRCF FCD_0f051__0005C_1_FCL_BLUE, F
083A  3241      	RRCF FCD_0f051__0005C_1_FCL_BLUE, F
083C  0E1F      	MOVLW 0x1F
083E  1641      	ANDWF FCD_0f051__0005C_1_FCL_BLUE, F
0840  5040      	MOVF FCD_0f051__0005C_1_FCL_GREEN, W
0842  6E43      	MOVWF CompTempVar2640
0844  6A28      	CLRF gbl_FCV_0f051_gLCD_EB076_4_0000D+D'1'
0846  3643      	RLCF CompTempVar2640, F
0848  3628      	RLCF gbl_FCV_0f051_gLCD_EB076_4_0000D+D'1', F
084A  3643      	RLCF CompTempVar2640, F
084C  3628      	RLCF gbl_FCV_0f051_gLCD_EB076_4_0000D+D'1', F
084E  3643      	RLCF CompTempVar2640, F
0850  3628      	RLCF gbl_FCV_0f051_gLCD_EB076_4_0000D+D'1', F
0852  3643      	RLCF CompTempVar2640, F
0854  3628      	RLCF gbl_FCV_0f051_gLCD_EB076_4_0000D+D'1', F
0856  3643      	RLCF CompTempVar2640, F
0858  3628      	RLCF gbl_FCV_0f051_gLCD_EB076_4_0000D+D'1', F
085A  0EE0      	MOVLW 0xE0
085C  1643      	ANDWF CompTempVar2640, F
085E  5043      	MOVF CompTempVar2640, W
0860  1041      	IORWF FCD_0f051__0005C_1_FCL_BLUE, W
0862  6E27      	MOVWF gbl_FCV_0f051_gLCD_EB076_4_0000D
0864  6A43      	CLRF CompTempVar2644
0866  503F      	MOVF FCD_0f051__0005C_1_FCL_RED, W
0868  6E44      	MOVWF CompTempVar2645
086A  90D8      	BCF STATUS,C
086C  3644      	RLCF CompTempVar2645, F
086E  90D8      	BCF STATUS,C
0870  3644      	RLCF CompTempVar2645, F
0872  90D8      	BCF STATUS,C
0874  3644      	RLCF CompTempVar2645, F
0876  5043      	MOVF CompTempVar2644, W
0878  1227      	IORWF gbl_FCV_0f051_gLCD_EB076_4_0000D, F
087A  5044      	MOVF CompTempVar2645, W
087C  1228      	IORWF gbl_FCV_0f051_gLCD_EB076_4_0000D+D'1', F
087E  683F      	SETF FCD_0f051__0005C_1_FCL_RED
0880  323F      	RRCF FCD_0f051__0005C_1_FCL_RED, F
0882  323F      	RRCF FCD_0f051__0005C_1_FCL_RED, F
0884  323F      	RRCF FCD_0f051__0005C_1_FCL_RED, F
0886  0E1F      	MOVLW 0x1F
0888  163F      	ANDWF FCD_0f051__0005C_1_FCL_RED, F
088A  6840      	SETF FCD_0f051__0005C_1_FCL_GREEN
088C  3240      	RRCF FCD_0f051__0005C_1_FCL_GREEN, F
088E  3240      	RRCF FCD_0f051__0005C_1_FCL_GREEN, F
0890  0E3F      	MOVLW 0x3F
0892  1640      	ANDWF FCD_0f051__0005C_1_FCL_GREEN, F
0894  6841      	SETF FCD_0f051__0005C_1_FCL_BLUE
0896  3241      	RRCF FCD_0f051__0005C_1_FCL_BLUE, F
0898  3241      	RRCF FCD_0f051__0005C_1_FCL_BLUE, F
089A  3241      	RRCF FCD_0f051__0005C_1_FCL_BLUE, F
089C  0E1F      	MOVLW 0x1F
089E  1641      	ANDWF FCD_0f051__0005C_1_FCL_BLUE, F
08A0  5040      	MOVF FCD_0f051__0005C_1_FCL_GREEN, W
08A2  6E43      	MOVWF CompTempVar2651
08A4  6A26      	CLRF gbl_FCV_0f051_gLCD_EB076_4_0000C+D'1'
08A6  3643      	RLCF CompTempVar2651, F
08A8  3626      	RLCF gbl_FCV_0f051_gLCD_EB076_4_0000C+D'1', F
08AA  3643      	RLCF CompTempVar2651, F
08AC  3626      	RLCF gbl_FCV_0f051_gLCD_EB076_4_0000C+D'1', F
08AE  3643      	RLCF CompTempVar2651, F
08B0  3626      	RLCF gbl_FCV_0f051_gLCD_EB076_4_0000C+D'1', F
08B2  3643      	RLCF CompTempVar2651, F
08B4  3626      	RLCF gbl_FCV_0f051_gLCD_EB076_4_0000C+D'1', F
08B6  3643      	RLCF CompTempVar2651, F
08B8  3626      	RLCF gbl_FCV_0f051_gLCD_EB076_4_0000C+D'1', F
08BA  0EE0      	MOVLW 0xE0
08BC  1643      	ANDWF CompTempVar2651, F
08BE  5043      	MOVF CompTempVar2651, W
08C0  1041      	IORWF FCD_0f051__0005C_1_FCL_BLUE, W
08C2  6E25      	MOVWF gbl_FCV_0f051_gLCD_EB076_4_0000C
08C4  6A43      	CLRF CompTempVar2655
08C6  503F      	MOVF FCD_0f051__0005C_1_FCL_RED, W
08C8  6E44      	MOVWF CompTempVar2656
08CA  90D8      	BCF STATUS,C
08CC  3644      	RLCF CompTempVar2656, F
08CE  90D8      	BCF STATUS,C
08D0  3644      	RLCF CompTempVar2656, F
08D2  90D8      	BCF STATUS,C
08D4  3644      	RLCF CompTempVar2656, F
08D6  5043      	MOVF CompTempVar2655, W
08D8  1225      	IORWF gbl_FCV_0f051_gLCD_EB076_4_0000C, F
08DA  5044      	MOVF CompTempVar2656, W
08DC  1226      	IORWF gbl_FCV_0f051_gLCD_EB076_4_0000C+D'1', F
08DE  ECBBF002  	CALL FCD_0f051__0005D
08E2  0E0A      	MOVLW 0x0A
08E4  6E6A      	MOVWF FC_CAL_UAR_0006A_arg_nTimeout
08E6  ECBFF000  	CALL FC_CAL_UAR_0006A
08EA  0E0A      	MOVLW 0x0A
08EC  6E6A      	MOVWF FC_CAL_UAR_0006A_arg_nTimeout
08EE  ECBFF000  	CALL FC_CAL_UAR_0006A
08F2  0012      	RETURN
08F4            ; } FCD_0f051_gLCD_EB076_4D1__Initialise function end

	ORG 0x000008F4
08F4            FCM_Initia_0005B
08F4            ; { FCM_Initialisation ; function begin
08F4  ECC0F003  	CALL FCD_0f051__0005C
08F8  ECBBF002  	CALL FCD_0f051__0005D
08FC  EC90F003  	CALL FCD_0f051__0005E
0900  0012      	RETURN
0902            ; } FCM_Initialisation function end

	ORG 0x00000902
0902            FCM_Appui__0005F
0902            ; { FCM_Appui_tactile ; function begin
0902            label59
0902  EC73F003  	CALL FCD_0f051__00060
0906  EC90F003  	CALL FCD_0f051__0005E
090A            label60
090A  5223      	MOVF gbl_FCV_APPUI_ECRAN, F
090C  E137      	BNZ	label61
090E  5224      	MOVF gbl_FCV_APPUI_ECRAN+D'1', F
0910  E135      	BNZ	label61
0912  EC24F003  	CALL FCD_0f051__00061
0916  5041      	MOVF CompTempVarRet2665, W
0918  6E23      	MOVWF gbl_FCV_APPUI_ECRAN
091A  6A24      	CLRF gbl_FCV_APPUI_ECRAN+D'1'
091C  0E20      	MOVLW 0x20
091E  6E57      	MOVWF CompTempVar2662+D'8'
0920  0E56      	MOVLW 0x56
0922  6E4F      	MOVWF CompTempVar2662
0924  0E61      	MOVLW 0x61
0926  6E58      	MOVWF CompTempVar2662+D'9'
0928  0E65      	MOVLW 0x65
092A  6E50      	MOVWF CompTempVar2662+D'1'
092C  6E55      	MOVWF CompTempVar2662+D'6'
092E  6E5D      	MOVWF CompTempVar2662+D'14'
0930  0E69      	MOVLW 0x69
0932  6E52      	MOVWF CompTempVar2662+D'3'
0934  0E6C      	MOVLW 0x6C
0936  6E53      	MOVWF CompTempVar2662+D'4'
0938  6E54      	MOVWF CompTempVar2662+D'5'
093A  0E70      	MOVLW 0x70
093C  6E59      	MOVWF CompTempVar2662+D'10'
093E  6E5A      	MOVWF CompTempVar2662+D'11'
0940  0E72      	MOVLW 0x72
0942  6E5E      	MOVWF CompTempVar2662+D'15'
0944  0E75      	MOVLW 0x75
0946  6E51      	MOVWF CompTempVar2662+D'2'
0948  6E5B      	MOVWF CompTempVar2662+D'12'
094A  0E79      	MOVLW 0x79
094C  6E5C      	MOVWF CompTempVar2662+D'13'
094E  0E7A      	MOVLW 0x7A
0950  6E56      	MOVWF CompTempVar2662+D'7'
0952  6A5F      	CLRF CompTempVar2662+D'16'
0954  0E00      	MOVLW HIGH(CompTempVar2662+D'0')
0956  6E4E      	MOVWF FCD_0f051__00062_arg_FCL_STR+D'1'
0958  0E4F      	MOVLW LOW(CompTempVar2662+D'0')
095A  6E4D      	MOVWF FCD_0f051__00062_arg_FCL_STR
095C  0E11      	MOVLW 0x11
095E  6E60      	MOVWF FCD_0f051__00062_arg_FCLsz_STR
0960  6A61      	CLRF FCD_0f051__00062_arg_FCLsz_STR+D'1'
0962  0E32      	MOVLW 0x32
0964  6E62      	MOVWF FCD_0f051__00062_arg_FCL_X1
0966  6A63      	CLRF FCD_0f051__00062_arg_FCL_X1+D'1'
0968  0E96      	MOVLW 0x96
096A  6E64      	MOVWF FCD_0f051__00062_arg_FCL_Y1
096C  6A65      	CLRF FCD_0f051__00062_arg_FCL_Y1+D'1'
096E  0E02      	MOVLW 0x02
0970  6E66      	MOVWF FCD_0f051__00062_arg_FCL_FONT
0972  0E01      	MOVLW 0x01
0974  6E67      	MOVWF FCD_0f051__00062_arg_FCL_T_00063
0976  EC48F002  	CALL FCD_0f051__00062
097A  D7C7      	BRA	label60
097C            label61
097C  ECBBF002  	CALL FCD_0f051__0005D
0980  6A3F      	CLRF FCD_0f051__00064_arg_FCL_AXIS
0982  EC03F003  	CALL FCD_0f051__00064
0986  5042      	MOVF CompTempVarRet2684, W
0988  6E21      	MOVWF gbl_FCV_POSITIONX
098A  5043      	MOVF CompTempVarRet2684+D'1', W
098C  6E22      	MOVWF gbl_FCV_POSITIONX+D'1'
098E  0E01      	MOVLW 0x01
0990  6E3F      	MOVWF FCD_0f051__00064_arg_FCL_AXIS
0992  EC03F003  	CALL FCD_0f051__00064
0996  5042      	MOVF CompTempVarRet2684, W
0998  6E1F      	MOVWF gbl_FCV_POSITIONY
099A  5043      	MOVF CompTempVarRet2684+D'1', W
099C  6E20      	MOVWF gbl_FCV_POSITIONY+D'1'
099E  5021      	MOVF gbl_FCV_POSITIONX, W
09A0  6E3F      	MOVWF FCD_0f051__00065_arg_FCL_NUMBER
09A2  5022      	MOVF gbl_FCV_POSITIONX+D'1', W
09A4  6E40      	MOVWF FCD_0f051__00065_arg_FCL_NUMBER+D'1'
09A6  0E50      	MOVLW 0x50
09A8  6E41      	MOVWF FCD_0f051__00065_arg_FCL_X
09AA  6A42      	CLRF FCD_0f051__00065_arg_FCL_X+D'1'
09AC  0E96      	MOVLW 0x96
09AE  6E43      	MOVWF FCD_0f051__00065_arg_FCL_Y
09B0  6A44      	CLRF FCD_0f051__00065_arg_FCL_Y+D'1'
09B2  0E02      	MOVLW 0x02
09B4  6E45      	MOVWF FCD_0f051__00065_arg_FCL_FONT
09B6  0E01      	MOVLW 0x01
09B8  6E46      	MOVWF FCD_0f051__00065_arg_FCL_T_00066
09BA  ECDBF002  	CALL FCD_0f051__00065
09BE  501F      	MOVF gbl_FCV_POSITIONY, W
09C0  6E3F      	MOVWF FCD_0f051__00065_arg_FCL_NUMBER
09C2  5020      	MOVF gbl_FCV_POSITIONY+D'1', W
09C4  6E40      	MOVWF FCD_0f051__00065_arg_FCL_NUMBER+D'1'
09C6  0E78      	MOVLW 0x78
09C8  6E41      	MOVWF FCD_0f051__00065_arg_FCL_X
09CA  6A42      	CLRF FCD_0f051__00065_arg_FCL_X+D'1'
09CC  0E96      	MOVLW 0x96
09CE  6E43      	MOVWF FCD_0f051__00065_arg_FCL_Y
09D0  6A44      	CLRF FCD_0f051__00065_arg_FCL_Y+D'1'
09D2  0E02      	MOVLW 0x02
09D4  6E45      	MOVWF FCD_0f051__00065_arg_FCL_FONT
09D6  0E01      	MOVLW 0x01
09D8  6E46      	MOVWF FCD_0f051__00065_arg_FCL_T_00066
09DA  ECDBF002  	CALL FCD_0f051__00065
09DE  0E02      	MOVLW 0x02
09E0  6E43      	MOVWF delay_s_00000_arg_del
09E2  EC33F000  	CALL delay_s_00000
09E6  ECBBF002  	CALL FCD_0f051__0005D
09EA  6A23      	CLRF gbl_FCV_APPUI_ECRAN
09EC  6A24      	CLRF gbl_FCV_APPUI_ECRAN+D'1'
09EE  6A21      	CLRF gbl_FCV_POSITIONX
09F0  6A22      	CLRF gbl_FCV_POSITIONX+D'1'
09F2  6A1F      	CLRF gbl_FCV_POSITIONY
09F4  6A20      	CLRF gbl_FCV_POSITIONY+D'1'
09F6  D785      	BRA	label59
09F8            ; } FCM_Appui_tactile function end

	ORG 0x000009F8
09F8            main
09F8            ; { main ; function begin
09F8  0E0F      	MOVLW 0x0F
09FA  6EC1      	MOVWF gbl_adcon1
09FC  EC7AF004  	CALL FCM_Initia_0005B
0A00  EC81F004  	CALL FCM_Appui__0005F
0A04            label62
0A04  D7FF      	BRA	label62
0A06            ; } main function end

	ORG 0x00000A06
0A06            _startup
0A06  0ED5      	MOVLW 0xD5
0A08  6E05      	MOVWF gbl_14_LSR
0A0A  0EC4      	MOVLW 0xC4
0A0C  6E06      	MOVWF gbl_14_LSR+D'1'
0A0E  0EBB      	MOVLW 0xBB
0A10  6E07      	MOVWF gbl_14_LSR+D'2'
0A12  0EDC      	MOVLW 0xDC
0A14  6E08      	MOVWF gbl_14_LSR+D'3'
0A16  6A09      	CLRF gbl_15_gbl_aSig
0A18  6A0A      	CLRF gbl_15_gbl_aSig+D'1'
0A1A  6A0B      	CLRF gbl_15_gbl_aSig+D'2'
0A1C  6A0C      	CLRF gbl_15_gbl_aSig+D'3'
0A1E  6A0D      	CLRF gbl_15_gbl_bSig
0A20  6A0E      	CLRF gbl_15_gbl_bSig+D'1'
0A22  6A0F      	CLRF gbl_15_gbl_bSig+D'2'
0A24  6A10      	CLRF gbl_15_gbl_bSig+D'3'
0A26  6A11      	CLRF gbl_15_gbl_zSig
0A28  6A12      	CLRF gbl_15_gbl_zSig+D'1'
0A2A  6A13      	CLRF gbl_15_gbl_zSig+D'2'
0A2C  6A14      	CLRF gbl_15_gbl_zSig+D'3'
0A2E  6A30      	CLRF gbl_15_gbl_aExp
0A30  6A31      	CLRF gbl_15_gbl_bExp
0A32  6A1D      	CLRF gbl_15_gbl_zExp
0A34  6A1E      	CLRF gbl_15_gbl_zExp+D'1'
0A36  6A32      	CLRF gbl_15_gbl_aSign
0A38  6A33      	CLRF gbl_15_gbl_bSign
0A3A  6A34      	CLRF gbl_15_gbl_zSign
0A3C  6A35      	CLRF gbl_15_gbl_zSigZero
0A3E  6A15      	CLRF gbl_15_gbl_ret
0A40  6A16      	CLRF gbl_15_gbl_ret+D'1'
0A42  6A17      	CLRF gbl_15_gbl_ret+D'2'
0A44  6A18      	CLRF gbl_15_gbl_ret+D'3'
0A46  6A2E      	CLRF gbl_float_rounding_mode
0A48  6A2F      	CLRF gbl_float_exception_flags
0A4A  6A2D      	CLRF gbl_float_detect_tininess
0A4C  6A1F      	CLRF gbl_FCV_POSITIONY
0A4E  6A20      	CLRF gbl_FCV_POSITIONY+D'1'
0A50  6A21      	CLRF gbl_FCV_POSITIONX
0A52  6A22      	CLRF gbl_FCV_POSITIONX+D'1'
0A54  6A23      	CLRF gbl_FCV_APPUI_ECRAN
0A56  6A24      	CLRF gbl_FCV_APPUI_ECRAN+D'1'
0A58  0E00      	MOVLW 0x00
0A5A  6E36      	MOVWF gbl_FCD_00fb8_ASCII6__INTL_00000
0A5C  0E01      	MOVLW 0x01
0A5E  6E37      	MOVWF gbl_FCD_00fb7_ASCII7__INTL_00001
0A60  0E02      	MOVLW 0x02
0A62  6E38      	MOVWF gbl_FCD_00fb6_ASCII5__INTL_00002
0A64  0E03      	MOVLW 0x03
0A66  6E39      	MOVWF gbl_FCD_00fb5_ASCII4__INTL_00003
0A68  0E04      	MOVLW 0x04
0A6A  6E3A      	MOVWF gbl_FCD_00fb4_ASCII3__INTL_00004
0A6C  0E05      	MOVLW 0x05
0A6E  6E3B      	MOVWF gbl_FCD_00fb3_ASCII2__INTL_00005
0A70  0E06      	MOVLW 0x06
0A72  6E3C      	MOVWF gbl_FCD_00fb2_ASCII1__INTL_00006
0A74  0E07      	MOVLW 0x07
0A76  6E3D      	MOVWF gbl_FCD_00fb1_ASCII0__INTL_00007
0A78  6A19      	CLRF gbl_FCV_0ba71_Base_GLCD__P_00009
0A7A  6A1A      	CLRF gbl_FCV_0ba71_Base_GLCD__P_00009+D'1'
0A7C  6A1B      	CLRF gbl_FCV_0ba71_Base_GLCD__P_00009+D'2'
0A7E  6A1C      	CLRF gbl_FCV_0ba71_Base_GLCD__P_00009+D'3'
0A80  6A3E      	CLRF gbl_FCV_0ba71_Base_GLCD__O_0000B
0A82  EFFCF004  	GOTO	main
	ORG 0x00000A86
0A86            interrupt
0A86            ; { interrupt ; function begin
0A86  CFEAF001  	MOVFF FSR0H,  Int1Context
0A8A  CFE9F002  	MOVFF FSR0L,  Int1Context+D'1'
0A8E  CFF4F003  	MOVFF PRODH,  Int1Context+D'2'
0A92  CFF3F004  	MOVFF PRODL,  Int1Context+D'3'
0A96  C004FFF3  	MOVFF Int1Context+D'3',  PRODL
0A9A  C003FFF4  	MOVFF Int1Context+D'2',  PRODH
0A9E  C002FFE9  	MOVFF Int1Context+D'1',  FSR0L
0AA2  C001FFEA  	MOVFF Int1Context,  FSR0H
0AA6  0011      	RETFIE 1
0AA8            ; } interrupt function end

	ORG 0x00300000
300000  32FF      	DW 0x32FF
300002  FEF9      	DW 0xFEF9
300004  FBFF      	DW 0xFBFF
300006  FFBA      	DW 0xFFBA
300008  FFFF      	DW 0xFFFF
30000A  FFFF      	DW 0xFFFF
30000C  FFFF      	DW 0xFFFF
