;/////////////////////////////////////////////////////////////////////////////////
;// Code Generator: BoostC Compiler - http://www.sourceboost.com
;// Version       : 7.20
;// License Type  : Pro License
;// Limitations   : PIC18 max code size:Unlimited, max RAM banks:Unlimited
;/////////////////////////////////////////////////////////////////////////////////

	ORG 0x00000000
0000  EF11F00D  	GOTO	_startup
	ORG 0x00000008
0008  EF89F00D  	GOTO	interrupt
	ORG 0x0000000C
000C            delay_ms_00000
000C            ; { delay_ms ; function begin
000C  532F      	MOVF delay_ms_00000_arg_del, F, 1
000E  0000      	NOP
0010  E101      	BNZ	label1
0012  0012      	RETURN
0014            label1
0014  0EF5      	MOVLW 0xF5
0016            label2
0016  0000      	NOP
0018  0000      	NOP
001A  0000      	NOP
001C  0000      	NOP
001E  0000      	NOP
0020  0000      	NOP
0022  0000      	NOP
0024  0000      	NOP
0026  0000      	NOP
0028  0000      	NOP
002A  0000      	NOP
002C  0000      	NOP
002E  0000      	NOP
0030  0000      	NOP
0032  0000      	NOP
0034  0000      	NOP
0036  0FFF      	ADDLW 0xFF
0038  A4D8      	BTFSS STATUS,Z
003A  D7ED      	BRA	label2
003C  0000      	NOP
003E  0000      	NOP
0040  0000      	NOP
0042  0000      	NOP
0044  0000      	NOP
0046  0000      	NOP
0048  0000      	NOP
004A  0000      	NOP
004C  0000      	NOP
004E  0000      	NOP
0050  0000      	NOP
0052  0000      	NOP
0054  0000      	NOP
0056  2F2F      	DECFSZ delay_ms_00000_arg_del, F, 1
0058  D7DD      	BRA	label1
005A  0012      	RETURN
005C            ; } delay_ms function end

	ORG 0x0000005C
005C            delay_us_00000
005C            ; { delay_us ; function begin
005C            label3
005C  0000      	NOP
005E  0000      	NOP
0060  2F2C      	DECFSZ delay_us_00000_arg_del, F, 1
0062  D7FC      	BRA	label3
0064  0012      	RETURN
0066            ; } delay_us function end

	ORG 0x00000066
0066            delay_s_00000
0066            ; { delay_s ; function begin
0066            label4
0066  0EFA      	MOVLW 0xFA
0068  6F2F      	MOVWF delay_ms_00000_arg_del, 1
006A  EC06F000  	CALL delay_ms_00000
006E  0EFA      	MOVLW 0xFA
0070  6F2F      	MOVWF delay_ms_00000_arg_del, 1
0072  EC06F000  	CALL delay_ms_00000
0076  0EFA      	MOVLW 0xFA
0078  6F2F      	MOVWF delay_ms_00000_arg_del, 1
007A  EC06F000  	CALL delay_ms_00000
007E  0EFA      	MOVLW 0xFA
0080  6F2F      	MOVWF delay_ms_00000_arg_del, 1
0082  EC06F000  	CALL delay_ms_00000
0086  2F2C      	DECFSZ delay_s_00000_arg_del, F, 1
0088  D7EE      	BRA	label4
008A  0012      	RETURN
008C            ; } delay_s function end

	ORG 0x0000008C
008C            FC_CAL_UAR_00091
008C            ; { FC_CAL_UART_Send_1 ; function begin
008C            label5
008C  0E10      	MOVLW 0x10
008E  149E      	ANDWF gbl_pir1, W
0090  6F72      	MOVWF CompTempVar2904, 1
0092  5372      	MOVF CompTempVar2904, F, 1
0094  E0FB      	BZ	label5
0096  5170      	MOVF FC_CAL_UAR_00091_arg_nChar, W, 1
0098  6EAD      	MOVWF gbl_txreg
009A  0012      	RETURN
009C            ; } FC_CAL_UART_Send_1 function end

	ORG 0x0000009C
009C            FC_CAL_UAR_00090
009C            ; { FC_CAL_UART_Receive_1 ; function begin
009C  6971      	SETF FC_CAL_UAR_00090_1_retVal, 1
009E  6B72      	CLRF FC_CAL_UAR_00090_1_delay1, 1
00A0  6B73      	CLRF FC_CAL_UAR_00090_1_regcheck, 1
00A2  6B74      	CLRF FC_CAL_UAR_00090_1_bWaitForever, 1
00A4  6B75      	CLRF FC_CAL_UAR_00090_1_rxStatus, 1
00A6  6B78      	CLRF FC_CAL_UAR_00090_1_dummy, 1
00A8  2970      	INCF FC_CAL_UAR_00090_arg_nTimeout, W, 1
00AA  E102      	BNZ	label6
00AC  0E01      	MOVLW 0x01
00AE  6F74      	MOVWF FC_CAL_UAR_00090_1_bWaitForever, 1
00B0            label6
00B0  5375      	MOVF FC_CAL_UAR_00090_1_rxStatus, F, 1
00B2  E124      	BNZ	label11
00B4  5374      	MOVF FC_CAL_UAR_00090_1_bWaitForever, F, 1
00B6  E118      	BNZ	label10
00B8  5370      	MOVF FC_CAL_UAR_00090_arg_nTimeout, F, 1
00BA  E103      	BNZ	label7
00BC  0E01      	MOVLW 0x01
00BE  6F75      	MOVWF FC_CAL_UAR_00090_1_rxStatus, 1
00C0  D013      	BRA	label10
00C2            label7
00C2  6B76      	CLRF FC_CAL_UAR_00090_1_delaycnt, 1
00C4  6B77      	CLRF FC_CAL_UAR_00090_1_delaycnt+D'1', 1
00C6            label8
00C6  0E31      	MOVLW 0x31
00C8  5D76      	SUBWF FC_CAL_UAR_00090_1_delaycnt, W, 1
00CA  E205      	BC	label9
00CC  6777      	TSTFSZ FC_CAL_UAR_00090_1_delaycnt+D'1', 1
00CE  D003      	BRA	label9
00D0  4B76      	INFSNZ FC_CAL_UAR_00090_1_delaycnt, F, 1
00D2  2B77      	INCF FC_CAL_UAR_00090_1_delaycnt+D'1', F, 1
00D4  D7F8      	BRA	label8
00D6            label9
00D6  2972      	INCF FC_CAL_UAR_00090_1_delay1, W, 1
00D8  6F72      	MOVWF FC_CAL_UAR_00090_1_delay1, 1
00DA  0E64      	MOVLW 0x64
00DC  6372      	CPFSEQ FC_CAL_UAR_00090_1_delay1, 1
00DE  D004      	BRA	label10
00E0  0570      	DECF FC_CAL_UAR_00090_arg_nTimeout, W, 1
00E2  6F70      	MOVWF FC_CAL_UAR_00090_arg_nTimeout, 1
00E4  0004      	CLRWDT
00E6  6B72      	CLRF FC_CAL_UAR_00090_1_delay1, 1
00E8            label10
00E8  0E20      	MOVLW 0x20
00EA  149E      	ANDWF gbl_pir1, W
00EC  6F79      	MOVWF CompTempVar2901, 1
00EE  5179      	MOVF CompTempVar2901, W, 1
00F0  6F73      	MOVWF FC_CAL_UAR_00090_1_regcheck, 1
00F2  5373      	MOVF FC_CAL_UAR_00090_1_regcheck, F, 1
00F4  E0DD      	BZ	label6
00F6  0E02      	MOVLW 0x02
00F8  6F75      	MOVWF FC_CAL_UAR_00090_1_rxStatus, 1
00FA  D7DA      	BRA	label6
00FC            label11
00FC  0E02      	MOVLW 0x02
00FE  6375      	CPFSEQ FC_CAL_UAR_00090_1_rxStatus, 1
0100  D018      	BRA	label14
0102  0E04      	MOVLW 0x04
0104  14AB      	ANDWF gbl_rcsta, W
0106  6F79      	MOVWF CompTempVar2902, 1
0108  5179      	MOVF CompTempVar2902, W, 1
010A  6F73      	MOVWF FC_CAL_UAR_00090_1_regcheck, 1
010C  5373      	MOVF FC_CAL_UAR_00090_1_regcheck, F, 1
010E  E003      	BZ	label12
0110  50AE      	MOVF gbl_rcreg, W
0112  6F78      	MOVWF FC_CAL_UAR_00090_1_dummy, 1
0114  D00E      	BRA	label14
0116            label12
0116  0E02      	MOVLW 0x02
0118  14AB      	ANDWF gbl_rcsta, W
011A  6F79      	MOVWF CompTempVar2903, 1
011C  5179      	MOVF CompTempVar2903, W, 1
011E  6F73      	MOVWF FC_CAL_UAR_00090_1_regcheck, 1
0120  5373      	MOVF FC_CAL_UAR_00090_1_regcheck, F, 1
0122  E003      	BZ	label13
0124  98AB      	BCF gbl_rcsta,4
0126  88AB      	BSF gbl_rcsta,4
0128  D004      	BRA	label14
012A            label13
012A  6B71      	CLRF FC_CAL_UAR_00090_1_retVal, 1
012C  50AE      	MOVF gbl_rcreg, W
012E  1171      	IORWF FC_CAL_UAR_00090_1_retVal, W, 1
0130  6F71      	MOVWF FC_CAL_UAR_00090_1_retVal, 1
0132            label14
0132  5171      	MOVF FC_CAL_UAR_00090_1_retVal, W, 1
0134  6F79      	MOVWF CompTempVarRet2900, 1
0136  6B7A      	CLRF CompTempVarRet2900+D'1', 1
0138  0012      	RETURN
013A            ; } FC_CAL_UART_Receive_1 function end

	ORG 0x0000013A
013A            FCD_0f051__0007F
013A            ; { FCD_0f051_gLCD_EB076_4D1__DrawRectangle ; function begin
013A  5342      	MOVF FCD_0f051__0007F_arg_FCL_T_00080, F, 1
013C  E14D      	BNZ	label15
013E  5343      	MOVF FCD_0f051__0007F_arg_FCL_SOLID, F, 1
0140  E14B      	BNZ	label15
0142  0E70      	MOVLW 0x70
0144  6F70      	MOVWF FC_CAL_UAR_00091_arg_nChar, 1
0146  6B71      	CLRF FC_CAL_UAR_00091_arg_nChar+D'1', 1
0148  EC46F000  	CALL FC_CAL_UAR_00091
014C  6B70      	CLRF FC_CAL_UAR_00091_arg_nChar, 1
014E  6B71      	CLRF FC_CAL_UAR_00091_arg_nChar+D'1', 1
0150  EC46F000  	CALL FC_CAL_UAR_00091
0154  6970      	SETF FC_CAL_UAR_00090_arg_nTimeout, 1
0156  EC4EF000  	CALL FC_CAL_UAR_00090
015A  0E72      	MOVLW 0x72
015C  6F70      	MOVWF FC_CAL_UAR_00091_arg_nChar, 1
015E  6B71      	CLRF FC_CAL_UAR_00091_arg_nChar+D'1', 1
0160  EC46F000  	CALL FC_CAL_UAR_00091
0164  513B      	MOVF FCD_0f051__0007F_arg_FCL_X1+D'1', W, 1
0166  6F70      	MOVWF FC_CAL_UAR_00091_arg_nChar, 1
0168  6B71      	CLRF FC_CAL_UAR_00091_arg_nChar+D'1', 1
016A  EC46F000  	CALL FC_CAL_UAR_00091
016E  513A      	MOVF FCD_0f051__0007F_arg_FCL_X1, W, 1
0170  6F70      	MOVWF FC_CAL_UAR_00091_arg_nChar, 1
0172  513B      	MOVF FCD_0f051__0007F_arg_FCL_X1+D'1', W, 1
0174  6F71      	MOVWF FC_CAL_UAR_00091_arg_nChar+D'1', 1
0176  EC46F000  	CALL FC_CAL_UAR_00091
017A  513D      	MOVF FCD_0f051__0007F_arg_FCL_Y1+D'1', W, 1
017C  6F70      	MOVWF FC_CAL_UAR_00091_arg_nChar, 1
017E  6B71      	CLRF FC_CAL_UAR_00091_arg_nChar+D'1', 1
0180  EC46F000  	CALL FC_CAL_UAR_00091
0184  513C      	MOVF FCD_0f051__0007F_arg_FCL_Y1, W, 1
0186  6F70      	MOVWF FC_CAL_UAR_00091_arg_nChar, 1
0188  513D      	MOVF FCD_0f051__0007F_arg_FCL_Y1+D'1', W, 1
018A  6F71      	MOVWF FC_CAL_UAR_00091_arg_nChar+D'1', 1
018C  EC46F000  	CALL FC_CAL_UAR_00091
0190  513F      	MOVF FCD_0f051__0007F_arg_FCL_X2+D'1', W, 1
0192  6F70      	MOVWF FC_CAL_UAR_00091_arg_nChar, 1
0194  6B71      	CLRF FC_CAL_UAR_00091_arg_nChar+D'1', 1
0196  EC46F000  	CALL FC_CAL_UAR_00091
019A  513E      	MOVF FCD_0f051__0007F_arg_FCL_X2, W, 1
019C  6F70      	MOVWF FC_CAL_UAR_00091_arg_nChar, 1
019E  513F      	MOVF FCD_0f051__0007F_arg_FCL_X2+D'1', W, 1
01A0  6F71      	MOVWF FC_CAL_UAR_00091_arg_nChar+D'1', 1
01A2  EC46F000  	CALL FC_CAL_UAR_00091
01A6  5141      	MOVF FCD_0f051__0007F_arg_FCL_Y2+D'1', W, 1
01A8  6F70      	MOVWF FC_CAL_UAR_00091_arg_nChar, 1
01AA  6B71      	CLRF FC_CAL_UAR_00091_arg_nChar+D'1', 1
01AC  EC46F000  	CALL FC_CAL_UAR_00091
01B0  5140      	MOVF FCD_0f051__0007F_arg_FCL_Y2, W, 1
01B2  6F70      	MOVWF FC_CAL_UAR_00091_arg_nChar, 1
01B4  5141      	MOVF FCD_0f051__0007F_arg_FCL_Y2+D'1', W, 1
01B6  6F71      	MOVWF FC_CAL_UAR_00091_arg_nChar+D'1', 1
01B8  EC46F000  	CALL FC_CAL_UAR_00091
01BC  5103      	MOVF gbl_FCV_0f051_gLCD_EB076_4_0000C+D'1', W, 1
01BE  6F70      	MOVWF FC_CAL_UAR_00091_arg_nChar, 1
01C0  6B71      	CLRF FC_CAL_UAR_00091_arg_nChar+D'1', 1
01C2  EC46F000  	CALL FC_CAL_UAR_00091
01C6  5102      	MOVF gbl_FCV_0f051_gLCD_EB076_4_0000C, W, 1
01C8  6F70      	MOVWF FC_CAL_UAR_00091_arg_nChar, 1
01CA  5103      	MOVF gbl_FCV_0f051_gLCD_EB076_4_0000C+D'1', W, 1
01CC  6F71      	MOVWF FC_CAL_UAR_00091_arg_nChar+D'1', 1
01CE  EC46F000  	CALL FC_CAL_UAR_00091
01D2  6970      	SETF FC_CAL_UAR_00090_arg_nTimeout, 1
01D4  EC4EF000  	CALL FC_CAL_UAR_00090
01D8            label15
01D8  0E70      	MOVLW 0x70
01DA  6F70      	MOVWF FC_CAL_UAR_00091_arg_nChar, 1
01DC  6B71      	CLRF FC_CAL_UAR_00091_arg_nChar+D'1', 1
01DE  EC46F000  	CALL FC_CAL_UAR_00091
01E2  5343      	MOVF FCD_0f051__0007F_arg_FCL_SOLID, F, 1
01E4  E005      	BZ	label16
01E6  6B70      	CLRF FC_CAL_UAR_00091_arg_nChar, 1
01E8  6B71      	CLRF FC_CAL_UAR_00091_arg_nChar+D'1', 1
01EA  EC46F000  	CALL FC_CAL_UAR_00091
01EE  D005      	BRA	label17
01F0            label16
01F0  0E01      	MOVLW 0x01
01F2  6F70      	MOVWF FC_CAL_UAR_00091_arg_nChar, 1
01F4  6B71      	CLRF FC_CAL_UAR_00091_arg_nChar+D'1', 1
01F6  EC46F000  	CALL FC_CAL_UAR_00091
01FA            label17
01FA  6970      	SETF FC_CAL_UAR_00090_arg_nTimeout, 1
01FC  EC4EF000  	CALL FC_CAL_UAR_00090
0200  0E72      	MOVLW 0x72
0202  6F70      	MOVWF FC_CAL_UAR_00091_arg_nChar, 1
0204  6B71      	CLRF FC_CAL_UAR_00091_arg_nChar+D'1', 1
0206  EC46F000  	CALL FC_CAL_UAR_00091
020A  513B      	MOVF FCD_0f051__0007F_arg_FCL_X1+D'1', W, 1
020C  6F70      	MOVWF FC_CAL_UAR_00091_arg_nChar, 1
020E  6B71      	CLRF FC_CAL_UAR_00091_arg_nChar+D'1', 1
0210  EC46F000  	CALL FC_CAL_UAR_00091
0214  513A      	MOVF FCD_0f051__0007F_arg_FCL_X1, W, 1
0216  6F70      	MOVWF FC_CAL_UAR_00091_arg_nChar, 1
0218  513B      	MOVF FCD_0f051__0007F_arg_FCL_X1+D'1', W, 1
021A  6F71      	MOVWF FC_CAL_UAR_00091_arg_nChar+D'1', 1
021C  EC46F000  	CALL FC_CAL_UAR_00091
0220  513D      	MOVF FCD_0f051__0007F_arg_FCL_Y1+D'1', W, 1
0222  6F70      	MOVWF FC_CAL_UAR_00091_arg_nChar, 1
0224  6B71      	CLRF FC_CAL_UAR_00091_arg_nChar+D'1', 1
0226  EC46F000  	CALL FC_CAL_UAR_00091
022A  513C      	MOVF FCD_0f051__0007F_arg_FCL_Y1, W, 1
022C  6F70      	MOVWF FC_CAL_UAR_00091_arg_nChar, 1
022E  513D      	MOVF FCD_0f051__0007F_arg_FCL_Y1+D'1', W, 1
0230  6F71      	MOVWF FC_CAL_UAR_00091_arg_nChar+D'1', 1
0232  EC46F000  	CALL FC_CAL_UAR_00091
0236  513F      	MOVF FCD_0f051__0007F_arg_FCL_X2+D'1', W, 1
0238  6F70      	MOVWF FC_CAL_UAR_00091_arg_nChar, 1
023A  6B71      	CLRF FC_CAL_UAR_00091_arg_nChar+D'1', 1
023C  EC46F000  	CALL FC_CAL_UAR_00091
0240  513E      	MOVF FCD_0f051__0007F_arg_FCL_X2, W, 1
0242  6F70      	MOVWF FC_CAL_UAR_00091_arg_nChar, 1
0244  513F      	MOVF FCD_0f051__0007F_arg_FCL_X2+D'1', W, 1
0246  6F71      	MOVWF FC_CAL_UAR_00091_arg_nChar+D'1', 1
0248  EC46F000  	CALL FC_CAL_UAR_00091
024C  5141      	MOVF FCD_0f051__0007F_arg_FCL_Y2+D'1', W, 1
024E  6F70      	MOVWF FC_CAL_UAR_00091_arg_nChar, 1
0250  6B71      	CLRF FC_CAL_UAR_00091_arg_nChar+D'1', 1
0252  EC46F000  	CALL FC_CAL_UAR_00091
0256  5140      	MOVF FCD_0f051__0007F_arg_FCL_Y2, W, 1
0258  6F70      	MOVWF FC_CAL_UAR_00091_arg_nChar, 1
025A  5141      	MOVF FCD_0f051__0007F_arg_FCL_Y2+D'1', W, 1
025C  6F71      	MOVWF FC_CAL_UAR_00091_arg_nChar+D'1', 1
025E  EC46F000  	CALL FC_CAL_UAR_00091
0262  5105      	MOVF gbl_FCV_0f051_gLCD_EB076_4_0000D+D'1', W, 1
0264  6F70      	MOVWF FC_CAL_UAR_00091_arg_nChar, 1
0266  6B71      	CLRF FC_CAL_UAR_00091_arg_nChar+D'1', 1
0268  EC46F000  	CALL FC_CAL_UAR_00091
026C  5104      	MOVF gbl_FCV_0f051_gLCD_EB076_4_0000D, W, 1
026E  6F70      	MOVWF FC_CAL_UAR_00091_arg_nChar, 1
0270  5105      	MOVF gbl_FCV_0f051_gLCD_EB076_4_0000D+D'1', W, 1
0272  6F71      	MOVWF FC_CAL_UAR_00091_arg_nChar+D'1', 1
0274  EC46F000  	CALL FC_CAL_UAR_00091
0278  6970      	SETF FC_CAL_UAR_00090_arg_nTimeout, 1
027A  EC4EF000  	CALL FC_CAL_UAR_00090
027E  0012      	RETURN
0280            ; } FCD_0f051_gLCD_EB076_4D1__DrawRectangle function end

	ORG 0x00000280
0280            FCD_0f051__00073
0280            ; { FCD_0f051_gLCD_EB076_4D1__SetForegroundColour ; function begin
0280  333A      	RRCF FCD_0f051__00073_arg_FCL_RED, F, 1
0282  333A      	RRCF FCD_0f051__00073_arg_FCL_RED, F, 1
0284  333A      	RRCF FCD_0f051__00073_arg_FCL_RED, F, 1
0286  0E1F      	MOVLW 0x1F
0288  173A      	ANDWF FCD_0f051__00073_arg_FCL_RED, F, 1
028A  333B      	RRCF FCD_0f051__00073_arg_FCL_GREEN, F, 1
028C  333B      	RRCF FCD_0f051__00073_arg_FCL_GREEN, F, 1
028E  0E3F      	MOVLW 0x3F
0290  173B      	ANDWF FCD_0f051__00073_arg_FCL_GREEN, F, 1
0292  333C      	RRCF FCD_0f051__00073_arg_FCL_BLUE, F, 1
0294  333C      	RRCF FCD_0f051__00073_arg_FCL_BLUE, F, 1
0296  333C      	RRCF FCD_0f051__00073_arg_FCL_BLUE, F, 1
0298  0E1F      	MOVLW 0x1F
029A  173C      	ANDWF FCD_0f051__00073_arg_FCL_BLUE, F, 1
029C  513B      	MOVF FCD_0f051__00073_arg_FCL_GREEN, W, 1
029E  6F3D      	MOVWF CompTempVar2754, 1
02A0  6B05      	CLRF gbl_FCV_0f051_gLCD_EB076_4_0000D+D'1', 1
02A2  373D      	RLCF CompTempVar2754, F, 1
02A4  3705      	RLCF gbl_FCV_0f051_gLCD_EB076_4_0000D+D'1', F, 1
02A6  373D      	RLCF CompTempVar2754, F, 1
02A8  3705      	RLCF gbl_FCV_0f051_gLCD_EB076_4_0000D+D'1', F, 1
02AA  373D      	RLCF CompTempVar2754, F, 1
02AC  3705      	RLCF gbl_FCV_0f051_gLCD_EB076_4_0000D+D'1', F, 1
02AE  373D      	RLCF CompTempVar2754, F, 1
02B0  3705      	RLCF gbl_FCV_0f051_gLCD_EB076_4_0000D+D'1', F, 1
02B2  373D      	RLCF CompTempVar2754, F, 1
02B4  3705      	RLCF gbl_FCV_0f051_gLCD_EB076_4_0000D+D'1', F, 1
02B6  0EE0      	MOVLW 0xE0
02B8  173D      	ANDWF CompTempVar2754, F, 1
02BA  513D      	MOVF CompTempVar2754, W, 1
02BC  113C      	IORWF FCD_0f051__00073_arg_FCL_BLUE, W, 1
02BE  6F04      	MOVWF gbl_FCV_0f051_gLCD_EB076_4_0000D, 1
02C0  6B3D      	CLRF CompTempVar2758, 1
02C2  513A      	MOVF FCD_0f051__00073_arg_FCL_RED, W, 1
02C4  6F3E      	MOVWF CompTempVar2759, 1
02C6  90D8      	BCF STATUS,C
02C8  373E      	RLCF CompTempVar2759, F, 1
02CA  90D8      	BCF STATUS,C
02CC  373E      	RLCF CompTempVar2759, F, 1
02CE  90D8      	BCF STATUS,C
02D0  373E      	RLCF CompTempVar2759, F, 1
02D2  513D      	MOVF CompTempVar2758, W, 1
02D4  1304      	IORWF gbl_FCV_0f051_gLCD_EB076_4_0000D, F, 1
02D6  513E      	MOVF CompTempVar2759, W, 1
02D8  1305      	IORWF gbl_FCV_0f051_gLCD_EB076_4_0000D+D'1', F, 1
02DA  0012      	RETURN
02DC            ; } FCD_0f051_gLCD_EB076_4D1__SetForegroundColour function end

	ORG 0x000002DC
02DC            FCM_parame_00065
02DC            ; { FCM_parametres_bateau ; function begin
02DC  5137      	MOVF FCM_parame_00065_arg_FCL_ROUGE, W, 1
02DE  6F3A      	MOVWF FCD_0f051__00073_arg_FCL_RED, 1
02E0  5138      	MOVF FCM_parame_00065_arg_FCL_VERT, W, 1
02E2  6F3B      	MOVWF FCD_0f051__00073_arg_FCL_GREEN, 1
02E4  5139      	MOVF FCM_parame_00065_arg_FCL_BLEU, W, 1
02E6  6F3C      	MOVWF FCD_0f051__00073_arg_FCL_BLUE, 1
02E8  EC40F001  	CALL FCD_0f051__00073
02EC  512F      	MOVF FCM_parame_00065_arg_FCL_POS_X1, W, 1
02EE  6F3A      	MOVWF FCD_0f051__0007F_arg_FCL_X1, 1
02F0  5130      	MOVF FCM_parame_00065_arg_FCL_POS_X1+D'1', W, 1
02F2  6F3B      	MOVWF FCD_0f051__0007F_arg_FCL_X1+D'1', 1
02F4  5133      	MOVF FCM_parame_00065_arg_FCL_POS_Y1, W, 1
02F6  6F3C      	MOVWF FCD_0f051__0007F_arg_FCL_Y1, 1
02F8  5134      	MOVF FCM_parame_00065_arg_FCL_POS_Y1+D'1', W, 1
02FA  6F3D      	MOVWF FCD_0f051__0007F_arg_FCL_Y1+D'1', 1
02FC  5131      	MOVF FCM_parame_00065_arg_FCL_POS_X2, W, 1
02FE  6F3E      	MOVWF FCD_0f051__0007F_arg_FCL_X2, 1
0300  5132      	MOVF FCM_parame_00065_arg_FCL_POS_X2+D'1', W, 1
0302  6F3F      	MOVWF FCD_0f051__0007F_arg_FCL_X2+D'1', 1
0304  5135      	MOVF FCM_parame_00065_arg_FCL_POS_Y2, W, 1
0306  6F40      	MOVWF FCD_0f051__0007F_arg_FCL_Y2, 1
0308  5136      	MOVF FCM_parame_00065_arg_FCL_POS_Y2+D'1', W, 1
030A  6F41      	MOVWF FCD_0f051__0007F_arg_FCL_Y2+D'1', 1
030C  6B42      	CLRF FCD_0f051__0007F_arg_FCL_T_00080, 1
030E  0E01      	MOVLW 0x01
0310  6F43      	MOVWF FCD_0f051__0007F_arg_FCL_SOLID, 1
0312  EC9DF000  	CALL FCD_0f051__0007F
0316  0012      	RETURN
0318            ; } FCM_parametres_bateau function end

	ORG 0x00000318
0318            FCI_GETLEN_0004B
0318            ; { FCI_GETLENGTH ; function begin
0318  6B73      	CLRF FCI_GETLEN_0004B_1_tmp, 1
031A            label18
031A  5172      	MOVF FCI_GETLEN_0004B_arg_iStr1_len, W, 1
031C  6173      	CPFSLT FCI_GETLEN_0004B_1_tmp, 1
031E  D009      	BRA	label19
0320  5171      	MOVF FCI_GETLEN_0004B_arg_sStr1+D'1', W, 1
0322  6EEA      	MOVWF FSR0H
0324  5170      	MOVF FCI_GETLEN_0004B_arg_sStr1, W, 1
0326  2573      	ADDWF FCI_GETLEN_0004B_1_tmp, W, 1
0328  6EE9      	MOVWF FSR0L
032A  52EF      	MOVF INDF0, F
032C  E002      	BZ	label19
032E  2B73      	INCF FCI_GETLEN_0004B_1_tmp, F, 1
0330  D7F4      	BRA	label18
0332            label19
0332  5173      	MOVF FCI_GETLEN_0004B_1_tmp, W, 1
0334  6F74      	MOVWF CompTempVarRet1850, 1
0336  0012      	RETURN
0338            ; } FCI_GETLENGTH function end

	ORG 0x00000338
0338            FCM_affich_0007D
0338            ; { FCM_affichage_bateau ; function begin
0338  0100      	MOVLB 0x00
033A  51F3      	MOVF gbl_FCV_X, W, 1
033C  0101      	MOVLB 0x01
033E  6F2F      	MOVWF FCM_parame_00065_arg_FCL_POS_X1, 1
0340  0100      	MOVLB 0x00
0342  51F4      	MOVF gbl_FCV_X+D'1', W, 1
0344  0101      	MOVLB 0x01
0346  6F30      	MOVWF FCM_parame_00065_arg_FCL_POS_X1+D'1', 1
0348  0E18      	MOVLW 0x18
034A  0100      	MOVLB 0x00
034C  5DF3      	SUBWF gbl_FCV_X, W, 1
034E  0101      	MOVLB 0x01
0350  6F31      	MOVWF FCM_parame_00065_arg_FCL_POS_X2, 1
0352  0100      	MOVLB 0x00
0354  59F3      	SUBWFB gbl_FCV_X, W, 1
0356  0818      	SUBLW 0x18
0358  5DF4      	SUBWF gbl_FCV_X+D'1', W, 1
035A  0101      	MOVLB 0x01
035C  6F32      	MOVWF FCM_parame_00065_arg_FCL_POS_X2+D'1', 1
035E  0100      	MOVLB 0x00
0360  51F1      	MOVF gbl_FCV_Y, W, 1
0362  0101      	MOVLB 0x01
0364  6F33      	MOVWF FCM_parame_00065_arg_FCL_POS_Y1, 1
0366  0100      	MOVLB 0x00
0368  51F2      	MOVF gbl_FCV_Y+D'1', W, 1
036A  0101      	MOVLB 0x01
036C  6F34      	MOVWF FCM_parame_00065_arg_FCL_POS_Y1+D'1', 1
036E  0E18      	MOVLW 0x18
0370  0100      	MOVLB 0x00
0372  5DF1      	SUBWF gbl_FCV_Y, W, 1
0374  0101      	MOVLB 0x01
0376  6F35      	MOVWF FCM_parame_00065_arg_FCL_POS_Y2, 1
0378  0100      	MOVLB 0x00
037A  59F1      	SUBWFB gbl_FCV_Y, W, 1
037C  0818      	SUBLW 0x18
037E  5DF2      	SUBWF gbl_FCV_Y+D'1', W, 1
0380  0101      	MOVLB 0x01
0382  6F36      	MOVWF FCM_parame_00065_arg_FCL_POS_Y2+D'1', 1
0384  0E46      	MOVLW 0x46
0386  6F37      	MOVWF FCM_parame_00065_arg_FCL_ROUGE, 1
0388  6F38      	MOVWF FCM_parame_00065_arg_FCL_VERT, 1
038A  6F39      	MOVWF FCM_parame_00065_arg_FCL_BLEU, 1
038C  EC6EF001  	CALL FCM_parame_00065
0390  0012      	RETURN
0392            ; } FCM_affichage_bateau function end

	ORG 0x00000392
0392            FCM_Reinit_00071
0392            ; { FCM_Reinitialisation_texte ; function begin
0392  0101      	MOVLB 0x01
0394  693A      	SETF FCD_0f051__00073_arg_FCL_RED, 1
0396  693B      	SETF FCD_0f051__00073_arg_FCL_GREEN, 1
0398  693C      	SETF FCD_0f051__00073_arg_FCL_BLUE, 1
039A  EC40F001  	CALL FCD_0f051__00073
039E  6B3A      	CLRF FCD_0f051__0007F_arg_FCL_X1, 1
03A0  6B3B      	CLRF FCD_0f051__0007F_arg_FCL_X1+D'1', 1
03A2  0EF1      	MOVLW 0xF1
03A4  6F3C      	MOVWF FCD_0f051__0007F_arg_FCL_Y1, 1
03A6  6B3D      	CLRF FCD_0f051__0007F_arg_FCL_Y1+D'1', 1
03A8  0EF0      	MOVLW 0xF0
03AA  6F3E      	MOVWF FCD_0f051__0007F_arg_FCL_X2, 1
03AC  6B3F      	CLRF FCD_0f051__0007F_arg_FCL_X2+D'1', 1
03AE  0E40      	MOVLW 0x40
03B0  6F40      	MOVWF FCD_0f051__0007F_arg_FCL_Y2, 1
03B2  0E01      	MOVLW 0x01
03B4  6F41      	MOVWF FCD_0f051__0007F_arg_FCL_Y2+D'1', 1
03B6  6F42      	MOVWF FCD_0f051__0007F_arg_FCL_T_00080, 1
03B8  6F43      	MOVWF FCD_0f051__0007F_arg_FCL_SOLID, 1
03BA  EC9DF000  	CALL FCD_0f051__0007F
03BE  6B3A      	CLRF FCD_0f051__00073_arg_FCL_RED, 1
03C0  6B3B      	CLRF FCD_0f051__00073_arg_FCL_GREEN, 1
03C2  6B3C      	CLRF FCD_0f051__00073_arg_FCL_BLUE, 1
03C4  EC40F001  	CALL FCD_0f051__00073
03C8  0012      	RETURN
03CA            ; } FCM_Reinitialisation_texte function end

	ORG 0x000003CA
03CA            FCD_0f051__00084
03CA            ; { FCD_0f051_gLCD_EB076_4D1__G4D_GetTouchCoordinatesPicaso ; function begin
03CA  0E6F      	MOVLW 0x6F
03CC  0101      	MOVLB 0x01
03CE  6F70      	MOVWF FC_CAL_UAR_00091_arg_nChar, 1
03D0  6B71      	CLRF FC_CAL_UAR_00091_arg_nChar+D'1', 1
03D2  EC46F000  	CALL FC_CAL_UAR_00091
03D6  0E04      	MOVLW 0x04
03D8  6F70      	MOVWF FC_CAL_UAR_00091_arg_nChar, 1
03DA  6B71      	CLRF FC_CAL_UAR_00091_arg_nChar+D'1', 1
03DC  EC46F000  	CALL FC_CAL_UAR_00091
03E0  6970      	SETF FC_CAL_UAR_00090_arg_nTimeout, 1
03E2  EC4EF000  	CALL FC_CAL_UAR_00090
03E6  6970      	SETF FC_CAL_UAR_00090_arg_nTimeout, 1
03E8  EC4EF000  	CALL FC_CAL_UAR_00090
03EC  5179      	MOVF CompTempVarRet2900, W, 1
03EE  6F30      	MOVWF FCD_0f051__00084_1_FCR_RETVAL, 1
03F0  6970      	SETF FC_CAL_UAR_00090_arg_nTimeout, 1
03F2  EC4EF000  	CALL FC_CAL_UAR_00090
03F6  6970      	SETF FC_CAL_UAR_00090_arg_nTimeout, 1
03F8  EC4EF000  	CALL FC_CAL_UAR_00090
03FC  5330      	MOVF FCD_0f051__00084_1_FCR_RETVAL, F, 1
03FE  E032      	BZ	label20
0400  0E6F      	MOVLW 0x6F
0402  6F70      	MOVWF FC_CAL_UAR_00091_arg_nChar, 1
0404  6B71      	CLRF FC_CAL_UAR_00091_arg_nChar+D'1', 1
0406  EC46F000  	CALL FC_CAL_UAR_00091
040A  0E05      	MOVLW 0x05
040C  6F70      	MOVWF FC_CAL_UAR_00091_arg_nChar, 1
040E  6B71      	CLRF FC_CAL_UAR_00091_arg_nChar+D'1', 1
0410  EC46F000  	CALL FC_CAL_UAR_00091
0414  6970      	SETF FC_CAL_UAR_00090_arg_nTimeout, 1
0416  EC4EF000  	CALL FC_CAL_UAR_00090
041A  5179      	MOVF CompTempVarRet2900, W, 1
041C  6F08      	MOVWF gbl_FCV_0f051_gLCD_EB076_4_0000F, 1
041E  517A      	MOVF CompTempVarRet2900+D'1', W, 1
0420  6F09      	MOVWF gbl_FCV_0f051_gLCD_EB076_4_0000F+D'1', 1
0422  6970      	SETF FC_CAL_UAR_00090_arg_nTimeout, 1
0424  EC4EF000  	CALL FC_CAL_UAR_00090
0428  5179      	MOVF CompTempVarRet2900, W, 1
042A  6F2F      	MOVWF FCD_0f051__00084_1_FCL_TEMP, 1
042C  6B31      	CLRF CompTempVar2823, 1
042E  5108      	MOVF gbl_FCV_0f051_gLCD_EB076_4_0000F, W, 1
0430  6F09      	MOVWF gbl_FCV_0f051_gLCD_EB076_4_0000F+D'1', 1
0432  5131      	MOVF CompTempVar2823, W, 1
0434  6F08      	MOVWF gbl_FCV_0f051_gLCD_EB076_4_0000F, 1
0436  512F      	MOVF FCD_0f051__00084_1_FCL_TEMP, W, 1
0438  1308      	IORWF gbl_FCV_0f051_gLCD_EB076_4_0000F, F, 1
043A  5309      	MOVF gbl_FCV_0f051_gLCD_EB076_4_0000F+D'1', F, 1
043C  6970      	SETF FC_CAL_UAR_00090_arg_nTimeout, 1
043E  EC4EF000  	CALL FC_CAL_UAR_00090
0442  5179      	MOVF CompTempVarRet2900, W, 1
0444  6F06      	MOVWF gbl_FCV_0f051_gLCD_EB076_4_0000E, 1
0446  517A      	MOVF CompTempVarRet2900+D'1', W, 1
0448  6F07      	MOVWF gbl_FCV_0f051_gLCD_EB076_4_0000E+D'1', 1
044A  6970      	SETF FC_CAL_UAR_00090_arg_nTimeout, 1
044C  EC4EF000  	CALL FC_CAL_UAR_00090
0450  5179      	MOVF CompTempVarRet2900, W, 1
0452  6F2F      	MOVWF FCD_0f051__00084_1_FCL_TEMP, 1
0454  6B31      	CLRF CompTempVar2827, 1
0456  5106      	MOVF gbl_FCV_0f051_gLCD_EB076_4_0000E, W, 1
0458  6F07      	MOVWF gbl_FCV_0f051_gLCD_EB076_4_0000E+D'1', 1
045A  5131      	MOVF CompTempVar2827, W, 1
045C  6F06      	MOVWF gbl_FCV_0f051_gLCD_EB076_4_0000E, 1
045E  512F      	MOVF FCD_0f051__00084_1_FCL_TEMP, W, 1
0460  1306      	IORWF gbl_FCV_0f051_gLCD_EB076_4_0000E, F, 1
0462  5307      	MOVF gbl_FCV_0f051_gLCD_EB076_4_0000E+D'1', F, 1
0464            label20
0464  5130      	MOVF FCD_0f051__00084_1_FCR_RETVAL, W, 1
0466  6F31      	MOVWF CompTempVarRet2822, 1
0468  0012      	RETURN
046A            ; } FCD_0f051_gLCD_EB076_4D1__G4D_GetTouchCoordinatesPicaso function end

	ORG 0x0000046A
046A            FCD_0f051__00077
046A            ; { FCD_0f051_gLCD_EB076_4D1__G4D_EnableTouchscreenPicaso ; function begin
046A  0E59      	MOVLW 0x59
046C  0101      	MOVLB 0x01
046E  6F70      	MOVWF FC_CAL_UAR_00091_arg_nChar, 1
0470  6B71      	CLRF FC_CAL_UAR_00091_arg_nChar+D'1', 1
0472  EC46F000  	CALL FC_CAL_UAR_00091
0476  0E05      	MOVLW 0x05
0478  6F70      	MOVWF FC_CAL_UAR_00091_arg_nChar, 1
047A  6B71      	CLRF FC_CAL_UAR_00091_arg_nChar+D'1', 1
047C  EC46F000  	CALL FC_CAL_UAR_00091
0480  6B70      	CLRF FC_CAL_UAR_00091_arg_nChar, 1
0482  6B71      	CLRF FC_CAL_UAR_00091_arg_nChar+D'1', 1
0484  EC46F000  	CALL FC_CAL_UAR_00091
0488  6970      	SETF FC_CAL_UAR_00090_arg_nTimeout, 1
048A  EC4EF000  	CALL FC_CAL_UAR_00090
048E  5179      	MOVF CompTempVarRet2900, W, 1
0490  6F2F      	MOVWF FCD_0f051__00077_1_FCR_RETVAL, 1
0492  0E59      	MOVLW 0x59
0494  6F70      	MOVWF FC_CAL_UAR_00091_arg_nChar, 1
0496  6B71      	CLRF FC_CAL_UAR_00091_arg_nChar+D'1', 1
0498  EC46F000  	CALL FC_CAL_UAR_00091
049C  0E05      	MOVLW 0x05
049E  6F70      	MOVWF FC_CAL_UAR_00091_arg_nChar, 1
04A0  6B71      	CLRF FC_CAL_UAR_00091_arg_nChar+D'1', 1
04A2  EC46F000  	CALL FC_CAL_UAR_00091
04A6  0E02      	MOVLW 0x02
04A8  6F70      	MOVWF FC_CAL_UAR_00091_arg_nChar, 1
04AA  6B71      	CLRF FC_CAL_UAR_00091_arg_nChar+D'1', 1
04AC  EC46F000  	CALL FC_CAL_UAR_00091
04B0  6970      	SETF FC_CAL_UAR_00090_arg_nTimeout, 1
04B2  EC4EF000  	CALL FC_CAL_UAR_00090
04B6  5179      	MOVF CompTempVarRet2900, W, 1
04B8  6F2F      	MOVWF FCD_0f051__00077_1_FCR_RETVAL, 1
04BA  0E06      	MOVLW 0x06
04BC  632F      	CPFSEQ FCD_0f051__00077_1_FCR_RETVAL, 1
04BE  D002      	BRA	label21
04C0  6B2F      	CLRF FCD_0f051__00077_1_FCR_RETVAL, 1
04C2  D001      	BRA	label22
04C4            label21
04C4  692F      	SETF FCD_0f051__00077_1_FCR_RETVAL, 1
04C6            label22
04C6  512F      	MOVF FCD_0f051__00077_1_FCR_RETVAL, W, 1
04C8  6F30      	MOVWF CompTempVarRet2773, 1
04CA  0012      	RETURN
04CC            ; } FCD_0f051_gLCD_EB076_4D1__G4D_EnableTouchscreenPicaso function end

	ORG 0x000004CC
04CC            FCD_0f051__00076
04CC            ; { FCD_0f051_gLCD_EB076_4D1__G4D_DisableTouchscreenPicaso ; function begin
04CC  0E59      	MOVLW 0x59
04CE  0101      	MOVLB 0x01
04D0  6F70      	MOVWF FC_CAL_UAR_00091_arg_nChar, 1
04D2  6B71      	CLRF FC_CAL_UAR_00091_arg_nChar+D'1', 1
04D4  EC46F000  	CALL FC_CAL_UAR_00091
04D8  0E05      	MOVLW 0x05
04DA  6F70      	MOVWF FC_CAL_UAR_00091_arg_nChar, 1
04DC  6B71      	CLRF FC_CAL_UAR_00091_arg_nChar+D'1', 1
04DE  EC46F000  	CALL FC_CAL_UAR_00091
04E2  0E01      	MOVLW 0x01
04E4  6F70      	MOVWF FC_CAL_UAR_00091_arg_nChar, 1
04E6  6B71      	CLRF FC_CAL_UAR_00091_arg_nChar+D'1', 1
04E8  EC46F000  	CALL FC_CAL_UAR_00091
04EC  6970      	SETF FC_CAL_UAR_00090_arg_nTimeout, 1
04EE  EC4EF000  	CALL FC_CAL_UAR_00090
04F2  5179      	MOVF CompTempVarRet2900, W, 1
04F4  6F2F      	MOVWF FCD_0f051__00076_1_FCR_RETVAL, 1
04F6  0E06      	MOVLW 0x06
04F8  632F      	CPFSEQ FCD_0f051__00076_1_FCR_RETVAL, 1
04FA  D002      	BRA	label23
04FC  6B2F      	CLRF FCD_0f051__00076_1_FCR_RETVAL, 1
04FE  D001      	BRA	label24
0500            label23
0500  692F      	SETF FCD_0f051__00076_1_FCR_RETVAL, 1
0502            label24
0502  512F      	MOVF FCD_0f051__00076_1_FCR_RETVAL, W, 1
0504  6F30      	MOVWF CompTempVarRet2772, 1
0506  0012      	RETURN
0508            ; } FCD_0f051_gLCD_EB076_4D1__G4D_DisableTouchscreenPicaso function end

	ORG 0x00000508
0508            FCD_0f051__0006F
0508            ; { FCD_0f051_gLCD_EB076_4D1__G4D_SetTouchRegionPicaso ; function begin
0508  0E75      	MOVLW 0x75
050A  6F70      	MOVWF FC_CAL_UAR_00091_arg_nChar, 1
050C  6B71      	CLRF FC_CAL_UAR_00091_arg_nChar+D'1', 1
050E  EC46F000  	CALL FC_CAL_UAR_00091
0512  5130      	MOVF FCD_0f051__0006F_arg_FCL_X1+D'1', W, 1
0514  6F70      	MOVWF FC_CAL_UAR_00091_arg_nChar, 1
0516  6B71      	CLRF FC_CAL_UAR_00091_arg_nChar+D'1', 1
0518  EC46F000  	CALL FC_CAL_UAR_00091
051C  512F      	MOVF FCD_0f051__0006F_arg_FCL_X1, W, 1
051E  6F70      	MOVWF FC_CAL_UAR_00091_arg_nChar, 1
0520  5130      	MOVF FCD_0f051__0006F_arg_FCL_X1+D'1', W, 1
0522  6F71      	MOVWF FC_CAL_UAR_00091_arg_nChar+D'1', 1
0524  EC46F000  	CALL FC_CAL_UAR_00091
0528  5132      	MOVF FCD_0f051__0006F_arg_FCL_Y1+D'1', W, 1
052A  6F70      	MOVWF FC_CAL_UAR_00091_arg_nChar, 1
052C  6B71      	CLRF FC_CAL_UAR_00091_arg_nChar+D'1', 1
052E  EC46F000  	CALL FC_CAL_UAR_00091
0532  5131      	MOVF FCD_0f051__0006F_arg_FCL_Y1, W, 1
0534  6F70      	MOVWF FC_CAL_UAR_00091_arg_nChar, 1
0536  5132      	MOVF FCD_0f051__0006F_arg_FCL_Y1+D'1', W, 1
0538  6F71      	MOVWF FC_CAL_UAR_00091_arg_nChar+D'1', 1
053A  EC46F000  	CALL FC_CAL_UAR_00091
053E  5134      	MOVF FCD_0f051__0006F_arg_FCL_X2+D'1', W, 1
0540  6F70      	MOVWF FC_CAL_UAR_00091_arg_nChar, 1
0542  6B71      	CLRF FC_CAL_UAR_00091_arg_nChar+D'1', 1
0544  EC46F000  	CALL FC_CAL_UAR_00091
0548  5133      	MOVF FCD_0f051__0006F_arg_FCL_X2, W, 1
054A  6F70      	MOVWF FC_CAL_UAR_00091_arg_nChar, 1
054C  5134      	MOVF FCD_0f051__0006F_arg_FCL_X2+D'1', W, 1
054E  6F71      	MOVWF FC_CAL_UAR_00091_arg_nChar+D'1', 1
0550  EC46F000  	CALL FC_CAL_UAR_00091
0554  5136      	MOVF FCD_0f051__0006F_arg_FCL_Y2+D'1', W, 1
0556  6F70      	MOVWF FC_CAL_UAR_00091_arg_nChar, 1
0558  6B71      	CLRF FC_CAL_UAR_00091_arg_nChar+D'1', 1
055A  EC46F000  	CALL FC_CAL_UAR_00091
055E  5135      	MOVF FCD_0f051__0006F_arg_FCL_Y2, W, 1
0560  6F70      	MOVWF FC_CAL_UAR_00091_arg_nChar, 1
0562  5136      	MOVF FCD_0f051__0006F_arg_FCL_Y2+D'1', W, 1
0564  6F71      	MOVWF FC_CAL_UAR_00091_arg_nChar+D'1', 1
0566  EC46F000  	CALL FC_CAL_UAR_00091
056A  6970      	SETF FC_CAL_UAR_00090_arg_nTimeout, 1
056C  EC4EF000  	CALL FC_CAL_UAR_00090
0570  5179      	MOVF CompTempVarRet2900, W, 1
0572  6F37      	MOVWF FCD_0f051__0006F_1_FCR_RETVAL, 1
0574  0E06      	MOVLW 0x06
0576  6337      	CPFSEQ FCD_0f051__0006F_1_FCR_RETVAL, 1
0578  D002      	BRA	label25
057A  6B37      	CLRF FCD_0f051__0006F_1_FCR_RETVAL, 1
057C  D001      	BRA	label26
057E            label25
057E  6937      	SETF FCD_0f051__0006F_1_FCR_RETVAL, 1
0580            label26
0580  5137      	MOVF FCD_0f051__0006F_1_FCR_RETVAL, W, 1
0582  6F38      	MOVWF CompTempVarRet2729, 1
0584  0012      	RETURN
0586            ; } FCD_0f051_gLCD_EB076_4D1__G4D_SetTouchRegionPicaso function end

	ORG 0x00000586
0586            FCD_0f051__00069
0586            ; { FCD_0f051_gLCD_EB076_4D1__G4D_ReadTouchCoordinatesPicaso ; function begin
0586  6B30      	CLRF FCD_0f051__00069_1_FCR_RETVAL, 1
0588  6B31      	CLRF FCD_0f051__00069_1_FCR_RETVAL+D'1', 1
058A  532F      	MOVF FCD_0f051__00069_arg_FCL_AXIS, F, 1
058C  E007      	BZ	label28
058E  0E78      	MOVLW 0x78
0590  632F      	CPFSEQ FCD_0f051__00069_arg_FCL_AXIS, 1
0592  D001      	BRA	label27
0594  D003      	BRA	label28
0596            label27
0596  0E58      	MOVLW 0x58
0598  632F      	CPFSEQ FCD_0f051__00069_arg_FCL_AXIS, 1
059A  D004      	BRA	label29
059C            label28
059C  5108      	MOVF gbl_FCV_0f051_gLCD_EB076_4_0000F, W, 1
059E  6F30      	MOVWF FCD_0f051__00069_1_FCR_RETVAL, 1
05A0  5109      	MOVF gbl_FCV_0f051_gLCD_EB076_4_0000F+D'1', W, 1
05A2  6F31      	MOVWF FCD_0f051__00069_1_FCR_RETVAL+D'1', 1
05A4            label29
05A4  052F      	DECF FCD_0f051__00069_arg_FCL_AXIS, W, 1
05A6  E007      	BZ	label31
05A8  0E79      	MOVLW 0x79
05AA  632F      	CPFSEQ FCD_0f051__00069_arg_FCL_AXIS, 1
05AC  D001      	BRA	label30
05AE  D003      	BRA	label31
05B0            label30
05B0  0E59      	MOVLW 0x59
05B2  632F      	CPFSEQ FCD_0f051__00069_arg_FCL_AXIS, 1
05B4  D004      	BRA	label32
05B6            label31
05B6  5106      	MOVF gbl_FCV_0f051_gLCD_EB076_4_0000E, W, 1
05B8  6F30      	MOVWF FCD_0f051__00069_1_FCR_RETVAL, 1
05BA  5107      	MOVF gbl_FCV_0f051_gLCD_EB076_4_0000E+D'1', W, 1
05BC  6F31      	MOVWF FCD_0f051__00069_1_FCR_RETVAL+D'1', 1
05BE            label32
05BE  5130      	MOVF FCD_0f051__00069_1_FCR_RETVAL, W, 1
05C0  6F32      	MOVWF CompTempVarRet2677, 1
05C2  5131      	MOVF FCD_0f051__00069_1_FCR_RETVAL+D'1', W, 1
05C4  6F33      	MOVWF CompTempVarRet2677+D'1', 1
05C6  0012      	RETURN
05C8            ; } FCD_0f051_gLCD_EB076_4D1__G4D_ReadTouchCoordinatesPicaso function end

	ORG 0x000005C8
05C8            FCD_0f051__00066
05C8            ; { FCD_0f051_gLCD_EB076_4D1__Print ; function begin
05C8  6B6F      	CLRF FCD_0f051__00066_1_FCL_IDX, 1
05CA  0E4F      	MOVLW 0x4F
05CC  6F70      	MOVWF FC_CAL_UAR_00091_arg_nChar, 1
05CE  6B71      	CLRF FC_CAL_UAR_00091_arg_nChar+D'1', 1
05D0  EC46F000  	CALL FC_CAL_UAR_00091
05D4  536D      	MOVF FCD_0f051__00066_arg_FCL_T_00067, F, 1
05D6  E005      	BZ	label33
05D8  6B70      	CLRF FC_CAL_UAR_00091_arg_nChar, 1
05DA  6B71      	CLRF FC_CAL_UAR_00091_arg_nChar+D'1', 1
05DC  EC46F000  	CALL FC_CAL_UAR_00091
05E0  D005      	BRA	label34
05E2            label33
05E2  0E01      	MOVLW 0x01
05E4  6F70      	MOVWF FC_CAL_UAR_00091_arg_nChar, 1
05E6  6B71      	CLRF FC_CAL_UAR_00091_arg_nChar+D'1', 1
05E8  EC46F000  	CALL FC_CAL_UAR_00091
05EC            label34
05EC  6970      	SETF FC_CAL_UAR_00090_arg_nTimeout, 1
05EE  EC4EF000  	CALL FC_CAL_UAR_00090
05F2  0E53      	MOVLW 0x53
05F4  6F70      	MOVWF FC_CAL_UAR_00091_arg_nChar, 1
05F6  6B71      	CLRF FC_CAL_UAR_00091_arg_nChar+D'1', 1
05F8  EC46F000  	CALL FC_CAL_UAR_00091
05FC  5169      	MOVF FCD_0f051__00066_arg_FCL_X1+D'1', W, 1
05FE  6F70      	MOVWF FC_CAL_UAR_00091_arg_nChar, 1
0600  6B71      	CLRF FC_CAL_UAR_00091_arg_nChar+D'1', 1
0602  EC46F000  	CALL FC_CAL_UAR_00091
0606  5168      	MOVF FCD_0f051__00066_arg_FCL_X1, W, 1
0608  6F70      	MOVWF FC_CAL_UAR_00091_arg_nChar, 1
060A  5169      	MOVF FCD_0f051__00066_arg_FCL_X1+D'1', W, 1
060C  6F71      	MOVWF FC_CAL_UAR_00091_arg_nChar+D'1', 1
060E  EC46F000  	CALL FC_CAL_UAR_00091
0612  516B      	MOVF FCD_0f051__00066_arg_FCL_Y1+D'1', W, 1
0614  6F70      	MOVWF FC_CAL_UAR_00091_arg_nChar, 1
0616  6B71      	CLRF FC_CAL_UAR_00091_arg_nChar+D'1', 1
0618  EC46F000  	CALL FC_CAL_UAR_00091
061C  516A      	MOVF FCD_0f051__00066_arg_FCL_Y1, W, 1
061E  6F70      	MOVWF FC_CAL_UAR_00091_arg_nChar, 1
0620  516B      	MOVF FCD_0f051__00066_arg_FCL_Y1+D'1', W, 1
0622  6F71      	MOVWF FC_CAL_UAR_00091_arg_nChar+D'1', 1
0624  EC46F000  	CALL FC_CAL_UAR_00091
0628  516C      	MOVF FCD_0f051__00066_arg_FCL_FONT, W, 1
062A  6F70      	MOVWF FC_CAL_UAR_00091_arg_nChar, 1
062C  6B71      	CLRF FC_CAL_UAR_00091_arg_nChar+D'1', 1
062E  EC46F000  	CALL FC_CAL_UAR_00091
0632  5105      	MOVF gbl_FCV_0f051_gLCD_EB076_4_0000D+D'1', W, 1
0634  6F70      	MOVWF FC_CAL_UAR_00091_arg_nChar, 1
0636  6B71      	CLRF FC_CAL_UAR_00091_arg_nChar+D'1', 1
0638  EC46F000  	CALL FC_CAL_UAR_00091
063C  5104      	MOVF gbl_FCV_0f051_gLCD_EB076_4_0000D, W, 1
063E  6F70      	MOVWF FC_CAL_UAR_00091_arg_nChar, 1
0640  5105      	MOVF gbl_FCV_0f051_gLCD_EB076_4_0000D+D'1', W, 1
0642  6F71      	MOVWF FC_CAL_UAR_00091_arg_nChar+D'1', 1
0644  EC46F000  	CALL FC_CAL_UAR_00091
0648  0E01      	MOVLW 0x01
064A  6F70      	MOVWF FC_CAL_UAR_00091_arg_nChar, 1
064C  6B71      	CLRF FC_CAL_UAR_00091_arg_nChar+D'1', 1
064E  EC46F000  	CALL FC_CAL_UAR_00091
0652  0E01      	MOVLW 0x01
0654  6F70      	MOVWF FC_CAL_UAR_00091_arg_nChar, 1
0656  6B71      	CLRF FC_CAL_UAR_00091_arg_nChar+D'1', 1
0658  EC46F000  	CALL FC_CAL_UAR_00091
065C  512F      	MOVF FCD_0f051__00066_arg_FCL_STR, W, 1
065E  6F70      	MOVWF FCI_GETLEN_0004B_arg_sStr1, 1
0660  5130      	MOVF FCD_0f051__00066_arg_FCL_STR+D'1', W, 1
0662  6F71      	MOVWF FCI_GETLEN_0004B_arg_sStr1+D'1', 1
0664  5166      	MOVF FCD_0f051__00066_arg_FCLsz_STR, W, 1
0666  6F72      	MOVWF FCI_GETLEN_0004B_arg_iStr1_len, 1
0668  EC8CF001  	CALL FCI_GETLEN_0004B
066C  5174      	MOVF CompTempVarRet1850, W, 1
066E  6F6E      	MOVWF FCD_0f051__00066_1_FCL_LEN_STR, 1
0670            label35
0670  516E      	MOVF FCD_0f051__00066_1_FCL_LEN_STR, W, 1
0672  616F      	CPFSLT FCD_0f051__00066_1_FCL_IDX, 1
0674  D014      	BRA	label36
0676  5130      	MOVF FCD_0f051__00066_arg_FCL_STR+D'1', W, 1
0678  6EEA      	MOVWF FSR0H
067A  512F      	MOVF FCD_0f051__00066_arg_FCL_STR, W, 1
067C  256F      	ADDWF FCD_0f051__00066_1_FCL_IDX, W, 1
067E  6EE9      	MOVWF FSR0L
0680  52EF      	MOVF INDF0, F
0682  E00D      	BZ	label36
0684  5130      	MOVF FCD_0f051__00066_arg_FCL_STR+D'1', W, 1
0686  6EEA      	MOVWF FSR0H
0688  512F      	MOVF FCD_0f051__00066_arg_FCL_STR, W, 1
068A  256F      	ADDWF FCD_0f051__00066_1_FCL_IDX, W, 1
068C  6EE9      	MOVWF FSR0L
068E  50EF      	MOVF INDF0, W
0690  6F70      	MOVWF FC_CAL_UAR_00091_arg_nChar, 1
0692  6B71      	CLRF FC_CAL_UAR_00091_arg_nChar+D'1', 1
0694  EC46F000  	CALL FC_CAL_UAR_00091
0698  296F      	INCF FCD_0f051__00066_1_FCL_IDX, W, 1
069A  6F6F      	MOVWF FCD_0f051__00066_1_FCL_IDX, 1
069C  D7E9      	BRA	label35
069E            label36
069E  6B70      	CLRF FC_CAL_UAR_00091_arg_nChar, 1
06A0  6B71      	CLRF FC_CAL_UAR_00091_arg_nChar+D'1', 1
06A2  EC46F000  	CALL FC_CAL_UAR_00091
06A6  6970      	SETF FC_CAL_UAR_00090_arg_nTimeout, 1
06A8  EC4EF000  	CALL FC_CAL_UAR_00090
06AC  0012      	RETURN
06AE            ; } FCD_0f051_gLCD_EB076_4D1__Print function end

	ORG 0x000006AE
06AE            FC_CAL_UAR_0008F
06AE            ; { FC_CAL_UART_Uninit_1 ; function begin
06AE  6AAB      	CLRF gbl_rcsta
06B0  6AAC      	CLRF gbl_txsta
06B2  0012      	RETURN
06B4            ; } FC_CAL_UART_Uninit_1 function end

	ORG 0x000006B4
06B4            FCM_hitbox_0006A
06B4            ; { FCM_hitbox_phase_jeu ; function begin
06B4  0E01      	MOVLW 0x01
06B6  0101      	MOVLB 0x01
06B8  6F13      	MOVWF gbl_FCV_HITBOX_JOUEUR_1, 1
06BA  0E18      	MOVLW 0x18
06BC  0100      	MOVLB 0x00
06BE  6FF1      	MOVWF gbl_FCV_Y, 1
06C0  6BF2      	CLRF gbl_FCV_Y+D'1', 1
06C2  0E18      	MOVLW 0x18
06C4  6FF3      	MOVWF gbl_FCV_X, 1
06C6  6BF4      	CLRF gbl_FCV_X+D'1', 1
06C8            label37
06C8  0E01      	MOVLW 0x01
06CA  0100      	MOVLB 0x00
06CC  5DEB      	SUBWF gbl_FCV_X_SORTIE, W, 1
06CE  B0D8      	BTFSC STATUS,C
06D0  0012      	RETURN
06D2  67EC      	TSTFSZ gbl_FCV_X_SORTIE+D'1', 1
06D4  0012      	RETURN
06D6  51F2      	MOVF gbl_FCV_Y+D'1', W, 1
06D8  5DEE      	SUBWF gbl_FCV_Y_TOUCH+D'1', W, 1
06DA  E102      	BNZ	label38
06DC  51F1      	MOVF gbl_FCV_Y, W, 1
06DE  5DED      	SUBWF gbl_FCV_Y_TOUCH, W, 1
06E0            label38
06E0  E22C      	BC	label45
06E2            label39
06E2  0100      	MOVLB 0x00
06E4  51F4      	MOVF gbl_FCV_X+D'1', W, 1
06E6  5DF6      	SUBWF gbl_FCV_X_TOUCH+D'1', W, 1
06E8  E102      	BNZ	label40
06EA  51F3      	MOVF gbl_FCV_X, W, 1
06EC  5DF5      	SUBWF gbl_FCV_X_TOUCH, W, 1
06EE            label40
06EE  E30D      	BNC	label41
06F0  0101      	MOVLB 0x01
06F2  2913      	INCF gbl_FCV_HITBOX_JOUEUR_1, W, 1
06F4  6F13      	MOVWF gbl_FCV_HITBOX_JOUEUR_1, 1
06F6  6B30      	CLRF CompTempVar2680, 1
06F8  0E18      	MOVLW 0x18
06FA  0100      	MOVLB 0x00
06FC  27F3      	ADDWF gbl_FCV_X, F, 1
06FE  51F4      	MOVF gbl_FCV_X+D'1', W, 1
0700  0101      	MOVLB 0x01
0702  2330      	ADDWFC CompTempVar2680, F, 1
0704  5130      	MOVF CompTempVar2680, W, 1
0706  0100      	MOVLB 0x00
0708  6FF4      	MOVWF gbl_FCV_X+D'1', 1
070A            label41
070A  53EB      	MOVF gbl_FCV_X_SORTIE, F, 1
070C  53EC      	MOVF gbl_FCV_X_SORTIE+D'1', F, 1
070E  2BEB      	INCF gbl_FCV_X_SORTIE, F, 1
0710  B4D8      	BTFSC STATUS,Z
0712  2BEC      	INCF gbl_FCV_X_SORTIE+D'1', F, 1
0714  0101      	MOVLB 0x01
0716  6B2F      	CLRF CompTempVar2678, 1
0718  0100      	MOVLB 0x00
071A  51F4      	MOVF gbl_FCV_X+D'1', W, 1
071C  5DF6      	SUBWF gbl_FCV_X_TOUCH+D'1', W, 1
071E  E104      	BNZ	label42
0720  51F3      	MOVF gbl_FCV_X, W, 1
0722  61F5      	CPFSLT gbl_FCV_X_TOUCH, 1
0724  D001      	BRA	label42
0726  D001      	BRA	label43
0728            label42
0728  E202      	BC	label44
072A            label43
072A  0101      	MOVLB 0x01
072C  712F      	BTG CompTempVar2678,0, 1
072E            label44
072E  0101      	MOVLB 0x01
0730  532F      	MOVF CompTempVar2678, F, 1
0732  E0D7      	BZ	label39
0734  EC9CF001  	CALL FCM_affich_0007D
0738  D7C7      	BRA	label37
073A            label45
073A  0E0A      	MOVLW 0x0A
073C  0101      	MOVLB 0x01
073E  2513      	ADDWF gbl_FCV_HITBOX_JOUEUR_1, W, 1
0740  6F13      	MOVWF gbl_FCV_HITBOX_JOUEUR_1, 1
0742  6B2F      	CLRF CompTempVar2684, 1
0744  0E18      	MOVLW 0x18
0746  0100      	MOVLB 0x00
0748  27F1      	ADDWF gbl_FCV_Y, F, 1
074A  51F2      	MOVF gbl_FCV_Y+D'1', W, 1
074C  0101      	MOVLB 0x01
074E  232F      	ADDWFC CompTempVar2684, F, 1
0750  512F      	MOVF CompTempVar2684, W, 1
0752  0100      	MOVLB 0x00
0754  6FF2      	MOVWF gbl_FCV_Y+D'1', 1
0756  D7B8      	BRA	label37
0758            ; } FCM_hitbox_phase_jeu function end

	ORG 0x00000758
0758            FCM_Reinit_00075
0758            ; { FCM_Reinitialisation_tactile ; function begin
0758  EC66F002  	CALL FCD_0f051__00076
075C  EC35F002  	CALL FCD_0f051__00077
0760  6B2F      	CLRF FCD_0f051__0006F_arg_FCL_X1, 1
0762  6B30      	CLRF FCD_0f051__0006F_arg_FCL_X1+D'1', 1
0764  6B31      	CLRF FCD_0f051__0006F_arg_FCL_Y1, 1
0766  6B32      	CLRF FCD_0f051__0006F_arg_FCL_Y1+D'1', 1
0768  0EF0      	MOVLW 0xF0
076A  6F33      	MOVWF FCD_0f051__0006F_arg_FCL_X2, 1
076C  6B34      	CLRF FCD_0f051__0006F_arg_FCL_X2+D'1', 1
076E  0EF0      	MOVLW 0xF0
0770  6F35      	MOVWF FCD_0f051__0006F_arg_FCL_Y2, 1
0772  6B36      	CLRF FCD_0f051__0006F_arg_FCL_Y2+D'1', 1
0774  EC84F002  	CALL FCD_0f051__0006F
0778  0012      	RETURN
077A            ; } FCM_Reinitialisation_tactile function end

	ORG 0x0000077A
077A            FCM_Recupe_00079
077A            ; { FCM_Recuperation_coordonees ; function begin
077A  ECE5F001  	CALL FCD_0f051__00084
077E  5131      	MOVF CompTempVarRet2822, W, 1
0780  6F19      	MOVWF gbl_FCV_APPUI_ECRAN, 1
0782  0012      	RETURN
0784            ; } FCM_Recuperation_coordonees function end

	ORG 0x00000784
0784            FCM_Messag_00070
0784            ; { FCM_Message_bateau ; function begin
0784  0E05      	MOVLW 0x05
0786  0101      	MOVLB 0x01
0788  611B      	CPFSLT gbl_FCV_BATEAU, 1
078A  D001      	BRA	label46
078C  D153      	BRA	label53
078E            label46
078E  ECC9F001  	CALL FCM_Reinit_00071
0792  0E09      	MOVLW 0x09
0794  611B      	CPFSLT gbl_FCV_BATEAU, 1
0796  D001      	BRA	label47
0798  D105      	BRA	label52
079A            label47
079A  ECC9F001  	CALL FCM_Reinit_00071
079E  0E0C      	MOVLW 0x0C
07A0  611B      	CPFSLT gbl_FCV_BATEAU, 1
07A2  D001      	BRA	label48
07A4  D0A5      	BRA	label51
07A6            label48
07A6  ECC9F001  	CALL FCM_Reinit_00071
07AA  0E0F      	MOVLW 0x0F
07AC  611B      	CPFSLT gbl_FCV_BATEAU, 1
07AE  D001      	BRA	label49
07B0  D051      	BRA	label50
07B2            label49
07B2  ECC9F001  	CALL FCM_Reinit_00071
07B6  0E11      	MOVLW 0x11
07B8  611B      	CPFSLT gbl_FCV_BATEAU, 1
07BA  0012      	RETURN
07BC  0E20      	MOVLW 0x20
07BE  6F39      	MOVWF CompTempVar2738+D'8', 1
07C0  6F40      	MOVWF CompTempVar2738+D'15', 1
07C2  6F43      	MOVWF CompTempVar2738+D'18', 1
07C4  6F4E      	MOVWF CompTempVar2738+D'29', 1
07C6  6F51      	MOVWF CompTempVar2738+D'32', 1
07C8  0E28      	MOVLW 0x28
07CA  6F4F      	MOVWF CompTempVar2738+D'30', 1
07CC  0E29      	MOVLW 0x29
07CE  6F57      	MOVWF CompTempVar2738+D'38', 1
07D0  0E32      	MOVLW 0x32
07D2  6F50      	MOVWF CompTempVar2738+D'31', 1
07D4  0E56      	MOVLW 0x56
07D6  6F31      	MOVWF CompTempVar2738, 1
07D8  0E61      	MOVLW 0x61
07DA  6F3C      	MOVWF CompTempVar2738+D'11', 1
07DC  6F53      	MOVWF CompTempVar2738+D'34', 1
07DE  0E63      	MOVLW 0x63
07E0  6F3D      	MOVWF CompTempVar2738+D'12', 1
07E2  6F52      	MOVWF CompTempVar2738+D'33', 1
07E4  0E65      	MOVLW 0x65
07E6  6F32      	MOVWF CompTempVar2738+D'1', 1
07E8  6F37      	MOVWF CompTempVar2738+D'6', 1
07EA  6F3E      	MOVWF CompTempVar2738+D'13', 1
07EC  6F42      	MOVWF CompTempVar2738+D'17', 1
07EE  6F4B      	MOVWF CompTempVar2738+D'26', 1
07F0  6F55      	MOVWF CompTempVar2738+D'36', 1
07F2  0E69      	MOVLW 0x69
07F4  6F34      	MOVWF CompTempVar2738+D'3', 1
07F6  6F48      	MOVWF CompTempVar2738+D'23', 1
07F8  0E6C      	MOVLW 0x6C
07FA  6F35      	MOVWF CompTempVar2738+D'4', 1
07FC  6F36      	MOVWF CompTempVar2738+D'5', 1
07FE  6F3B      	MOVWF CompTempVar2738+D'10', 1
0800  6F41      	MOVWF CompTempVar2738+D'16', 1
0802  6F49      	MOVWF CompTempVar2738+D'24', 1
0804  6F4A      	MOVWF CompTempVar2738+D'25', 1
0806  0E6F      	MOVLW 0x6F
0808  6F45      	MOVWF CompTempVar2738+D'20', 1
080A  0E70      	MOVLW 0x70
080C  6F3A      	MOVWF CompTempVar2738+D'9', 1
080E  6F47      	MOVWF CompTempVar2738+D'22', 1
0810  0E72      	MOVLW 0x72
0812  6F3F      	MOVWF CompTempVar2738+D'14', 1
0814  6F46      	MOVWF CompTempVar2738+D'21', 1
0816  6F4D      	MOVWF CompTempVar2738+D'28', 1
0818  0E73      	MOVLW 0x73
081A  6F54      	MOVWF CompTempVar2738+D'35', 1
081C  6F56      	MOVWF CompTempVar2738+D'37', 1
081E  0E74      	MOVLW 0x74
0820  6F44      	MOVWF CompTempVar2738+D'19', 1
0822  0E75      	MOVLW 0x75
0824  6F33      	MOVWF CompTempVar2738+D'2', 1
0826  6F4C      	MOVWF CompTempVar2738+D'27', 1
0828  0E7A      	MOVLW 0x7A
082A  6F38      	MOVWF CompTempVar2738+D'7', 1
082C  6B58      	CLRF CompTempVar2738+D'39', 1
082E  0E01      	MOVLW HIGH(CompTempVar2738+D'0')
0830  6F30      	MOVWF FCD_0f051__00066_arg_FCL_STR+D'1', 1
0832  0E31      	MOVLW LOW(CompTempVar2738+D'0')
0834  6F2F      	MOVWF FCD_0f051__00066_arg_FCL_STR, 1
0836  0E28      	MOVLW 0x28
0838  6F66      	MOVWF FCD_0f051__00066_arg_FCLsz_STR, 1
083A  6B67      	CLRF FCD_0f051__00066_arg_FCLsz_STR+D'1', 1
083C  6B68      	CLRF FCD_0f051__00066_arg_FCL_X1, 1
083E  6B69      	CLRF FCD_0f051__00066_arg_FCL_X1+D'1', 1
0840  0EF1      	MOVLW 0xF1
0842  6F6A      	MOVWF FCD_0f051__00066_arg_FCL_Y1, 1
0844  6B6B      	CLRF FCD_0f051__00066_arg_FCL_Y1+D'1', 1
0846  0E02      	MOVLW 0x02
0848  6F6C      	MOVWF FCD_0f051__00066_arg_FCL_FONT, 1
084A  0E01      	MOVLW 0x01
084C  6F6D      	MOVWF FCD_0f051__00066_arg_FCL_T_00067, 1
084E  ECE4F002  	CALL FCD_0f051__00066
0852  0012      	RETURN
0854            label50
0854  0E20      	MOVLW 0x20
0856  6F39      	MOVWF CompTempVar2740+D'8', 1
0858  6F40      	MOVWF CompTempVar2740+D'15', 1
085A  6F43      	MOVWF CompTempVar2740+D'18', 1
085C  6F4E      	MOVWF CompTempVar2740+D'29', 1
085E  6F51      	MOVWF CompTempVar2740+D'32', 1
0860  0E28      	MOVLW 0x28
0862  6F4F      	MOVWF CompTempVar2740+D'30', 1
0864  0E29      	MOVLW 0x29
0866  6F57      	MOVWF CompTempVar2740+D'38', 1
0868  0E2D      	MOVLW 0x2D
086A  6F48      	MOVWF CompTempVar2740+D'23', 1
086C  0E33      	MOVLW 0x33
086E  6F50      	MOVWF CompTempVar2740+D'31', 1
0870  0E56      	MOVLW 0x56
0872  6F31      	MOVWF CompTempVar2740, 1
0874  0E61      	MOVLW 0x61
0876  6F3C      	MOVWF CompTempVar2740+D'11', 1
0878  6F4A      	MOVWF CompTempVar2740+D'25', 1
087A  6F53      	MOVWF CompTempVar2740+D'34', 1
087C  0E63      	MOVLW 0x63
087E  6F3D      	MOVWF CompTempVar2740+D'12', 1
0880  6F52      	MOVWF CompTempVar2740+D'33', 1
0882  0E65      	MOVLW 0x65
0884  6F32      	MOVWF CompTempVar2740+D'1', 1
0886  6F37      	MOVWF CompTempVar2740+D'6', 1
0888  6F3E      	MOVWF CompTempVar2740+D'13', 1
088A  6F42      	MOVWF CompTempVar2740+D'17', 1
088C  6F55      	MOVWF CompTempVar2740+D'36', 1
088E  0E69      	MOVLW 0x69
0890  6F34      	MOVWF CompTempVar2740+D'3', 1
0892  6F4C      	MOVWF CompTempVar2740+D'27', 1
0894  0E6C      	MOVLW 0x6C
0896  6F35      	MOVWF CompTempVar2740+D'4', 1
0898  6F36      	MOVWF CompTempVar2740+D'5', 1
089A  6F3B      	MOVWF CompTempVar2740+D'10', 1
089C  6F41      	MOVWF CompTempVar2740+D'16', 1
089E  0E6D      	MOVLW 0x6D
08A0  6F49      	MOVWF CompTempVar2740+D'24', 1
08A2  0E6E      	MOVLW 0x6E
08A4  6F4D      	MOVWF CompTempVar2740+D'28', 1
08A6  0E6F      	MOVLW 0x6F
08A8  6F45      	MOVWF CompTempVar2740+D'20', 1
08AA  0E70      	MOVLW 0x70
08AC  6F3A      	MOVWF CompTempVar2740+D'9', 1
08AE  0E72      	MOVLW 0x72
08B0  6F3F      	MOVWF CompTempVar2740+D'14', 1
08B2  6F4B      	MOVWF CompTempVar2740+D'26', 1
08B4  0E73      	MOVLW 0x73
08B6  6F44      	MOVWF CompTempVar2740+D'19', 1
08B8  6F47      	MOVWF CompTempVar2740+D'22', 1
08BA  6F54      	MOVWF CompTempVar2740+D'35', 1
08BC  6F56      	MOVWF CompTempVar2740+D'37', 1
08BE  0E75      	MOVLW 0x75
08C0  6F33      	MOVWF CompTempVar2740+D'2', 1
08C2  6F46      	MOVWF CompTempVar2740+D'21', 1
08C4  0E7A      	MOVLW 0x7A
08C6  6F38      	MOVWF CompTempVar2740+D'7', 1
08C8  6B58      	CLRF CompTempVar2740+D'39', 1
08CA  0E01      	MOVLW HIGH(CompTempVar2740+D'0')
08CC  6F30      	MOVWF FCD_0f051__00066_arg_FCL_STR+D'1', 1
08CE  0E31      	MOVLW LOW(CompTempVar2740+D'0')
08D0  6F2F      	MOVWF FCD_0f051__00066_arg_FCL_STR, 1
08D2  0E28      	MOVLW 0x28
08D4  6F66      	MOVWF FCD_0f051__00066_arg_FCLsz_STR, 1
08D6  6B67      	CLRF FCD_0f051__00066_arg_FCLsz_STR+D'1', 1
08D8  6B68      	CLRF FCD_0f051__00066_arg_FCL_X1, 1
08DA  6B69      	CLRF FCD_0f051__00066_arg_FCL_X1+D'1', 1
08DC  0EF1      	MOVLW 0xF1
08DE  6F6A      	MOVWF FCD_0f051__00066_arg_FCL_Y1, 1
08E0  6B6B      	CLRF FCD_0f051__00066_arg_FCL_Y1+D'1', 1
08E2  0E02      	MOVLW 0x02
08E4  6F6C      	MOVWF FCD_0f051__00066_arg_FCL_FONT, 1
08E6  0E01      	MOVLW 0x01
08E8  6F6D      	MOVWF FCD_0f051__00066_arg_FCL_T_00067, 1
08EA  ECE4F002  	CALL FCD_0f051__00066
08EE  0012      	RETURN
08F0            label51
08F0  0E20      	MOVLW 0x20
08F2  6F39      	MOVWF CompTempVar2742+D'8', 1
08F4  6F40      	MOVWF CompTempVar2742+D'15', 1
08F6  6F43      	MOVWF CompTempVar2742+D'18', 1
08F8  6F4A      	MOVWF CompTempVar2742+D'25', 1
08FA  6F4B      	MOVWF CompTempVar2742+D'26', 1
08FC  6F4C      	MOVWF CompTempVar2742+D'27', 1
08FE  6F4D      	MOVWF CompTempVar2742+D'28', 1
0900  6F4E      	MOVWF CompTempVar2742+D'29', 1
0902  6F4F      	MOVWF CompTempVar2742+D'30', 1
0904  6F50      	MOVWF CompTempVar2742+D'31', 1
0906  6F51      	MOVWF CompTempVar2742+D'32', 1
0908  6F5E      	MOVWF CompTempVar2742+D'45', 1
090A  0E28      	MOVLW 0x28
090C  6F5C      	MOVWF CompTempVar2742+D'43', 1
090E  0E29      	MOVLW 0x29
0910  6F64      	MOVWF CompTempVar2742+D'51', 1
0912  0E33      	MOVLW 0x33
0914  6F5D      	MOVWF CompTempVar2742+D'44', 1
0916  0E56      	MOVLW 0x56
0918  6F31      	MOVWF CompTempVar2742, 1
091A  0E61      	MOVLW 0x61
091C  6F3C      	MOVWF CompTempVar2742+D'11', 1
091E  6F60      	MOVWF CompTempVar2742+D'47', 1
0920  0E63      	MOVLW 0x63
0922  6F3D      	MOVWF CompTempVar2742+D'12', 1
0924  6F44      	MOVWF CompTempVar2742+D'19', 1
0926  6F5F      	MOVWF CompTempVar2742+D'46', 1
0928  0E65      	MOVLW 0x65
092A  6F32      	MOVWF CompTempVar2742+D'1', 1
092C  6F37      	MOVWF CompTempVar2742+D'6', 1
092E  6F3E      	MOVWF CompTempVar2742+D'13', 1
0930  6F42      	MOVWF CompTempVar2742+D'17', 1
0932  6F49      	MOVWF CompTempVar2742+D'24', 1
0934  6F59      	MOVWF CompTempVar2742+D'40', 1
0936  6F62      	MOVWF CompTempVar2742+D'49', 1
0938  0E69      	MOVLW 0x69
093A  6F34      	MOVWF CompTempVar2742+D'3', 1
093C  6F56      	MOVWF CompTempVar2742+D'37', 1
093E  0E6C      	MOVLW 0x6C
0940  6F35      	MOVWF CompTempVar2742+D'4', 1
0942  6F36      	MOVWF CompTempVar2742+D'5', 1
0944  6F3B      	MOVWF CompTempVar2742+D'10', 1
0946  6F41      	MOVWF CompTempVar2742+D'16', 1
0948  6F57      	MOVWF CompTempVar2742+D'38', 1
094A  6F58      	MOVWF CompTempVar2742+D'39', 1
094C  0E6E      	MOVLW 0x6E
094E  6F46      	MOVWF CompTempVar2742+D'21', 1
0950  0E6F      	MOVLW 0x6F
0952  6F45      	MOVWF CompTempVar2742+D'20', 1
0954  6F53      	MOVWF CompTempVar2742+D'34', 1
0956  0E70      	MOVLW 0x70
0958  6F3A      	MOVWF CompTempVar2742+D'9', 1
095A  6F55      	MOVWF CompTempVar2742+D'36', 1
095C  0E72      	MOVLW 0x72
095E  6F3F      	MOVWF CompTempVar2742+D'14', 1
0960  6F48      	MOVWF CompTempVar2742+D'23', 1
0962  6F54      	MOVWF CompTempVar2742+D'35', 1
0964  6F5B      	MOVWF CompTempVar2742+D'42', 1
0966  0E73      	MOVLW 0x73
0968  6F61      	MOVWF CompTempVar2742+D'48', 1
096A  6F63      	MOVWF CompTempVar2742+D'50', 1
096C  0E74      	MOVLW 0x74
096E  6F47      	MOVWF CompTempVar2742+D'22', 1
0970  6F52      	MOVWF CompTempVar2742+D'33', 1
0972  0E75      	MOVLW 0x75
0974  6F33      	MOVWF CompTempVar2742+D'2', 1
0976  6F5A      	MOVWF CompTempVar2742+D'41', 1
0978  0E7A      	MOVLW 0x7A
097A  6F38      	MOVWF CompTempVar2742+D'7', 1
097C  6B65      	CLRF CompTempVar2742+D'52', 1
097E  0E01      	MOVLW HIGH(CompTempVar2742+D'0')
0980  6F30      	MOVWF FCD_0f051__00066_arg_FCL_STR+D'1', 1
0982  0E31      	MOVLW LOW(CompTempVar2742+D'0')
0984  6F2F      	MOVWF FCD_0f051__00066_arg_FCL_STR, 1
0986  0E35      	MOVLW 0x35
0988  6F66      	MOVWF FCD_0f051__00066_arg_FCLsz_STR, 1
098A  6B67      	CLRF FCD_0f051__00066_arg_FCLsz_STR+D'1', 1
098C  6B68      	CLRF FCD_0f051__00066_arg_FCL_X1, 1
098E  6B69      	CLRF FCD_0f051__00066_arg_FCL_X1+D'1', 1
0990  0EF1      	MOVLW 0xF1
0992  6F6A      	MOVWF FCD_0f051__00066_arg_FCL_Y1, 1
0994  6B6B      	CLRF FCD_0f051__00066_arg_FCL_Y1+D'1', 1
0996  0E02      	MOVLW 0x02
0998  6F6C      	MOVWF FCD_0f051__00066_arg_FCL_FONT, 1
099A  0E01      	MOVLW 0x01
099C  6F6D      	MOVWF FCD_0f051__00066_arg_FCL_T_00067, 1
099E  ECE4F002  	CALL FCD_0f051__00066
09A2  0012      	RETURN
09A4            label52
09A4  0E20      	MOVLW 0x20
09A6  6F39      	MOVWF CompTempVar2744+D'8', 1
09A8  6F40      	MOVWF CompTempVar2744+D'15', 1
09AA  6F43      	MOVWF CompTempVar2744+D'18', 1
09AC  6F4E      	MOVWF CompTempVar2744+D'29', 1
09AE  0E28      	MOVLW 0x28
09B0  6F4C      	MOVWF CompTempVar2744+D'27', 1
09B2  0E29      	MOVLW 0x29
09B4  6F54      	MOVWF CompTempVar2744+D'35', 1
09B6  0E34      	MOVLW 0x34
09B8  6F4D      	MOVWF CompTempVar2744+D'28', 1
09BA  0E56      	MOVLW 0x56
09BC  6F31      	MOVWF CompTempVar2744, 1
09BE  0E61      	MOVLW 0x61
09C0  6F3C      	MOVWF CompTempVar2744+D'11', 1
09C2  6F50      	MOVWF CompTempVar2744+D'31', 1
09C4  0E63      	MOVLW 0x63
09C6  6F3D      	MOVWF CompTempVar2744+D'12', 1
09C8  6F44      	MOVWF CompTempVar2744+D'19', 1
09CA  6F4F      	MOVWF CompTempVar2744+D'30', 1
09CC  0E65      	MOVLW 0x65
09CE  6F32      	MOVWF CompTempVar2744+D'1', 1
09D0  6F37      	MOVWF CompTempVar2744+D'6', 1
09D2  6F3E      	MOVWF CompTempVar2744+D'13', 1
09D4  6F42      	MOVWF CompTempVar2744+D'17', 1
09D6  6F49      	MOVWF CompTempVar2744+D'24', 1
09D8  6F52      	MOVWF CompTempVar2744+D'33', 1
09DA  0E69      	MOVLW 0x69
09DC  6F34      	MOVWF CompTempVar2744+D'3', 1
09DE  6F47      	MOVWF CompTempVar2744+D'22', 1
09E0  0E6C      	MOVLW 0x6C
09E2  6F35      	MOVWF CompTempVar2744+D'4', 1
09E4  6F36      	MOVWF CompTempVar2744+D'5', 1
09E6  6F3B      	MOVWF CompTempVar2744+D'10', 1
09E8  6F41      	MOVWF CompTempVar2744+D'16', 1
09EA  0E6F      	MOVLW 0x6F
09EC  6F46      	MOVWF CompTempVar2744+D'21', 1
09EE  0E70      	MOVLW 0x70
09F0  6F3A      	MOVWF CompTempVar2744+D'9', 1
09F2  0E72      	MOVLW 0x72
09F4  6F3F      	MOVWF CompTempVar2744+D'14', 1
09F6  6F45      	MOVWF CompTempVar2744+D'20', 1
09F8  6F4B      	MOVWF CompTempVar2744+D'26', 1
09FA  0E73      	MOVLW 0x73
09FC  6F48      	MOVWF CompTempVar2744+D'23', 1
09FE  6F51      	MOVWF CompTempVar2744+D'32', 1
0A00  6F53      	MOVWF CompTempVar2744+D'34', 1
0A02  0E75      	MOVLW 0x75
0A04  6F33      	MOVWF CompTempVar2744+D'2', 1
0A06  6F4A      	MOVWF CompTempVar2744+D'25', 1
0A08  0E7A      	MOVLW 0x7A
0A0A  6F38      	MOVWF CompTempVar2744+D'7', 1
0A0C  6B55      	CLRF CompTempVar2744+D'36', 1
0A0E  0E01      	MOVLW HIGH(CompTempVar2744+D'0')
0A10  6F30      	MOVWF FCD_0f051__00066_arg_FCL_STR+D'1', 1
0A12  0E31      	MOVLW LOW(CompTempVar2744+D'0')
0A14  6F2F      	MOVWF FCD_0f051__00066_arg_FCL_STR, 1
0A16  0E25      	MOVLW 0x25
0A18  6F66      	MOVWF FCD_0f051__00066_arg_FCLsz_STR, 1
0A1A  6B67      	CLRF FCD_0f051__00066_arg_FCLsz_STR+D'1', 1
0A1C  6B68      	CLRF FCD_0f051__00066_arg_FCL_X1, 1
0A1E  6B69      	CLRF FCD_0f051__00066_arg_FCL_X1+D'1', 1
0A20  0EF1      	MOVLW 0xF1
0A22  6F6A      	MOVWF FCD_0f051__00066_arg_FCL_Y1, 1
0A24  6B6B      	CLRF FCD_0f051__00066_arg_FCL_Y1+D'1', 1
0A26  0E02      	MOVLW 0x02
0A28  6F6C      	MOVWF FCD_0f051__00066_arg_FCL_FONT, 1
0A2A  0E01      	MOVLW 0x01
0A2C  6F6D      	MOVWF FCD_0f051__00066_arg_FCL_T_00067, 1
0A2E  ECE4F002  	CALL FCD_0f051__00066
0A32  0012      	RETURN
0A34            label53
0A34  0E20      	MOVLW 0x20
0A36  6F39      	MOVWF CompTempVar2746+D'8', 1
0A38  6F40      	MOVWF CompTempVar2746+D'15', 1
0A3A  6F43      	MOVWF CompTempVar2746+D'18', 1
0A3C  6F49      	MOVWF CompTempVar2746+D'24', 1
0A3E  6F51      	MOVWF CompTempVar2746+D'32', 1
0A40  0E28      	MOVLW 0x28
0A42  6F4F      	MOVWF CompTempVar2746+D'30', 1
0A44  0E29      	MOVLW 0x29
0A46  6F57      	MOVWF CompTempVar2746+D'38', 1
0A48  0E35      	MOVLW 0x35
0A4A  6F50      	MOVWF CompTempVar2746+D'31', 1
0A4C  0E56      	MOVLW 0x56
0A4E  6F31      	MOVWF CompTempVar2746, 1
0A50  0E61      	MOVLW 0x61
0A52  6F3C      	MOVWF CompTempVar2746+D'11', 1
0A54  6F4A      	MOVWF CompTempVar2746+D'25', 1
0A56  6F53      	MOVWF CompTempVar2746+D'34', 1
0A58  0E63      	MOVLW 0x63
0A5A  6F3D      	MOVWF CompTempVar2746+D'12', 1
0A5C  6F52      	MOVWF CompTempVar2746+D'33', 1
0A5E  0E65      	MOVLW 0x65
0A60  6F32      	MOVWF CompTempVar2746+D'1', 1
0A62  6F37      	MOVWF CompTempVar2746+D'6', 1
0A64  6F3E      	MOVWF CompTempVar2746+D'13', 1
0A66  6F42      	MOVWF CompTempVar2746+D'17', 1
0A68  6F48      	MOVWF CompTempVar2746+D'23', 1
0A6A  6F55      	MOVWF CompTempVar2746+D'36', 1
0A6C  0E69      	MOVLW 0x69
0A6E  6F34      	MOVWF CompTempVar2746+D'3', 1
0A70  6F4C      	MOVWF CompTempVar2746+D'27', 1
0A72  0E6C      	MOVLW 0x6C
0A74  6F35      	MOVWF CompTempVar2746+D'4', 1
0A76  6F36      	MOVWF CompTempVar2746+D'5', 1
0A78  6F3B      	MOVWF CompTempVar2746+D'10', 1
0A7A  6F41      	MOVWF CompTempVar2746+D'16', 1
0A7C  0E6E      	MOVLW 0x6E
0A7E  6F4E      	MOVWF CompTempVar2746+D'29', 1
0A80  0E6F      	MOVLW 0x6F
0A82  6F45      	MOVWF CompTempVar2746+D'20', 1
0A84  6F4D      	MOVWF CompTempVar2746+D'28', 1
0A86  0E70      	MOVLW 0x70
0A88  6F3A      	MOVWF CompTempVar2746+D'9', 1
0A8A  6F44      	MOVWF CompTempVar2746+D'19', 1
0A8C  0E72      	MOVLW 0x72
0A8E  6F3F      	MOVWF CompTempVar2746+D'14', 1
0A90  6F46      	MOVWF CompTempVar2746+D'21', 1
0A92  0E73      	MOVLW 0x73
0A94  6F54      	MOVWF CompTempVar2746+D'35', 1
0A96  6F56      	MOVWF CompTempVar2746+D'37', 1
0A98  0E74      	MOVLW 0x74
0A9A  6F47      	MOVWF CompTempVar2746+D'22', 1
0A9C  0E75      	MOVLW 0x75
0A9E  6F33      	MOVWF CompTempVar2746+D'2', 1
0AA0  0E76      	MOVLW 0x76
0AA2  6F4B      	MOVWF CompTempVar2746+D'26', 1
0AA4  0E7A      	MOVLW 0x7A
0AA6  6F38      	MOVWF CompTempVar2746+D'7', 1
0AA8  6B58      	CLRF CompTempVar2746+D'39', 1
0AAA  0E01      	MOVLW HIGH(CompTempVar2746+D'0')
0AAC  6F30      	MOVWF FCD_0f051__00066_arg_FCL_STR+D'1', 1
0AAE  0E31      	MOVLW LOW(CompTempVar2746+D'0')
0AB0  6F2F      	MOVWF FCD_0f051__00066_arg_FCL_STR, 1
0AB2  0E28      	MOVLW 0x28
0AB4  6F66      	MOVWF FCD_0f051__00066_arg_FCLsz_STR, 1
0AB6  6B67      	CLRF FCD_0f051__00066_arg_FCLsz_STR+D'1', 1
0AB8  6B68      	CLRF FCD_0f051__00066_arg_FCL_X1, 1
0ABA  6B69      	CLRF FCD_0f051__00066_arg_FCL_X1+D'1', 1
0ABC  0EF1      	MOVLW 0xF1
0ABE  6F6A      	MOVWF FCD_0f051__00066_arg_FCL_Y1, 1
0AC0  6B6B      	CLRF FCD_0f051__00066_arg_FCL_Y1+D'1', 1
0AC2  0E02      	MOVLW 0x02
0AC4  6F6C      	MOVWF FCD_0f051__00066_arg_FCL_FONT, 1
0AC6  0E01      	MOVLW 0x01
0AC8  6F6D      	MOVWF FCD_0f051__00066_arg_FCL_T_00067, 1
0ACA  ECE4F002  	CALL FCD_0f051__00066
0ACE  0012      	RETURN
0AD0            ; } FCM_Message_bateau function end

	ORG 0x00000AD0
0AD0            FCM_Messag_0005C
0AD0            ; { FCM_Message_Touche ; function begin
0AD0  0100      	MOVLB 0x00
0AD2  51F3      	MOVF gbl_FCV_X, W, 1
0AD4  0101      	MOVLB 0x01
0AD6  6F2F      	MOVWF FCM_parame_00065_arg_FCL_POS_X1, 1
0AD8  0100      	MOVLB 0x00
0ADA  51F4      	MOVF gbl_FCV_X+D'1', W, 1
0ADC  0101      	MOVLB 0x01
0ADE  6F30      	MOVWF FCM_parame_00065_arg_FCL_POS_X1+D'1', 1
0AE0  0E18      	MOVLW 0x18
0AE2  0100      	MOVLB 0x00
0AE4  5DF3      	SUBWF gbl_FCV_X, W, 1
0AE6  0101      	MOVLB 0x01
0AE8  6F31      	MOVWF FCM_parame_00065_arg_FCL_POS_X2, 1
0AEA  0100      	MOVLB 0x00
0AEC  59F3      	SUBWFB gbl_FCV_X, W, 1
0AEE  0818      	SUBLW 0x18
0AF0  5DF4      	SUBWF gbl_FCV_X+D'1', W, 1
0AF2  0101      	MOVLB 0x01
0AF4  6F32      	MOVWF FCM_parame_00065_arg_FCL_POS_X2+D'1', 1
0AF6  0100      	MOVLB 0x00
0AF8  51F1      	MOVF gbl_FCV_Y, W, 1
0AFA  0101      	MOVLB 0x01
0AFC  6F33      	MOVWF FCM_parame_00065_arg_FCL_POS_Y1, 1
0AFE  0100      	MOVLB 0x00
0B00  51F2      	MOVF gbl_FCV_Y+D'1', W, 1
0B02  0101      	MOVLB 0x01
0B04  6F34      	MOVWF FCM_parame_00065_arg_FCL_POS_Y1+D'1', 1
0B06  0E18      	MOVLW 0x18
0B08  0100      	MOVLB 0x00
0B0A  5DF1      	SUBWF gbl_FCV_Y, W, 1
0B0C  0101      	MOVLB 0x01
0B0E  6F35      	MOVWF FCM_parame_00065_arg_FCL_POS_Y2, 1
0B10  0100      	MOVLB 0x00
0B12  59F1      	SUBWFB gbl_FCV_Y, W, 1
0B14  0818      	SUBLW 0x18
0B16  5DF2      	SUBWF gbl_FCV_Y+D'1', W, 1
0B18  0101      	MOVLB 0x01
0B1A  6F36      	MOVWF FCM_parame_00065_arg_FCL_POS_Y2+D'1', 1
0B1C  6937      	SETF FCM_parame_00065_arg_FCL_ROUGE, 1
0B1E  6B38      	CLRF FCM_parame_00065_arg_FCL_VERT, 1
0B20  6B39      	CLRF FCM_parame_00065_arg_FCL_BLEU, 1
0B22  EC6EF001  	CALL FCM_parame_00065
0B26  0E20      	MOVLW 0x20
0B28  6F31      	MOVWF CompTempVar2643, 1
0B2A  6F32      	MOVWF CompTempVar2643+D'1', 1
0B2C  6F33      	MOVWF CompTempVar2643+D'2', 1
0B2E  6F34      	MOVWF CompTempVar2643+D'3', 1
0B30  6F35      	MOVWF CompTempVar2643+D'4', 1
0B32  6F36      	MOVWF CompTempVar2643+D'5', 1
0B34  6F37      	MOVWF CompTempVar2643+D'6', 1
0B36  6F38      	MOVWF CompTempVar2643+D'7', 1
0B38  6F39      	MOVWF CompTempVar2643+D'8', 1
0B3A  6F3A      	MOVWF CompTempVar2643+D'9', 1
0B3C  6F3B      	MOVWF CompTempVar2643+D'10', 1
0B3E  6F3C      	MOVWF CompTempVar2643+D'11', 1
0B40  6F43      	MOVWF CompTempVar2643+D'18', 1
0B42  6F44      	MOVWF CompTempVar2643+D'19', 1
0B44  6F45      	MOVWF CompTempVar2643+D'20', 1
0B46  0E54      	MOVLW 0x54
0B48  6F3D      	MOVWF CompTempVar2643+D'12', 1
0B4A  0E63      	MOVLW 0x63
0B4C  6F40      	MOVWF CompTempVar2643+D'15', 1
0B4E  0E65      	MOVLW 0x65
0B50  6F42      	MOVWF CompTempVar2643+D'17', 1
0B52  0E68      	MOVLW 0x68
0B54  6F41      	MOVWF CompTempVar2643+D'16', 1
0B56  0E6F      	MOVLW 0x6F
0B58  6F3E      	MOVWF CompTempVar2643+D'13', 1
0B5A  0E75      	MOVLW 0x75
0B5C  6F3F      	MOVWF CompTempVar2643+D'14', 1
0B5E  6B46      	CLRF CompTempVar2643+D'21', 1
0B60  0E01      	MOVLW HIGH(CompTempVar2643+D'0')
0B62  6F30      	MOVWF FCD_0f051__00066_arg_FCL_STR+D'1', 1
0B64  0E31      	MOVLW LOW(CompTempVar2643+D'0')
0B66  6F2F      	MOVWF FCD_0f051__00066_arg_FCL_STR, 1
0B68  0E16      	MOVLW 0x16
0B6A  6F66      	MOVWF FCD_0f051__00066_arg_FCLsz_STR, 1
0B6C  6B67      	CLRF FCD_0f051__00066_arg_FCLsz_STR+D'1', 1
0B6E  6B68      	CLRF FCD_0f051__00066_arg_FCL_X1, 1
0B70  6B69      	CLRF FCD_0f051__00066_arg_FCL_X1+D'1', 1
0B72  0EF1      	MOVLW 0xF1
0B74  6F6A      	MOVWF FCD_0f051__00066_arg_FCL_Y1, 1
0B76  6B6B      	CLRF FCD_0f051__00066_arg_FCL_Y1+D'1', 1
0B78  0E02      	MOVLW 0x02
0B7A  6F6C      	MOVWF FCD_0f051__00066_arg_FCL_FONT, 1
0B7C  0E01      	MOVLW 0x01
0B7E  6F6D      	MOVWF FCD_0f051__00066_arg_FCL_T_00067, 1
0B80  ECE4F002  	CALL FCD_0f051__00066
0B84  0012      	RETURN
0B86            ; } FCM_Message_Touche function end

	ORG 0x00000B86
0B86            FCM_Lectur_00068
0B86            ; { FCM_Lecture_Coordonnes ; function begin
0B86  0101      	MOVLB 0x01
0B88  6B2F      	CLRF FCD_0f051__00069_arg_FCL_AXIS, 1
0B8A  ECC3F002  	CALL FCD_0f051__00069
0B8E  5132      	MOVF CompTempVarRet2677, W, 1
0B90  0100      	MOVLB 0x00
0B92  6FF5      	MOVWF gbl_FCV_X_TOUCH, 1
0B94  0101      	MOVLB 0x01
0B96  5133      	MOVF CompTempVarRet2677+D'1', W, 1
0B98  0100      	MOVLB 0x00
0B9A  6FF6      	MOVWF gbl_FCV_X_TOUCH+D'1', 1
0B9C  0E01      	MOVLW 0x01
0B9E  0101      	MOVLB 0x01
0BA0  6F2F      	MOVWF FCD_0f051__00069_arg_FCL_AXIS, 1
0BA2  ECC3F002  	CALL FCD_0f051__00069
0BA6  5132      	MOVF CompTempVarRet2677, W, 1
0BA8  0100      	MOVLB 0x00
0BAA  6FED      	MOVWF gbl_FCV_Y_TOUCH, 1
0BAC  0101      	MOVLB 0x01
0BAE  5133      	MOVF CompTempVarRet2677+D'1', W, 1
0BB0  0100      	MOVLB 0x00
0BB2  6FEE      	MOVWF gbl_FCV_Y_TOUCH+D'1', 1
0BB4  0012      	RETURN
0BB6            ; } FCM_Lecture_Coordonnes function end

	ORG 0x00000BB6
0BB6            FCM_Fin_Je_0007C
0BB6            ; { FCM_Fin_Jeu ; function begin
0BB6  0101      	MOVLB 0x01
0BB8  5318      	MOVF gbl_FCV_TOUR, F, 1
0BBA  E134      	BNZ	label54
0BBC  0E20      	MOVLW 0x20
0BBE  6F35      	MOVWF CompTempVar2785+D'4', 1
0BC0  6F3A      	MOVWF CompTempVar2785+D'9', 1
0BC2  6F40      	MOVWF CompTempVar2785+D'15', 1
0BC4  6F42      	MOVWF CompTempVar2785+D'17', 1
0BC6  0E21      	MOVLW 0x21
0BC8  6F41      	MOVWF CompTempVar2785+D'16', 1
0BCA  0E56      	MOVLW 0x56
0BCC  6F31      	MOVWF CompTempVar2785, 1
0BCE  0E61      	MOVLW 0x61
0BD0  6F36      	MOVWF CompTempVar2785+D'5', 1
0BD2  6F3C      	MOVWF CompTempVar2785+D'11', 1
0BD4  0E65      	MOVLW 0x65
0BD6  6F38      	MOVWF CompTempVar2785+D'7', 1
0BD8  0E67      	MOVLW 0x67
0BDA  6F3B      	MOVWF CompTempVar2785+D'10', 1
0BDC  6F3D      	MOVWF CompTempVar2785+D'12', 1
0BDE  0E6E      	MOVLW 0x6E
0BE0  6F3E      	MOVWF CompTempVar2785+D'13', 1
0BE2  0E6F      	MOVLW 0x6F
0BE4  6F32      	MOVWF CompTempVar2785+D'1', 1
0BE6  0E73      	MOVLW 0x73
0BE8  6F34      	MOVWF CompTempVar2785+D'3', 1
0BEA  0E75      	MOVLW 0x75
0BEC  6F33      	MOVWF CompTempVar2785+D'2', 1
0BEE  0E76      	MOVLW 0x76
0BF0  6F37      	MOVWF CompTempVar2785+D'6', 1
0BF2  0E7A      	MOVLW 0x7A
0BF4  6F39      	MOVWF CompTempVar2785+D'8', 1
0BF6  0EE9      	MOVLW 0xE9
0BF8  6F3F      	MOVWF CompTempVar2785+D'14', 1
0BFA  6B43      	CLRF CompTempVar2785+D'18', 1
0BFC  0E01      	MOVLW HIGH(CompTempVar2785+D'0')
0BFE  6F30      	MOVWF FCD_0f051__00066_arg_FCL_STR+D'1', 1
0C00  0E31      	MOVLW LOW(CompTempVar2785+D'0')
0C02  6F2F      	MOVWF FCD_0f051__00066_arg_FCL_STR, 1
0C04  0E13      	MOVLW 0x13
0C06  6F66      	MOVWF FCD_0f051__00066_arg_FCLsz_STR, 1
0C08  6B67      	CLRF FCD_0f051__00066_arg_FCLsz_STR+D'1', 1
0C0A  0E64      	MOVLW 0x64
0C0C  6F68      	MOVWF FCD_0f051__00066_arg_FCL_X1, 1
0C0E  6B69      	CLRF FCD_0f051__00066_arg_FCL_X1+D'1', 1
0C10  0EF1      	MOVLW 0xF1
0C12  6F6A      	MOVWF FCD_0f051__00066_arg_FCL_Y1, 1
0C14  6B6B      	CLRF FCD_0f051__00066_arg_FCL_Y1+D'1', 1
0C16  0E02      	MOVLW 0x02
0C18  6F6C      	MOVWF FCD_0f051__00066_arg_FCL_FONT, 1
0C1A  0E01      	MOVLW 0x01
0C1C  6F6D      	MOVWF FCD_0f051__00066_arg_FCL_T_00067, 1
0C1E  ECE4F002  	CALL FCD_0f051__00066
0C22  0012      	RETURN
0C24            label54
0C24  0E20      	MOVLW 0x20
0C26  6F35      	MOVWF CompTempVar2787+D'4', 1
0C28  6F3A      	MOVWF CompTempVar2787+D'9', 1
0C2A  6F40      	MOVWF CompTempVar2787+D'15', 1
0C2C  6F42      	MOVWF CompTempVar2787+D'17', 1
0C2E  0E21      	MOVLW 0x21
0C30  6F41      	MOVWF CompTempVar2787+D'16', 1
0C32  0E56      	MOVLW 0x56
0C34  6F31      	MOVWF CompTempVar2787, 1
0C36  0E61      	MOVLW 0x61
0C38  6F36      	MOVWF CompTempVar2787+D'5', 1
0C3A  0E64      	MOVLW 0x64
0C3C  6F3E      	MOVWF CompTempVar2787+D'13', 1
0C3E  0E65      	MOVLW 0x65
0C40  6F38      	MOVWF CompTempVar2787+D'7', 1
0C42  6F3C      	MOVWF CompTempVar2787+D'11', 1
0C44  0E6F      	MOVLW 0x6F
0C46  6F32      	MOVWF CompTempVar2787+D'1', 1
0C48  0E70      	MOVLW 0x70
0C4A  6F3B      	MOVWF CompTempVar2787+D'10', 1
0C4C  0E72      	MOVLW 0x72
0C4E  6F3D      	MOVWF CompTempVar2787+D'12', 1
0C50  0E73      	MOVLW 0x73
0C52  6F34      	MOVWF CompTempVar2787+D'3', 1
0C54  0E75      	MOVLW 0x75
0C56  6F33      	MOVWF CompTempVar2787+D'2', 1
0C58  6F3F      	MOVWF CompTempVar2787+D'14', 1
0C5A  0E76      	MOVLW 0x76
0C5C  6F37      	MOVWF CompTempVar2787+D'6', 1
0C5E  0E7A      	MOVLW 0x7A
0C60  6F39      	MOVWF CompTempVar2787+D'8', 1
0C62  6B43      	CLRF CompTempVar2787+D'18', 1
0C64  0E01      	MOVLW HIGH(CompTempVar2787+D'0')
0C66  6F30      	MOVWF FCD_0f051__00066_arg_FCL_STR+D'1', 1
0C68  0E31      	MOVLW LOW(CompTempVar2787+D'0')
0C6A  6F2F      	MOVWF FCD_0f051__00066_arg_FCL_STR, 1
0C6C  0E13      	MOVLW 0x13
0C6E  6F66      	MOVWF FCD_0f051__00066_arg_FCLsz_STR, 1
0C70  6B67      	CLRF FCD_0f051__00066_arg_FCLsz_STR+D'1', 1
0C72  0E64      	MOVLW 0x64
0C74  6F68      	MOVWF FCD_0f051__00066_arg_FCL_X1, 1
0C76  6B69      	CLRF FCD_0f051__00066_arg_FCL_X1+D'1', 1
0C78  0EF1      	MOVLW 0xF1
0C7A  6F6A      	MOVWF FCD_0f051__00066_arg_FCL_Y1, 1
0C7C  6B6B      	CLRF FCD_0f051__00066_arg_FCL_Y1+D'1', 1
0C7E  0E02      	MOVLW 0x02
0C80  6F6C      	MOVWF FCD_0f051__00066_arg_FCL_FONT, 1
0C82  0E01      	MOVLW 0x01
0C84  6F6D      	MOVWF FCD_0f051__00066_arg_FCL_T_00067, 1
0C86  ECE4F002  	CALL FCD_0f051__00066
0C8A  0012      	RETURN
0C8C            ; } FCM_Fin_Jeu function end

	ORG 0x00000C8C
0C8C            FCD_0f051__0008C
0C8C            ; { FCD_0f051_gLCD_EB076_4D1__DrawLine ; function begin
0C8C  6B31      	CLRF FCD_0f051__0008C_1_FCL_D1, 1
0C8E  6B32      	CLRF FCD_0f051__0008C_1_FCL_D1+D'1', 1
0C90  0E01      	MOVLW 0x01
0C92  6F33      	MOVWF FCD_0f051__0008C_1_FCL_YINC, 1
0C94  6B34      	CLRF FCD_0f051__0008C_1_FCL_YINC+D'1', 1
0C96  0E01      	MOVLW 0x01
0C98  6F35      	MOVWF FCD_0f051__0008C_1_FCL_XINC, 1
0C9A  6B36      	CLRF FCD_0f051__0008C_1_FCL_XINC+D'1', 1
0C9C  0E4C      	MOVLW 0x4C
0C9E  6F70      	MOVWF FC_CAL_UAR_00091_arg_nChar, 1
0CA0  6B71      	CLRF FC_CAL_UAR_00091_arg_nChar+D'1', 1
0CA2  EC46F000  	CALL FC_CAL_UAR_00091
0CA6  512A      	MOVF FCD_0f051__0008C_arg_FCL_X1+D'1', W, 1
0CA8  6F70      	MOVWF FC_CAL_UAR_00091_arg_nChar, 1
0CAA  6B71      	CLRF FC_CAL_UAR_00091_arg_nChar+D'1', 1
0CAC  EC46F000  	CALL FC_CAL_UAR_00091
0CB0  5129      	MOVF FCD_0f051__0008C_arg_FCL_X1, W, 1
0CB2  6F70      	MOVWF FC_CAL_UAR_00091_arg_nChar, 1
0CB4  512A      	MOVF FCD_0f051__0008C_arg_FCL_X1+D'1', W, 1
0CB6  6F71      	MOVWF FC_CAL_UAR_00091_arg_nChar+D'1', 1
0CB8  EC46F000  	CALL FC_CAL_UAR_00091
0CBC  512C      	MOVF FCD_0f051__0008C_arg_FCL_Y1+D'1', W, 1
0CBE  6F70      	MOVWF FC_CAL_UAR_00091_arg_nChar, 1
0CC0  6B71      	CLRF FC_CAL_UAR_00091_arg_nChar+D'1', 1
0CC2  EC46F000  	CALL FC_CAL_UAR_00091
0CC6  512B      	MOVF FCD_0f051__0008C_arg_FCL_Y1, W, 1
0CC8  6F70      	MOVWF FC_CAL_UAR_00091_arg_nChar, 1
0CCA  512C      	MOVF FCD_0f051__0008C_arg_FCL_Y1+D'1', W, 1
0CCC  6F71      	MOVWF FC_CAL_UAR_00091_arg_nChar+D'1', 1
0CCE  EC46F000  	CALL FC_CAL_UAR_00091
0CD2  512E      	MOVF FCD_0f051__0008C_arg_FCL_X2+D'1', W, 1
0CD4  6F70      	MOVWF FC_CAL_UAR_00091_arg_nChar, 1
0CD6  6B71      	CLRF FC_CAL_UAR_00091_arg_nChar+D'1', 1
0CD8  EC46F000  	CALL FC_CAL_UAR_00091
0CDC  512D      	MOVF FCD_0f051__0008C_arg_FCL_X2, W, 1
0CDE  6F70      	MOVWF FC_CAL_UAR_00091_arg_nChar, 1
0CE0  512E      	MOVF FCD_0f051__0008C_arg_FCL_X2+D'1', W, 1
0CE2  6F71      	MOVWF FC_CAL_UAR_00091_arg_nChar+D'1', 1
0CE4  EC46F000  	CALL FC_CAL_UAR_00091
0CE8  5130      	MOVF FCD_0f051__0008C_arg_FCL_Y2+D'1', W, 1
0CEA  6F70      	MOVWF FC_CAL_UAR_00091_arg_nChar, 1
0CEC  6B71      	CLRF FC_CAL_UAR_00091_arg_nChar+D'1', 1
0CEE  EC46F000  	CALL FC_CAL_UAR_00091
0CF2  512F      	MOVF FCD_0f051__0008C_arg_FCL_Y2, W, 1
0CF4  6F70      	MOVWF FC_CAL_UAR_00091_arg_nChar, 1
0CF6  5130      	MOVF FCD_0f051__0008C_arg_FCL_Y2+D'1', W, 1
0CF8  6F71      	MOVWF FC_CAL_UAR_00091_arg_nChar+D'1', 1
0CFA  EC46F000  	CALL FC_CAL_UAR_00091
0CFE  5105      	MOVF gbl_FCV_0f051_gLCD_EB076_4_0000D+D'1', W, 1
0D00  6F70      	MOVWF FC_CAL_UAR_00091_arg_nChar, 1
0D02  6B71      	CLRF FC_CAL_UAR_00091_arg_nChar+D'1', 1
0D04  EC46F000  	CALL FC_CAL_UAR_00091
0D08  5104      	MOVF gbl_FCV_0f051_gLCD_EB076_4_0000D, W, 1
0D0A  6F70      	MOVWF FC_CAL_UAR_00091_arg_nChar, 1
0D0C  5105      	MOVF gbl_FCV_0f051_gLCD_EB076_4_0000D+D'1', W, 1
0D0E  6F71      	MOVWF FC_CAL_UAR_00091_arg_nChar+D'1', 1
0D10  EC46F000  	CALL FC_CAL_UAR_00091
0D14  6970      	SETF FC_CAL_UAR_00090_arg_nTimeout, 1
0D16  EC4EF000  	CALL FC_CAL_UAR_00090
0D1A  0012      	RETURN
0D1C            ; } FCD_0f051_gLCD_EB076_4D1__DrawLine function end

	ORG 0x00000D1C
0D1C            FC_CAL_UAR_00092
0D1C            ; { FC_CAL_UART_Init_1 ; function begin
0D1C  84AC      	BSF gbl_txsta,2
0D1E  0E7F      	MOVLW 0x7F
0D20  6EAF      	MOVWF gbl_spbrg
0D22  6AAB      	CLRF gbl_rcsta
0D24  8EAB      	BSF gbl_rcsta,7
0D26  8AAC      	BSF gbl_txsta,5
0D28  88AB      	BSF gbl_rcsta,4
0D2A  9A9D      	BCF gbl_pie1,5
0D2C  0012      	RETURN
0D2E            ; } FC_CAL_UART_Init_1 function end

	ORG 0x00000D2E
0D2E            FC_CAL_UAR_0008E
0D2E            ; { FC_CAL_UART_UpdateBaud_1 ; function begin
0D2E  0E07      	MOVLW 0x07
0D30  652C      	CPFSGT FC_CAL_UAR_0008E_arg_new_baud, 1
0D32  D001      	BRA	label55
0D34  0012      	RETURN
0D36            label55
0D36  532C      	MOVF FC_CAL_UAR_0008E_arg_new_baud, F, 1
0D38  E104      	BNZ	label56
0D3A  692D      	SETF FC_CAL_UAR_0008E_1_baudrate, 1
0D3C  0E01      	MOVLW 0x01
0D3E  6F2E      	MOVWF FC_CAL_UAR_0008E_1_baudmode, 1
0D40  D02F      	BRA	label63
0D42            label56
0D42  052C      	DECF FC_CAL_UAR_0008E_arg_new_baud, W, 1
0D44  E105      	BNZ	label57
0D46  0E7F      	MOVLW 0x7F
0D48  6F2D      	MOVWF FC_CAL_UAR_0008E_1_baudrate, 1
0D4A  0E01      	MOVLW 0x01
0D4C  6F2E      	MOVWF FC_CAL_UAR_0008E_1_baudmode, 1
0D4E  D028      	BRA	label63
0D50            label57
0D50  0E02      	MOVLW 0x02
0D52  632C      	CPFSEQ FC_CAL_UAR_0008E_arg_new_baud, 1
0D54  D003      	BRA	label58
0D56  692D      	SETF FC_CAL_UAR_0008E_1_baudrate, 1
0D58  6B2E      	CLRF FC_CAL_UAR_0008E_1_baudmode, 1
0D5A  D022      	BRA	label63
0D5C            label58
0D5C  0E03      	MOVLW 0x03
0D5E  632C      	CPFSEQ FC_CAL_UAR_0008E_arg_new_baud, 1
0D60  D004      	BRA	label59
0D62  0E7F      	MOVLW 0x7F
0D64  6F2D      	MOVWF FC_CAL_UAR_0008E_1_baudrate, 1
0D66  6B2E      	CLRF FC_CAL_UAR_0008E_1_baudmode, 1
0D68  D01B      	BRA	label63
0D6A            label59
0D6A  0E04      	MOVLW 0x04
0D6C  632C      	CPFSEQ FC_CAL_UAR_0008E_arg_new_baud, 1
0D6E  D004      	BRA	label60
0D70  0E3F      	MOVLW 0x3F
0D72  6F2D      	MOVWF FC_CAL_UAR_0008E_1_baudrate, 1
0D74  6B2E      	CLRF FC_CAL_UAR_0008E_1_baudmode, 1
0D76  D014      	BRA	label63
0D78            label60
0D78  0E05      	MOVLW 0x05
0D7A  632C      	CPFSEQ FC_CAL_UAR_0008E_arg_new_baud, 1
0D7C  D004      	BRA	label61
0D7E  0E1F      	MOVLW 0x1F
0D80  6F2D      	MOVWF FC_CAL_UAR_0008E_1_baudrate, 1
0D82  6B2E      	CLRF FC_CAL_UAR_0008E_1_baudmode, 1
0D84  D00D      	BRA	label63
0D86            label61
0D86  0E06      	MOVLW 0x06
0D88  632C      	CPFSEQ FC_CAL_UAR_0008E_arg_new_baud, 1
0D8A  D004      	BRA	label62
0D8C  0E14      	MOVLW 0x14
0D8E  6F2D      	MOVWF FC_CAL_UAR_0008E_1_baudrate, 1
0D90  6B2E      	CLRF FC_CAL_UAR_0008E_1_baudmode, 1
0D92  D006      	BRA	label63
0D94            label62
0D94  0E07      	MOVLW 0x07
0D96  632C      	CPFSEQ FC_CAL_UAR_0008E_arg_new_baud, 1
0D98  D003      	BRA	label63
0D9A  0E0A      	MOVLW 0x0A
0D9C  6F2D      	MOVWF FC_CAL_UAR_0008E_1_baudrate, 1
0D9E  6B2E      	CLRF FC_CAL_UAR_0008E_1_baudmode, 1
0DA0            label63
0DA0  EC57F003  	CALL FC_CAL_UAR_0008F
0DA4  052E      	DECF FC_CAL_UAR_0008E_1_baudmode, W, 1
0DA6  E102      	BNZ	label64
0DA8  94AC      	BCF gbl_txsta,2
0DAA  D001      	BRA	label65
0DAC            label64
0DAC  84AC      	BSF gbl_txsta,2
0DAE            label65
0DAE  512D      	MOVF FC_CAL_UAR_0008E_1_baudrate, W, 1
0DB0  6EAF      	MOVWF gbl_spbrg
0DB2  6AAB      	CLRF gbl_rcsta
0DB4  8EAB      	BSF gbl_rcsta,7
0DB6  8AAC      	BSF gbl_txsta,5
0DB8  88AB      	BSF gbl_rcsta,4
0DBA  9A9D      	BCF gbl_pie1,5
0DBC  0012      	RETURN
0DBE            ; } FC_CAL_UART_UpdateBaud_1 function end

	ORG 0x00000DBE
0DBE            FC_CAL_Por_00042
0DBE            ; { FC_CAL_Port_In_DDR__x ; function begin
0DBE  512F      	MOVF FC_CAL_Por_00042_arg_Tris+D'1', W, 1
0DC0  6EEA      	MOVWF FSR0H
0DC2  512E      	MOVF FC_CAL_Por_00042_arg_Tris, W, 1
0DC4  6EE9      	MOVWF FSR0L
0DC6  5130      	MOVF FC_CAL_Por_00042_arg_InMask, W, 1
0DC8  10EF      	IORWF INDF0, W
0DCA  6F32      	MOVWF CompTempVar1825, 1
0DCC  5132      	MOVF CompTempVar1825, W, 1
0DCE  6EEF      	MOVWF INDF0
0DD0  512D      	MOVF FC_CAL_Por_00042_arg_Port+D'1', W, 1
0DD2  6EEA      	MOVWF FSR0H
0DD4  512C      	MOVF FC_CAL_Por_00042_arg_Port, W, 1
0DD6  6EE9      	MOVWF FSR0L
0DD8  5130      	MOVF FC_CAL_Por_00042_arg_InMask, W, 1
0DDA  14EF      	ANDWF INDF0, W
0DDC  6F32      	MOVWF CompTempVarRet1822, 1
0DDE  5131      	MOVF FC_CAL_Por_00042_arg_Shift, W, 1
0DE0  6F33      	MOVWF CompTempVar1827, 1
0DE2            label66
0DE2  B4D8      	BTFSC STATUS,Z
0DE4  0012      	RETURN
0DE6  90D8      	BCF STATUS,C
0DE8  3332      	RRCF CompTempVarRet1822, F, 1
0DEA  0733      	DECF CompTempVar1827, F, 1
0DEC  D7FA      	BRA	label66
0DEE            ; } FC_CAL_Port_In_DDR__x function end

	ORG 0x00000DEE
0DEE            FCM_phase__0007B
0DEE            ; { FCM_phase_Fin ; function begin
0DEE  0101      	MOVLB 0x01
0DF0  6B2C      	CLRF CompTempVar2784, 1
0DF2  2B2C      	INCF CompTempVar2784, F, 1
0DF4  6715      	TSTFSZ gbl_FCV_TORPILLEUR, 1
0DF6  912C      	BCF CompTempVar2784,0, 1
0DF8  6B28      	CLRF CompTempVar2777, 1
0DFA  2B28      	INCF CompTempVar2777, F, 1
0DFC  6714      	TSTFSZ gbl_FCV_CROISEUR, 1
0DFE  9128      	BCF CompTempVar2777,0, 1
0E00  5128      	MOVF CompTempVar2777, W, 1
0E02  172C      	ANDWF CompTempVar2784, F, 1
0E04  6B29      	CLRF CompTempVar2779, 1
0E06  2B29      	INCF CompTempVar2779, F, 1
0E08  671C      	TSTFSZ gbl_FCV_PORTE_AVION, 1
0E0A  9129      	BCF CompTempVar2779,0, 1
0E0C  5129      	MOVF CompTempVar2779, W, 1
0E0E  172C      	ANDWF CompTempVar2784, F, 1
0E10  6B2A      	CLRF CompTempVar2781, 1
0E12  2B2A      	INCF CompTempVar2781, F, 1
0E14  671E      	TSTFSZ gbl_FCV_CONTRE_TORPILLEUR, 1
0E16  912A      	BCF CompTempVar2781,0, 1
0E18  512A      	MOVF CompTempVar2781, W, 1
0E1A  172C      	ANDWF CompTempVar2784, F, 1
0E1C  6B2B      	CLRF CompTempVar2783, 1
0E1E  2B2B      	INCF CompTempVar2783, F, 1
0E20  6717      	TSTFSZ gbl_FCV_SOUS_MARIN, 1
0E22  912B      	BCF CompTempVar2783,0, 1
0E24  512B      	MOVF CompTempVar2783, W, 1
0E26  152C      	ANDWF CompTempVar2784, W, 1
0E28  A4D8      	BTFSS STATUS,Z
0E2A  ECDBF005  	CALL FCM_Fin_Je_0007C
0E2E  0012      	RETURN
0E30            ; } FCM_phase_Fin function end

	ORG 0x00000E30
0E30            FCM_lignes_00000
0E30            ; { FCM_lignes ; function begin
0E30  0E18      	MOVLW 0x18
0E32  0100      	MOVLB 0x00
0E34  6FEF      	MOVWF gbl_FCV_X_LIGNE, 1
0E36  6BF0      	CLRF gbl_FCV_X_LIGNE+D'1', 1
0E38  0E18      	MOVLW 0x18
0E3A  6FE9      	MOVWF gbl_FCV_Y_LIGNE, 1
0E3C  6BEA      	CLRF gbl_FCV_Y_LIGNE+D'1', 1
0E3E            label67
0E3E  0100      	MOVLB 0x00
0E40  51EF      	MOVF gbl_FCV_X_LIGNE, W, 1
0E42  0101      	MOVLB 0x01
0E44  6F29      	MOVWF FCD_0f051__0008C_arg_FCL_X1, 1
0E46  0100      	MOVLB 0x00
0E48  51F0      	MOVF gbl_FCV_X_LIGNE+D'1', W, 1
0E4A  0101      	MOVLB 0x01
0E4C  6F2A      	MOVWF FCD_0f051__0008C_arg_FCL_X1+D'1', 1
0E4E  6B2B      	CLRF FCD_0f051__0008C_arg_FCL_Y1, 1
0E50  6B2C      	CLRF FCD_0f051__0008C_arg_FCL_Y1+D'1', 1
0E52  0100      	MOVLB 0x00
0E54  51EF      	MOVF gbl_FCV_X_LIGNE, W, 1
0E56  0101      	MOVLB 0x01
0E58  6F2D      	MOVWF FCD_0f051__0008C_arg_FCL_X2, 1
0E5A  0100      	MOVLB 0x00
0E5C  51F0      	MOVF gbl_FCV_X_LIGNE+D'1', W, 1
0E5E  0101      	MOVLB 0x01
0E60  6F2E      	MOVWF FCD_0f051__0008C_arg_FCL_X2+D'1', 1
0E62  0EF0      	MOVLW 0xF0
0E64  6F2F      	MOVWF FCD_0f051__0008C_arg_FCL_Y2, 1
0E66  6B30      	CLRF FCD_0f051__0008C_arg_FCL_Y2+D'1', 1
0E68  EC46F006  	CALL FCD_0f051__0008C
0E6C  6B29      	CLRF CompTempVar2725, 1
0E6E  0E18      	MOVLW 0x18
0E70  0100      	MOVLB 0x00
0E72  27EF      	ADDWF gbl_FCV_X_LIGNE, F, 1
0E74  51F0      	MOVF gbl_FCV_X_LIGNE+D'1', W, 1
0E76  0101      	MOVLB 0x01
0E78  2329      	ADDWFC CompTempVar2725, F, 1
0E7A  5129      	MOVF CompTempVar2725, W, 1
0E7C  0100      	MOVLB 0x00
0E7E  6FF0      	MOVWF gbl_FCV_X_LIGNE+D'1', 1
0E80  0101      	MOVLB 0x01
0E82  6B28      	CLRF CompTempVar2723, 1
0E84  0EF0      	MOVLW 0xF0
0E86  0100      	MOVLB 0x00
0E88  63EF      	CPFSEQ gbl_FCV_X_LIGNE, 1
0E8A  D004      	BRA	label68
0E8C  51F0      	MOVF gbl_FCV_X_LIGNE+D'1', W, 1
0E8E  E102      	BNZ	label68
0E90  0101      	MOVLB 0x01
0E92  2B28      	INCF CompTempVar2723, F, 1
0E94            label68
0E94  0101      	MOVLB 0x01
0E96  5328      	MOVF CompTempVar2723, F, 1
0E98  E0D2      	BZ	label67
0E9A            label69
0E9A  6B29      	CLRF FCD_0f051__0008C_arg_FCL_X1, 1
0E9C  6B2A      	CLRF FCD_0f051__0008C_arg_FCL_X1+D'1', 1
0E9E  0100      	MOVLB 0x00
0EA0  51E9      	MOVF gbl_FCV_Y_LIGNE, W, 1
0EA2  0101      	MOVLB 0x01
0EA4  6F2B      	MOVWF FCD_0f051__0008C_arg_FCL_Y1, 1
0EA6  0100      	MOVLB 0x00
0EA8  51EA      	MOVF gbl_FCV_Y_LIGNE+D'1', W, 1
0EAA  0101      	MOVLB 0x01
0EAC  6F2C      	MOVWF FCD_0f051__0008C_arg_FCL_Y1+D'1', 1
0EAE  0EF0      	MOVLW 0xF0
0EB0  6F2D      	MOVWF FCD_0f051__0008C_arg_FCL_X2, 1
0EB2  6B2E      	CLRF FCD_0f051__0008C_arg_FCL_X2+D'1', 1
0EB4  0100      	MOVLB 0x00
0EB6  51E9      	MOVF gbl_FCV_Y_LIGNE, W, 1
0EB8  0101      	MOVLB 0x01
0EBA  6F2F      	MOVWF FCD_0f051__0008C_arg_FCL_Y2, 1
0EBC  0100      	MOVLB 0x00
0EBE  51EA      	MOVF gbl_FCV_Y_LIGNE+D'1', W, 1
0EC0  0101      	MOVLB 0x01
0EC2  6F30      	MOVWF FCD_0f051__0008C_arg_FCL_Y2+D'1', 1
0EC4  EC46F006  	CALL FCD_0f051__0008C
0EC8  6B29      	CLRF CompTempVar2728, 1
0ECA  0E18      	MOVLW 0x18
0ECC  0100      	MOVLB 0x00
0ECE  27E9      	ADDWF gbl_FCV_Y_LIGNE, F, 1
0ED0  51EA      	MOVF gbl_FCV_Y_LIGNE+D'1', W, 1
0ED2  0101      	MOVLB 0x01
0ED4  2329      	ADDWFC CompTempVar2728, F, 1
0ED6  5129      	MOVF CompTempVar2728, W, 1
0ED8  0100      	MOVLB 0x00
0EDA  6FEA      	MOVWF gbl_FCV_Y_LIGNE+D'1', 1
0EDC  0101      	MOVLB 0x01
0EDE  6B28      	CLRF CompTempVar2726, 1
0EE0  0EF0      	MOVLW 0xF0
0EE2  0100      	MOVLB 0x00
0EE4  65E9      	CPFSGT gbl_FCV_Y_LIGNE, 1
0EE6  67EA      	TSTFSZ gbl_FCV_Y_LIGNE+D'1', 1
0EE8  D002      	BRA	label70
0EEA  0101      	MOVLB 0x01
0EEC  2B28      	INCF CompTempVar2726, F, 1
0EEE            label70
0EEE  0101      	MOVLB 0x01
0EF0  5328      	MOVF CompTempVar2726, F, 1
0EF2  E1D3      	BNZ	label69
0EF4  0012      	RETURN
0EF6            ; } FCM_lignes function end

	ORG 0x00000EF6
0EF6            FCM_Touche_00088
0EF6            ; { FCM_Touche_coule_CR ; function begin
0EF6  EC68F005  	CALL FCM_Messag_0005C
0EFA  0100      	MOVLB 0x00
0EFC  EE00F080  	LFSR 0x00, gbl_FCV_TABLEAUJ1
0F00  50E9      	MOVF FSR0L, W
0F02  0101      	MOVLB 0x01
0F04  5113      	MOVF gbl_FCV_HITBOX_JOUEUR_1, W, 1
0F06  26E9      	ADDWF FSR0L, F
0F08  0E80      	MOVLW 0x80
0F0A  10EF      	IORWF INDF0, W
0F0C  6F28      	MOVWF CompTempVar2863, 1
0F0E  0E80      	MOVLW LOW(gbl_FCV_TABLEAUJ1+D'0')
0F10  6EE9      	MOVWF FSR0L
0F12  5113      	MOVF gbl_FCV_HITBOX_JOUEUR_1, W, 1
0F14  26E9      	ADDWF FSR0L, F
0F16  5128      	MOVF CompTempVar2863, W, 1
0F18  6EEF      	MOVWF INDF0
0F1A  0E10      	MOVLW 0x10
0F1C  5D14      	SUBWF gbl_FCV_CROISEUR, W, 1
0F1E  6F14      	MOVWF gbl_FCV_CROISEUR, 1
0F20  0012      	RETURN
0F22            ; } FCM_Touche_coule_CR function end

	ORG 0x00000F22
0F22            FCM_Touche_00086
0F22            ; { FCM_Touche_Coule_CT ; function begin
0F22  EC68F005  	CALL FCM_Messag_0005C
0F26  051E      	DECF gbl_FCV_CONTRE_TORPILLEUR, W, 1
0F28  6F1E      	MOVWF gbl_FCV_CONTRE_TORPILLEUR, 1
0F2A  0100      	MOVLB 0x00
0F2C  EE00F080  	LFSR 0x00, gbl_FCV_TABLEAUJ1
0F30  50E9      	MOVF FSR0L, W
0F32  0101      	MOVLB 0x01
0F34  5113      	MOVF gbl_FCV_HITBOX_JOUEUR_1, W, 1
0F36  26E9      	ADDWF FSR0L, F
0F38  0E80      	MOVLW 0x80
0F3A  10EF      	IORWF INDF0, W
0F3C  6F28      	MOVWF CompTempVar2835, 1
0F3E  0E80      	MOVLW LOW(gbl_FCV_TABLEAUJ1+D'0')
0F40  6EE9      	MOVWF FSR0L
0F42  5113      	MOVF gbl_FCV_HITBOX_JOUEUR_1, W, 1
0F44  26E9      	ADDWF FSR0L, F
0F46  5128      	MOVF CompTempVar2835, W, 1
0F48  6EEF      	MOVWF INDF0
0F4A  0012      	RETURN
0F4C            ; } FCM_Touche_Coule_CT function end

	ORG 0x00000F4C
0F4C            FCM_Touche_0006B
0F4C            ; { FCM_Touche_Coule_SM ; function begin
0F4C  EC68F005  	CALL FCM_Messag_0005C
0F50  0100      	MOVLB 0x00
0F52  EE00F080  	LFSR 0x00, gbl_FCV_TABLEAUJ1
0F56  50E9      	MOVF FSR0L, W
0F58  0101      	MOVLB 0x01
0F5A  5113      	MOVF gbl_FCV_HITBOX_JOUEUR_1, W, 1
0F5C  26E9      	ADDWF FSR0L, F
0F5E  0E80      	MOVLW 0x80
0F60  10EF      	IORWF INDF0, W
0F62  6F28      	MOVWF CompTempVar2686, 1
0F64  0E80      	MOVLW LOW(gbl_FCV_TABLEAUJ1+D'0')
0F66  6EE9      	MOVWF FSR0L
0F68  5113      	MOVF gbl_FCV_HITBOX_JOUEUR_1, W, 1
0F6A  26E9      	ADDWF FSR0L, F
0F6C  5128      	MOVF CompTempVar2686, W, 1
0F6E  6EEF      	MOVWF INDF0
0F70  0517      	DECF gbl_FCV_SOUS_MARIN, W, 1
0F72  6F17      	MOVWF gbl_FCV_SOUS_MARIN, 1
0F74  0012      	RETURN
0F76            ; } FCM_Touche_Coule_SM function end

	ORG 0x00000F76
0F76            FCM_Touche_00064
0F76            ; { FCM_Touche_coule_PA ; function begin
0F76  EC68F005  	CALL FCM_Messag_0005C
0F7A  0100      	MOVLB 0x00
0F7C  EE00F080  	LFSR 0x00, gbl_FCV_TABLEAUJ1
0F80  50E9      	MOVF FSR0L, W
0F82  0101      	MOVLB 0x01
0F84  5113      	MOVF gbl_FCV_HITBOX_JOUEUR_1, W, 1
0F86  26E9      	ADDWF FSR0L, F
0F88  0E80      	MOVLW 0x80
0F8A  10EF      	IORWF INDF0, W
0F8C  6F28      	MOVWF CompTempVar2662, 1
0F8E  0E80      	MOVLW LOW(gbl_FCV_TABLEAUJ1+D'0')
0F90  6EE9      	MOVWF FSR0L
0F92  5113      	MOVF gbl_FCV_HITBOX_JOUEUR_1, W, 1
0F94  26E9      	ADDWF FSR0L, F
0F96  5128      	MOVF CompTempVar2662, W, 1
0F98  6EEF      	MOVWF INDF0
0F9A  051C      	DECF gbl_FCV_PORTE_AVION, W, 1
0F9C  6F1C      	MOVWF gbl_FCV_PORTE_AVION, 1
0F9E  0012      	RETURN
0FA0            ; } FCM_Touche_coule_PA function end

	ORG 0x00000FA0
0FA0            FCM_Touche_0005B
0FA0            ; { FCM_Touche_Coule_TORP ; function begin
0FA0  EC68F005  	CALL FCM_Messag_0005C
0FA4  0100      	MOVLB 0x00
0FA6  EE00F080  	LFSR 0x00, gbl_FCV_TABLEAUJ1
0FAA  50E9      	MOVF FSR0L, W
0FAC  0101      	MOVLB 0x01
0FAE  5113      	MOVF gbl_FCV_HITBOX_JOUEUR_1, W, 1
0FB0  26E9      	ADDWF FSR0L, F
0FB2  0E80      	MOVLW 0x80
0FB4  10EF      	IORWF INDF0, W
0FB6  6F28      	MOVWF CompTempVar2634, 1
0FB8  0E80      	MOVLW LOW(gbl_FCV_TABLEAUJ1+D'0')
0FBA  6EE9      	MOVWF FSR0L
0FBC  5113      	MOVF gbl_FCV_HITBOX_JOUEUR_1, W, 1
0FBE  26E9      	ADDWF FSR0L, F
0FC0  5128      	MOVF CompTempVar2634, W, 1
0FC2  6EEF      	MOVWF INDF0
0FC4  0515      	DECF gbl_FCV_TORPILLEUR, W, 1
0FC6  6F15      	MOVWF gbl_FCV_TORPILLEUR, 1
0FC8  0012      	RETURN
0FCA            ; } FCM_Touche_Coule_TORP function end

	ORG 0x00000FCA
0FCA            FCM_Torpil_00063
0FCA            ; { FCM_Torpilleur ; function begin
0FCA  EC5AF003  	CALL FCM_hitbox_0006A
0FCE  EE00F080  	LFSR 0x00, gbl_FCV_TABLEAUJ1
0FD2  50E9      	MOVF FSR0L, W
0FD4  0101      	MOVLB 0x01
0FD6  5113      	MOVF gbl_FCV_HITBOX_JOUEUR_1, W, 1
0FD8  26E9      	ADDWF FSR0L, F
0FDA  0E05      	MOVLW 0x05
0FDC  6EEF      	MOVWF INDF0
0FDE  291B      	INCF gbl_FCV_BATEAU, W, 1
0FE0  6F1B      	MOVWF gbl_FCV_BATEAU, 1
0FE2  0100      	MOVLB 0x00
0FE4  6BEB      	CLRF gbl_FCV_X_SORTIE, 1
0FE6  6BEC      	CLRF gbl_FCV_X_SORTIE+D'1', 1
0FE8  0101      	MOVLB 0x01
0FEA  6B19      	CLRF gbl_FCV_APPUI_ECRAN, 1
0FEC  0100      	MOVLB 0x00
0FEE  6BF3      	CLRF gbl_FCV_X, 1
0FF0  6BF4      	CLRF gbl_FCV_X+D'1', 1
0FF2  6BF1      	CLRF gbl_FCV_Y, 1
0FF4  6BF2      	CLRF gbl_FCV_Y+D'1', 1
0FF6  0101      	MOVLB 0x01
0FF8  2915      	INCF gbl_FCV_TORPILLEUR, W, 1
0FFA  6F15      	MOVWF gbl_FCV_TORPILLEUR, 1
0FFC  0012      	RETURN
0FFE            ; } FCM_Torpilleur function end

	ORG 0x00000FFE
0FFE            FCM_Sous_m_00062
0FFE            ; { FCM_Sous_marin ; function begin
0FFE  EC5AF003  	CALL FCM_hitbox_0006A
1002  EE00F080  	LFSR 0x00, gbl_FCV_TABLEAUJ1
1006  50E9      	MOVF FSR0L, W
1008  0101      	MOVLB 0x01
100A  5113      	MOVF gbl_FCV_HITBOX_JOUEUR_1, W, 1
100C  26E9      	ADDWF FSR0L, F
100E  0E04      	MOVLW 0x04
1010  6EEF      	MOVWF INDF0
1012  291B      	INCF gbl_FCV_BATEAU, W, 1
1014  6F1B      	MOVWF gbl_FCV_BATEAU, 1
1016  0100      	MOVLB 0x00
1018  6BEB      	CLRF gbl_FCV_X_SORTIE, 1
101A  6BEC      	CLRF gbl_FCV_X_SORTIE+D'1', 1
101C  0101      	MOVLB 0x01
101E  6B19      	CLRF gbl_FCV_APPUI_ECRAN, 1
1020  0100      	MOVLB 0x00
1022  6BF3      	CLRF gbl_FCV_X, 1
1024  6BF4      	CLRF gbl_FCV_X+D'1', 1
1026  6BF1      	CLRF gbl_FCV_Y, 1
1028  6BF2      	CLRF gbl_FCV_Y+D'1', 1
102A  0101      	MOVLB 0x01
102C  2917      	INCF gbl_FCV_SOUS_MARIN, W, 1
102E  6F17      	MOVWF gbl_FCV_SOUS_MARIN, 1
1030  0012      	RETURN
1032            ; } FCM_Sous_marin function end

	ORG 0x00001032
1032            FCM_Porte__0005F
1032            ; { FCM_Porte_avion ; function begin
1032  EC5AF003  	CALL FCM_hitbox_0006A
1036  EE00F080  	LFSR 0x00, gbl_FCV_TABLEAUJ1
103A  50E9      	MOVF FSR0L, W
103C  0101      	MOVLB 0x01
103E  5113      	MOVF gbl_FCV_HITBOX_JOUEUR_1, W, 1
1040  26E9      	ADDWF FSR0L, F
1042  0E01      	MOVLW 0x01
1044  6EEF      	MOVWF INDF0
1046  291B      	INCF gbl_FCV_BATEAU, W, 1
1048  6F1B      	MOVWF gbl_FCV_BATEAU, 1
104A  0100      	MOVLB 0x00
104C  6BEB      	CLRF gbl_FCV_X_SORTIE, 1
104E  6BEC      	CLRF gbl_FCV_X_SORTIE+D'1', 1
1050  0101      	MOVLB 0x01
1052  6B19      	CLRF gbl_FCV_APPUI_ECRAN, 1
1054  0100      	MOVLB 0x00
1056  6BF3      	CLRF gbl_FCV_X, 1
1058  6BF4      	CLRF gbl_FCV_X+D'1', 1
105A  6BF1      	CLRF gbl_FCV_Y, 1
105C  6BF2      	CLRF gbl_FCV_Y+D'1', 1
105E  0101      	MOVLB 0x01
1060  291C      	INCF gbl_FCV_PORTE_AVION, W, 1
1062  6F1C      	MOVWF gbl_FCV_PORTE_AVION, 1
1064  0012      	RETURN
1066            ; } FCM_Porte_avion function end

	ORG 0x00001066
1066            FCM_Manque_00000
1066            ; { FCM_Manque ; function begin
1066  0100      	MOVLB 0x00
1068  51F3      	MOVF gbl_FCV_X, W, 1
106A  0101      	MOVLB 0x01
106C  6F2F      	MOVWF FCM_parame_00065_arg_FCL_POS_X1, 1
106E  0100      	MOVLB 0x00
1070  51F4      	MOVF gbl_FCV_X+D'1', W, 1
1072  0101      	MOVLB 0x01
1074  6F30      	MOVWF FCM_parame_00065_arg_FCL_POS_X1+D'1', 1
1076  0E18      	MOVLW 0x18
1078  0100      	MOVLB 0x00
107A  5DF3      	SUBWF gbl_FCV_X, W, 1
107C  0101      	MOVLB 0x01
107E  6F31      	MOVWF FCM_parame_00065_arg_FCL_POS_X2, 1
1080  0100      	MOVLB 0x00
1082  59F3      	SUBWFB gbl_FCV_X, W, 1
1084  0818      	SUBLW 0x18
1086  5DF4      	SUBWF gbl_FCV_X+D'1', W, 1
1088  0101      	MOVLB 0x01
108A  6F32      	MOVWF FCM_parame_00065_arg_FCL_POS_X2+D'1', 1
108C  0100      	MOVLB 0x00
108E  51F1      	MOVF gbl_FCV_Y, W, 1
1090  0101      	MOVLB 0x01
1092  6F33      	MOVWF FCM_parame_00065_arg_FCL_POS_Y1, 1
1094  0100      	MOVLB 0x00
1096  51F2      	MOVF gbl_FCV_Y+D'1', W, 1
1098  0101      	MOVLB 0x01
109A  6F34      	MOVWF FCM_parame_00065_arg_FCL_POS_Y1+D'1', 1
109C  0E18      	MOVLW 0x18
109E  0100      	MOVLB 0x00
10A0  5DF1      	SUBWF gbl_FCV_Y, W, 1
10A2  0101      	MOVLB 0x01
10A4  6F35      	MOVWF FCM_parame_00065_arg_FCL_POS_Y2, 1
10A6  0100      	MOVLB 0x00
10A8  59F1      	SUBWFB gbl_FCV_Y, W, 1
10AA  0818      	SUBLW 0x18
10AC  5DF2      	SUBWF gbl_FCV_Y+D'1', W, 1
10AE  0101      	MOVLB 0x01
10B0  6F36      	MOVWF FCM_parame_00065_arg_FCL_POS_Y2+D'1', 1
10B2  0E38      	MOVLW 0x38
10B4  6F37      	MOVWF FCM_parame_00065_arg_FCL_ROUGE, 1
10B6  0E99      	MOVLW 0x99
10B8  6F38      	MOVWF FCM_parame_00065_arg_FCL_VERT, 1
10BA  0EF3      	MOVLW 0xF3
10BC  6F39      	MOVWF FCM_parame_00065_arg_FCL_BLEU, 1
10BE  EC6EF001  	CALL FCM_parame_00065
10C2  0E20      	MOVLW 0x20
10C4  6F31      	MOVWF CompTempVar2820, 1
10C6  6F32      	MOVWF CompTempVar2820+D'1', 1
10C8  6F33      	MOVWF CompTempVar2820+D'2', 1
10CA  6F34      	MOVWF CompTempVar2820+D'3', 1
10CC  6F35      	MOVWF CompTempVar2820+D'4', 1
10CE  6F36      	MOVWF CompTempVar2820+D'5', 1
10D0  6F37      	MOVWF CompTempVar2820+D'6', 1
10D2  6F38      	MOVWF CompTempVar2820+D'7', 1
10D4  6F39      	MOVWF CompTempVar2820+D'8', 1
10D6  6F3A      	MOVWF CompTempVar2820+D'9', 1
10D8  6F3B      	MOVWF CompTempVar2820+D'10', 1
10DA  6F3C      	MOVWF CompTempVar2820+D'11', 1
10DC  6F43      	MOVWF CompTempVar2820+D'18', 1
10DE  6F44      	MOVWF CompTempVar2820+D'19', 1
10E0  6F45      	MOVWF CompTempVar2820+D'20', 1
10E2  0E4D      	MOVLW 0x4D
10E4  6F3D      	MOVWF CompTempVar2820+D'12', 1
10E6  0E61      	MOVLW 0x61
10E8  6F3E      	MOVWF CompTempVar2820+D'13', 1
10EA  0E65      	MOVLW 0x65
10EC  6F42      	MOVWF CompTempVar2820+D'17', 1
10EE  0E6E      	MOVLW 0x6E
10F0  6F3F      	MOVWF CompTempVar2820+D'14', 1
10F2  0E71      	MOVLW 0x71
10F4  6F40      	MOVWF CompTempVar2820+D'15', 1
10F6  0E75      	MOVLW 0x75
10F8  6F41      	MOVWF CompTempVar2820+D'16', 1
10FA  6B46      	CLRF CompTempVar2820+D'21', 1
10FC  0E01      	MOVLW HIGH(CompTempVar2820+D'0')
10FE  6F30      	MOVWF FCD_0f051__00066_arg_FCL_STR+D'1', 1
1100  0E31      	MOVLW LOW(CompTempVar2820+D'0')
1102  6F2F      	MOVWF FCD_0f051__00066_arg_FCL_STR, 1
1104  0E16      	MOVLW 0x16
1106  6F66      	MOVWF FCD_0f051__00066_arg_FCLsz_STR, 1
1108  6B67      	CLRF FCD_0f051__00066_arg_FCLsz_STR+D'1', 1
110A  6B68      	CLRF FCD_0f051__00066_arg_FCL_X1, 1
110C  6B69      	CLRF FCD_0f051__00066_arg_FCL_X1+D'1', 1
110E  0EF1      	MOVLW 0xF1
1110  6F6A      	MOVWF FCD_0f051__00066_arg_FCL_Y1, 1
1112  6B6B      	CLRF FCD_0f051__00066_arg_FCL_Y1+D'1', 1
1114  0E02      	MOVLW 0x02
1116  6F6C      	MOVWF FCD_0f051__00066_arg_FCL_FONT, 1
1118  0E01      	MOVLW 0x01
111A  6F6D      	MOVWF FCD_0f051__00066_arg_FCL_T_00067, 1
111C  ECE4F002  	CALL FCD_0f051__00066
1120  0012      	RETURN
1122            ; } FCM_Manque function end

	ORG 0x00001122
1122            FCM_Croise_00060
1122            ; { FCM_Croiseur ; function begin
1122  0E01      	MOVLW 0x01
1124  0101      	MOVLB 0x01
1126  6F13      	MOVWF gbl_FCV_HITBOX_JOUEUR_1, 1
1128  0E18      	MOVLW 0x18
112A  0100      	MOVLB 0x00
112C  6FF1      	MOVWF gbl_FCV_Y, 1
112E  6BF2      	CLRF gbl_FCV_Y+D'1', 1
1130  0E18      	MOVLW 0x18
1132  6FF3      	MOVWF gbl_FCV_X, 1
1134  6BF4      	CLRF gbl_FCV_X+D'1', 1
1136  EC5AF003  	CALL FCM_hitbox_0006A
113A  EE00F080  	LFSR 0x00, gbl_FCV_TABLEAUJ1
113E  50E9      	MOVF FSR0L, W
1140  0101      	MOVLB 0x01
1142  5113      	MOVF gbl_FCV_HITBOX_JOUEUR_1, W, 1
1144  26E9      	ADDWF FSR0L, F
1146  0E02      	MOVLW 0x02
1148  6EEF      	MOVWF INDF0
114A  291B      	INCF gbl_FCV_BATEAU, W, 1
114C  6F1B      	MOVWF gbl_FCV_BATEAU, 1
114E  0100      	MOVLB 0x00
1150  6BEB      	CLRF gbl_FCV_X_SORTIE, 1
1152  6BEC      	CLRF gbl_FCV_X_SORTIE+D'1', 1
1154  0101      	MOVLB 0x01
1156  6B19      	CLRF gbl_FCV_APPUI_ECRAN, 1
1158  0100      	MOVLB 0x00
115A  6BF3      	CLRF gbl_FCV_X, 1
115C  6BF4      	CLRF gbl_FCV_X+D'1', 1
115E  6BF1      	CLRF gbl_FCV_Y, 1
1160  6BF2      	CLRF gbl_FCV_Y+D'1', 1
1162  0101      	MOVLB 0x01
1164  2914      	INCF gbl_FCV_CROISEUR, W, 1
1166  6F14      	MOVWF gbl_FCV_CROISEUR, 1
1168  0012      	RETURN
116A            ; } FCM_Croiseur function end

	ORG 0x0000116A
116A            FCM_Contre_00061
116A            ; { FCM_Contre_torpilleur ; function begin
116A  EC5AF003  	CALL FCM_hitbox_0006A
116E  EE00F080  	LFSR 0x00, gbl_FCV_TABLEAUJ1
1172  50E9      	MOVF FSR0L, W
1174  0101      	MOVLB 0x01
1176  5113      	MOVF gbl_FCV_HITBOX_JOUEUR_1, W, 1
1178  26E9      	ADDWF FSR0L, F
117A  0E03      	MOVLW 0x03
117C  6EEF      	MOVWF INDF0
117E  291B      	INCF gbl_FCV_BATEAU, W, 1
1180  6F1B      	MOVWF gbl_FCV_BATEAU, 1
1182  0100      	MOVLB 0x00
1184  6BEB      	CLRF gbl_FCV_X_SORTIE, 1
1186  6BEC      	CLRF gbl_FCV_X_SORTIE+D'1', 1
1188  0101      	MOVLB 0x01
118A  6B19      	CLRF gbl_FCV_APPUI_ECRAN, 1
118C  0100      	MOVLB 0x00
118E  6BF3      	CLRF gbl_FCV_X, 1
1190  6BF4      	CLRF gbl_FCV_X+D'1', 1
1192  6BF1      	CLRF gbl_FCV_Y, 1
1194  6BF2      	CLRF gbl_FCV_Y+D'1', 1
1196  0101      	MOVLB 0x01
1198  291E      	INCF gbl_FCV_CONTRE_TORPILLEUR, W, 1
119A  6F1E      	MOVWF gbl_FCV_CONTRE_TORPILLEUR, 1
119C  0012      	RETURN
119E            ; } FCM_Contre_torpilleur function end

	ORG 0x0000119E
119E            FCM_Choix__0005E
119E            ; { FCM_Choix_Bateaux ; function begin
119E  ECC9F001  	CALL FCM_Reinit_00071
11A2  ECACF003  	CALL FCM_Reinit_00075
11A6  ECC2F003  	CALL FCM_Messag_00070
11AA            label71
11AA  5319      	MOVF gbl_FCV_APPUI_ECRAN, F, 1
11AC  E103      	BNZ	label72
11AE  ECBDF003  	CALL FCM_Recupe_00079
11B2  D7FB      	BRA	label71
11B4            label72
11B4  ECC3F005  	CALL FCM_Lectur_00068
11B8  0E64      	MOVLW 0x64
11BA  0101      	MOVLB 0x01
11BC  6F2F      	MOVWF delay_ms_00000_arg_del, 1
11BE  EC06F000  	CALL delay_ms_00000
11C2  0012      	RETURN
11C4            ; } FCM_Choix_Bateaux function end

	ORG 0x000011C4
11C4            FCM_Affich_00074
11C4            ; { FCM_Affichage_Avec_bateau ; function begin
11C4            label73
11C4  0101      	MOVLB 0x01
11C6  5113      	MOVF gbl_FCV_HITBOX_JOUEUR_1, W, 1
11C8  5D00      	SUBWF gbl_FCV_HITBOX_1, W, 1
11CA  E241      	BC	label75
11CC  6701      	TSTFSZ gbl_FCV_HITBOX_1+D'1', 1
11CE  D03F      	BRA	label75
11D0  0EF0      	MOVLW 0xF0
11D2  0100      	MOVLB 0x00
11D4  5DF7      	SUBWF gbl_FCV_POSI_X2, W, 1
11D6  E21F      	BC	label74
11D8  67F8      	TSTFSZ gbl_FCV_POSI_X2+D'1', 1
11DA  D01D      	BRA	label74
11DC  0101      	MOVLB 0x01
11DE  6B2A      	CLRF CompTempVar2763, 1
11E0  0E18      	MOVLW 0x18
11E2  0100      	MOVLB 0x00
11E4  27F9      	ADDWF gbl_FCV_POSI_X1, F, 1
11E6  51FA      	MOVF gbl_FCV_POSI_X1+D'1', W, 1
11E8  0101      	MOVLB 0x01
11EA  232A      	ADDWFC CompTempVar2763, F, 1
11EC  512A      	MOVF CompTempVar2763, W, 1
11EE  0100      	MOVLB 0x00
11F0  6FFA      	MOVWF gbl_FCV_POSI_X1+D'1', 1
11F2  0101      	MOVLB 0x01
11F4  6B2A      	CLRF CompTempVar2765, 1
11F6  0E18      	MOVLW 0x18
11F8  0100      	MOVLB 0x00
11FA  27F7      	ADDWF gbl_FCV_POSI_X2, F, 1
11FC  51F8      	MOVF gbl_FCV_POSI_X2+D'1', W, 1
11FE  0101      	MOVLB 0x01
1200  232A      	ADDWFC CompTempVar2765, F, 1
1202  512A      	MOVF CompTempVar2765, W, 1
1204  0100      	MOVLB 0x00
1206  6FF8      	MOVWF gbl_FCV_POSI_X2+D'1', 1
1208  0101      	MOVLB 0x01
120A  5300      	MOVF gbl_FCV_HITBOX_1, F, 1
120C  5301      	MOVF gbl_FCV_HITBOX_1+D'1', F, 1
120E  2B00      	INCF gbl_FCV_HITBOX_1, F, 1
1210  B4D8      	BTFSC STATUS,Z
1212  2B01      	INCF gbl_FCV_HITBOX_1+D'1', F, 1
1214  D7D7      	BRA	label73
1216            label74
1216  6BF9      	CLRF gbl_FCV_POSI_X1, 1
1218  6BFA      	CLRF gbl_FCV_POSI_X1+D'1', 1
121A  0E18      	MOVLW 0x18
121C  6FF7      	MOVWF gbl_FCV_POSI_X2, 1
121E  6BF8      	CLRF gbl_FCV_POSI_X2+D'1', 1
1220  0101      	MOVLB 0x01
1222  6B2A      	CLRF CompTempVar2769, 1
1224  0E18      	MOVLW 0x18
1226  0100      	MOVLB 0x00
1228  27FD      	ADDWF gbl_FCV_POSI_Y1, F, 1
122A  51FE      	MOVF gbl_FCV_POSI_Y1+D'1', W, 1
122C  0101      	MOVLB 0x01
122E  232A      	ADDWFC CompTempVar2769, F, 1
1230  512A      	MOVF CompTempVar2769, W, 1
1232  0100      	MOVLB 0x00
1234  6FFE      	MOVWF gbl_FCV_POSI_Y1+D'1', 1
1236  0101      	MOVLB 0x01
1238  6B2A      	CLRF CompTempVar2771, 1
123A  0E18      	MOVLW 0x18
123C  0100      	MOVLB 0x00
123E  27FB      	ADDWF gbl_FCV_POSI_Y2, F, 1
1240  51FC      	MOVF gbl_FCV_POSI_Y2+D'1', W, 1
1242  0101      	MOVLB 0x01
1244  232A      	ADDWFC CompTempVar2771, F, 1
1246  512A      	MOVF CompTempVar2771, W, 1
1248  0100      	MOVLB 0x00
124A  6FFC      	MOVWF gbl_FCV_POSI_Y2+D'1', 1
124C  D7BB      	BRA	label73
124E            label75
124E  0100      	MOVLB 0x00
1250  51F9      	MOVF gbl_FCV_POSI_X1, W, 1
1252  0101      	MOVLB 0x01
1254  6F2F      	MOVWF FCM_parame_00065_arg_FCL_POS_X1, 1
1256  0100      	MOVLB 0x00
1258  51FA      	MOVF gbl_FCV_POSI_X1+D'1', W, 1
125A  0101      	MOVLB 0x01
125C  6F30      	MOVWF FCM_parame_00065_arg_FCL_POS_X1+D'1', 1
125E  0100      	MOVLB 0x00
1260  51F7      	MOVF gbl_FCV_POSI_X2, W, 1
1262  0101      	MOVLB 0x01
1264  6F31      	MOVWF FCM_parame_00065_arg_FCL_POS_X2, 1
1266  0100      	MOVLB 0x00
1268  51F8      	MOVF gbl_FCV_POSI_X2+D'1', W, 1
126A  0101      	MOVLB 0x01
126C  6F32      	MOVWF FCM_parame_00065_arg_FCL_POS_X2+D'1', 1
126E  0100      	MOVLB 0x00
1270  51FD      	MOVF gbl_FCV_POSI_Y1, W, 1
1272  0101      	MOVLB 0x01
1274  6F33      	MOVWF FCM_parame_00065_arg_FCL_POS_Y1, 1
1276  0100      	MOVLB 0x00
1278  51FE      	MOVF gbl_FCV_POSI_Y1+D'1', W, 1
127A  0101      	MOVLB 0x01
127C  6F34      	MOVWF FCM_parame_00065_arg_FCL_POS_Y1+D'1', 1
127E  0100      	MOVLB 0x00
1280  51FB      	MOVF gbl_FCV_POSI_Y2, W, 1
1282  0101      	MOVLB 0x01
1284  6F35      	MOVWF FCM_parame_00065_arg_FCL_POS_Y2, 1
1286  0100      	MOVLB 0x00
1288  51FC      	MOVF gbl_FCV_POSI_Y2+D'1', W, 1
128A  0101      	MOVLB 0x01
128C  6F36      	MOVWF FCM_parame_00065_arg_FCL_POS_Y2+D'1', 1
128E  6937      	SETF FCM_parame_00065_arg_FCL_ROUGE, 1
1290  6B38      	CLRF FCM_parame_00065_arg_FCL_VERT, 1
1292  6B39      	CLRF FCM_parame_00065_arg_FCL_BLEU, 1
1294  EC6EF001  	CALL FCM_parame_00065
1298  0E01      	MOVLW 0x01
129A  6F00      	MOVWF gbl_FCV_HITBOX_1, 1
129C  6B01      	CLRF gbl_FCV_HITBOX_1+D'1', 1
129E  0100      	MOVLB 0x00
12A0  6BF9      	CLRF gbl_FCV_POSI_X1, 1
12A2  6BFA      	CLRF gbl_FCV_POSI_X1+D'1', 1
12A4  0E18      	MOVLW 0x18
12A6  6FF7      	MOVWF gbl_FCV_POSI_X2, 1
12A8  6BF8      	CLRF gbl_FCV_POSI_X2+D'1', 1
12AA  6BFD      	CLRF gbl_FCV_POSI_Y1, 1
12AC  6BFE      	CLRF gbl_FCV_POSI_Y1+D'1', 1
12AE  0E18      	MOVLW 0x18
12B0  6FFB      	MOVWF gbl_FCV_POSI_Y2, 1
12B2  6BFC      	CLRF gbl_FCV_POSI_Y2+D'1', 1
12B4  0012      	RETURN
12B6            ; } FCM_Affichage_Avec_bateau function end

	ORG 0x000012B6
12B6            FCD_0f051__0006E
12B6            ; { FCD_0f051_gLCD_EB076_4D1__ClearDisplay ; function begin
12B6  0101      	MOVLB 0x01
12B8  6B2C      	CLRF FCD_0f051__0006E_1_FCL_Y, 1
12BA  6B2D      	CLRF FCD_0f051__0006E_1_FCL_Y+D'1', 1
12BC  6B2E      	CLRF FCD_0f051__0006E_1_FCL_X, 1
12BE  6B2F      	CLRF FCD_0f051__0006E_1_FCL_X+D'1', 1
12C0  0E42      	MOVLW 0x42
12C2  6F70      	MOVWF FC_CAL_UAR_00091_arg_nChar, 1
12C4  6B71      	CLRF FC_CAL_UAR_00091_arg_nChar+D'1', 1
12C6  EC46F000  	CALL FC_CAL_UAR_00091
12CA  5103      	MOVF gbl_FCV_0f051_gLCD_EB076_4_0000C+D'1', W, 1
12CC  6F70      	MOVWF FC_CAL_UAR_00091_arg_nChar, 1
12CE  6B71      	CLRF FC_CAL_UAR_00091_arg_nChar+D'1', 1
12D0  EC46F000  	CALL FC_CAL_UAR_00091
12D4  5102      	MOVF gbl_FCV_0f051_gLCD_EB076_4_0000C, W, 1
12D6  6F70      	MOVWF FC_CAL_UAR_00091_arg_nChar, 1
12D8  5103      	MOVF gbl_FCV_0f051_gLCD_EB076_4_0000C+D'1', W, 1
12DA  6F71      	MOVWF FC_CAL_UAR_00091_arg_nChar+D'1', 1
12DC  EC46F000  	CALL FC_CAL_UAR_00091
12E0  6970      	SETF FC_CAL_UAR_00090_arg_nTimeout, 1
12E2  EC4EF000  	CALL FC_CAL_UAR_00090
12E6  0E45      	MOVLW 0x45
12E8  6F70      	MOVWF FC_CAL_UAR_00091_arg_nChar, 1
12EA  6B71      	CLRF FC_CAL_UAR_00091_arg_nChar+D'1', 1
12EC  EC46F000  	CALL FC_CAL_UAR_00091
12F0  6970      	SETF FC_CAL_UAR_00090_arg_nTimeout, 1
12F2  EC4EF000  	CALL FC_CAL_UAR_00090
12F6  0012      	RETURN
12F8            ; } FCD_0f051_gLCD_EB076_4D1__ClearDisplay function end

	ORG 0x000012F8
12F8            FCM_Touche_00089
12F8            ; { FCM_Toucher_CoulerJ1 ; function begin
12F8  0E01      	MOVLW 0x01
12FA  0101      	MOVLB 0x01
12FC  6F13      	MOVWF gbl_FCV_HITBOX_JOUEUR_1, 1
12FE  0E18      	MOVLW 0x18
1300  0100      	MOVLB 0x00
1302  6FF1      	MOVWF gbl_FCV_Y, 1
1304  6BF2      	CLRF gbl_FCV_Y+D'1', 1
1306  0E18      	MOVLW 0x18
1308  6FF3      	MOVWF gbl_FCV_X, 1
130A  6BF4      	CLRF gbl_FCV_X+D'1', 1
130C            label76
130C  0E01      	MOVLW 0x01
130E  0100      	MOVLB 0x00
1310  5DEB      	SUBWF gbl_FCV_X_SORTIE, W, 1
1312  E241      	BC	label85
1314  67EC      	TSTFSZ gbl_FCV_X_SORTIE+D'1', 1
1316  D03F      	BRA	label85
1318  51F2      	MOVF gbl_FCV_Y+D'1', W, 1
131A  5DEE      	SUBWF gbl_FCV_Y_TOUCH+D'1', W, 1
131C  E102      	BNZ	label77
131E  51F1      	MOVF gbl_FCV_Y, W, 1
1320  5DED      	SUBWF gbl_FCV_Y_TOUCH, W, 1
1322            label77
1322  E22A      	BC	label84
1324            label78
1324  0100      	MOVLB 0x00
1326  51F4      	MOVF gbl_FCV_X+D'1', W, 1
1328  5DF6      	SUBWF gbl_FCV_X_TOUCH+D'1', W, 1
132A  E102      	BNZ	label79
132C  51F3      	MOVF gbl_FCV_X, W, 1
132E  5DF5      	SUBWF gbl_FCV_X_TOUCH, W, 1
1330            label79
1330  E30D      	BNC	label80
1332  0101      	MOVLB 0x01
1334  2913      	INCF gbl_FCV_HITBOX_JOUEUR_1, W, 1
1336  6F13      	MOVWF gbl_FCV_HITBOX_JOUEUR_1, 1
1338  6B29      	CLRF CompTempVar2871, 1
133A  0E18      	MOVLW 0x18
133C  0100      	MOVLB 0x00
133E  27F3      	ADDWF gbl_FCV_X, F, 1
1340  51F4      	MOVF gbl_FCV_X+D'1', W, 1
1342  0101      	MOVLB 0x01
1344  2329      	ADDWFC CompTempVar2871, F, 1
1346  5129      	MOVF CompTempVar2871, W, 1
1348  0100      	MOVLB 0x00
134A  6FF4      	MOVWF gbl_FCV_X+D'1', 1
134C            label80
134C  53EB      	MOVF gbl_FCV_X_SORTIE, F, 1
134E  53EC      	MOVF gbl_FCV_X_SORTIE+D'1', F, 1
1350  2BEB      	INCF gbl_FCV_X_SORTIE, F, 1
1352  B4D8      	BTFSC STATUS,Z
1354  2BEC      	INCF gbl_FCV_X_SORTIE+D'1', F, 1
1356  0101      	MOVLB 0x01
1358  6B28      	CLRF CompTempVar2869, 1
135A  0100      	MOVLB 0x00
135C  51F4      	MOVF gbl_FCV_X+D'1', W, 1
135E  5DF6      	SUBWF gbl_FCV_X_TOUCH+D'1', W, 1
1360  E104      	BNZ	label81
1362  51F3      	MOVF gbl_FCV_X, W, 1
1364  61F5      	CPFSLT gbl_FCV_X_TOUCH, 1
1366  D001      	BRA	label81
1368  D001      	BRA	label82
136A            label81
136A  E202      	BC	label83
136C            label82
136C  0101      	MOVLB 0x01
136E  7128      	BTG CompTempVar2869,0, 1
1370            label83
1370  0101      	MOVLB 0x01
1372  5328      	MOVF CompTempVar2869, F, 1
1374  E0D7      	BZ	label78
1376  D7CA      	BRA	label76
1378            label84
1378  0E0A      	MOVLW 0x0A
137A  0101      	MOVLB 0x01
137C  2513      	ADDWF gbl_FCV_HITBOX_JOUEUR_1, W, 1
137E  6F13      	MOVWF gbl_FCV_HITBOX_JOUEUR_1, 1
1380  6B28      	CLRF CompTempVar2875, 1
1382  0E18      	MOVLW 0x18
1384  0100      	MOVLB 0x00
1386  27F1      	ADDWF gbl_FCV_Y, F, 1
1388  51F2      	MOVF gbl_FCV_Y+D'1', W, 1
138A  0101      	MOVLB 0x01
138C  2328      	ADDWFC CompTempVar2875, F, 1
138E  5128      	MOVF CompTempVar2875, W, 1
1390  0100      	MOVLB 0x00
1392  6FF2      	MOVWF gbl_FCV_Y+D'1', 1
1394  D7BB      	BRA	label76
1396            label85
1396  EE00F080  	LFSR 0x00, gbl_FCV_TABLEAUJ1
139A  50E9      	MOVF FSR0L, W
139C  0101      	MOVLB 0x01
139E  5113      	MOVF gbl_FCV_HITBOX_JOUEUR_1, W, 1
13A0  26E9      	ADDWF FSR0L, F
13A2  04EF      	DECF INDF0, W
13A4  E139      	BNZ	label86
13A6  ECBBF007  	CALL FCM_Touche_00064
13AA  531C      	MOVF gbl_FCV_PORTE_AVION, F, 1
13AC  A4D8      	BTFSS STATUS,Z
13AE  D130      	BRA	label91
13B0  ECC9F001  	CALL FCM_Reinit_00071
13B4  0E64      	MOVLW 0x64
13B6  6F2F      	MOVWF delay_ms_00000_arg_del, 1
13B8  EC06F000  	CALL delay_ms_00000
13BC  0E20      	MOVLW 0x20
13BE  6F31      	MOVWF CompTempVar2876, 1
13C0  6F32      	MOVWF CompTempVar2876+D'1', 1
13C2  6F33      	MOVWF CompTempVar2876+D'2', 1
13C4  6F34      	MOVWF CompTempVar2876+D'3', 1
13C6  6F35      	MOVWF CompTempVar2876+D'4', 1
13C8  6F36      	MOVWF CompTempVar2876+D'5', 1
13CA  6F37      	MOVWF CompTempVar2876+D'6', 1
13CC  6F38      	MOVWF CompTempVar2876+D'7', 1
13CE  6F39      	MOVWF CompTempVar2876+D'8', 1
13D0  6F3A      	MOVWF CompTempVar2876+D'9', 1
13D2  6F3B      	MOVWF CompTempVar2876+D'10', 1
13D4  6F3C      	MOVWF CompTempVar2876+D'11', 1
13D6  6F42      	MOVWF CompTempVar2876+D'17', 1
13D8  6F43      	MOVWF CompTempVar2876+D'18', 1
13DA  6F44      	MOVWF CompTempVar2876+D'19', 1
13DC  0E43      	MOVLW 0x43
13DE  6F3D      	MOVWF CompTempVar2876+D'12', 1
13E0  0E65      	MOVLW 0x65
13E2  6F41      	MOVWF CompTempVar2876+D'16', 1
13E4  0E6C      	MOVLW 0x6C
13E6  6F40      	MOVWF CompTempVar2876+D'15', 1
13E8  0E6F      	MOVLW 0x6F
13EA  6F3E      	MOVWF CompTempVar2876+D'13', 1
13EC  0E75      	MOVLW 0x75
13EE  6F3F      	MOVWF CompTempVar2876+D'14', 1
13F0  6B45      	CLRF CompTempVar2876+D'20', 1
13F2  0E01      	MOVLW HIGH(CompTempVar2876+D'0')
13F4  6F30      	MOVWF FCD_0f051__00066_arg_FCL_STR+D'1', 1
13F6  0E31      	MOVLW LOW(CompTempVar2876+D'0')
13F8  6F2F      	MOVWF FCD_0f051__00066_arg_FCL_STR, 1
13FA  0E15      	MOVLW 0x15
13FC  6F66      	MOVWF FCD_0f051__00066_arg_FCLsz_STR, 1
13FE  6B67      	CLRF FCD_0f051__00066_arg_FCLsz_STR+D'1', 1
1400  6B68      	CLRF FCD_0f051__00066_arg_FCL_X1, 1
1402  6B69      	CLRF FCD_0f051__00066_arg_FCL_X1+D'1', 1
1404  0EF1      	MOVLW 0xF1
1406  6F6A      	MOVWF FCD_0f051__00066_arg_FCL_Y1, 1
1408  6B6B      	CLRF FCD_0f051__00066_arg_FCL_Y1+D'1', 1
140A  0E02      	MOVLW 0x02
140C  6F6C      	MOVWF FCD_0f051__00066_arg_FCL_FONT, 1
140E  0E01      	MOVLW 0x01
1410  6F6D      	MOVWF FCD_0f051__00066_arg_FCL_T_00067, 1
1412  ECE4F002  	CALL FCD_0f051__00066
1416  D0FC      	BRA	label91
1418            label86
1418  0100      	MOVLB 0x00
141A  EE00F080  	LFSR 0x00, gbl_FCV_TABLEAUJ1
141E  50E9      	MOVF FSR0L, W
1420  0101      	MOVLB 0x01
1422  5113      	MOVF gbl_FCV_HITBOX_JOUEUR_1, W, 1
1424  26E9      	ADDWF FSR0L, F
1426  0E02      	MOVLW 0x02
1428  62EF      	CPFSEQ INDF0
142A  D039      	BRA	label87
142C  EC7BF007  	CALL FCM_Touche_00088
1430  5314      	MOVF gbl_FCV_CROISEUR, F, 1
1432  A4D8      	BTFSS STATUS,Z
1434  D0ED      	BRA	label91
1436  ECC9F001  	CALL FCM_Reinit_00071
143A  0E64      	MOVLW 0x64
143C  6F2F      	MOVWF delay_ms_00000_arg_del, 1
143E  EC06F000  	CALL delay_ms_00000
1442  0E20      	MOVLW 0x20
1444  6F31      	MOVWF CompTempVar2879, 1
1446  6F32      	MOVWF CompTempVar2879+D'1', 1
1448  6F33      	MOVWF CompTempVar2879+D'2', 1
144A  6F34      	MOVWF CompTempVar2879+D'3', 1
144C  6F35      	MOVWF CompTempVar2879+D'4', 1
144E  6F36      	MOVWF CompTempVar2879+D'5', 1
1450  6F37      	MOVWF CompTempVar2879+D'6', 1
1452  6F38      	MOVWF CompTempVar2879+D'7', 1
1454  6F39      	MOVWF CompTempVar2879+D'8', 1
1456  6F3A      	MOVWF CompTempVar2879+D'9', 1
1458  6F3B      	MOVWF CompTempVar2879+D'10', 1
145A  6F3C      	MOVWF CompTempVar2879+D'11', 1
145C  6F42      	MOVWF CompTempVar2879+D'17', 1
145E  6F43      	MOVWF CompTempVar2879+D'18', 1
1460  6F44      	MOVWF CompTempVar2879+D'19', 1
1462  0E43      	MOVLW 0x43
1464  6F3D      	MOVWF CompTempVar2879+D'12', 1
1466  0E65      	MOVLW 0x65
1468  6F41      	MOVWF CompTempVar2879+D'16', 1
146A  0E6C      	MOVLW 0x6C
146C  6F40      	MOVWF CompTempVar2879+D'15', 1
146E  0E6F      	MOVLW 0x6F
1470  6F3E      	MOVWF CompTempVar2879+D'13', 1
1472  0E75      	MOVLW 0x75
1474  6F3F      	MOVWF CompTempVar2879+D'14', 1
1476  6B45      	CLRF CompTempVar2879+D'20', 1
1478  0E01      	MOVLW HIGH(CompTempVar2879+D'0')
147A  6F30      	MOVWF FCD_0f051__00066_arg_FCL_STR+D'1', 1
147C  0E31      	MOVLW LOW(CompTempVar2879+D'0')
147E  6F2F      	MOVWF FCD_0f051__00066_arg_FCL_STR, 1
1480  0E15      	MOVLW 0x15
1482  6F66      	MOVWF FCD_0f051__00066_arg_FCLsz_STR, 1
1484  6B67      	CLRF FCD_0f051__00066_arg_FCLsz_STR+D'1', 1
1486  6B68      	CLRF FCD_0f051__00066_arg_FCL_X1, 1
1488  6B69      	CLRF FCD_0f051__00066_arg_FCL_X1+D'1', 1
148A  0EF1      	MOVLW 0xF1
148C  6F6A      	MOVWF FCD_0f051__00066_arg_FCL_Y1, 1
148E  6B6B      	CLRF FCD_0f051__00066_arg_FCL_Y1+D'1', 1
1490  0E02      	MOVLW 0x02
1492  6F6C      	MOVWF FCD_0f051__00066_arg_FCL_FONT, 1
1494  0E01      	MOVLW 0x01
1496  6F6D      	MOVWF FCD_0f051__00066_arg_FCL_T_00067, 1
1498  ECE4F002  	CALL FCD_0f051__00066
149C  D0B9      	BRA	label91
149E            label87
149E  0100      	MOVLB 0x00
14A0  EE00F080  	LFSR 0x00, gbl_FCV_TABLEAUJ1
14A4  50E9      	MOVF FSR0L, W
14A6  0101      	MOVLB 0x01
14A8  5113      	MOVF gbl_FCV_HITBOX_JOUEUR_1, W, 1
14AA  26E9      	ADDWF FSR0L, F
14AC  0E03      	MOVLW 0x03
14AE  62EF      	CPFSEQ INDF0
14B0  D039      	BRA	label88
14B2  EC91F007  	CALL FCM_Touche_00086
14B6  531E      	MOVF gbl_FCV_CONTRE_TORPILLEUR, F, 1
14B8  A4D8      	BTFSS STATUS,Z
14BA  D0AA      	BRA	label91
14BC  ECC9F001  	CALL FCM_Reinit_00071
14C0  0E64      	MOVLW 0x64
14C2  6F2F      	MOVWF delay_ms_00000_arg_del, 1
14C4  EC06F000  	CALL delay_ms_00000
14C8  0E20      	MOVLW 0x20
14CA  6F31      	MOVWF CompTempVar2882, 1
14CC  6F32      	MOVWF CompTempVar2882+D'1', 1
14CE  6F33      	MOVWF CompTempVar2882+D'2', 1
14D0  6F34      	MOVWF CompTempVar2882+D'3', 1
14D2  6F35      	MOVWF CompTempVar2882+D'4', 1
14D4  6F36      	MOVWF CompTempVar2882+D'5', 1
14D6  6F37      	MOVWF CompTempVar2882+D'6', 1
14D8  6F38      	MOVWF CompTempVar2882+D'7', 1
14DA  6F39      	MOVWF CompTempVar2882+D'8', 1
14DC  6F3A      	MOVWF CompTempVar2882+D'9', 1
14DE  6F3B      	MOVWF CompTempVar2882+D'10', 1
14E0  6F3C      	MOVWF CompTempVar2882+D'11', 1
14E2  6F42      	MOVWF CompTempVar2882+D'17', 1
14E4  6F43      	MOVWF CompTempVar2882+D'18', 1
14E6  6F44      	MOVWF CompTempVar2882+D'19', 1
14E8  0E43      	MOVLW 0x43
14EA  6F3D      	MOVWF CompTempVar2882+D'12', 1
14EC  0E65      	MOVLW 0x65
14EE  6F41      	MOVWF CompTempVar2882+D'16', 1
14F0  0E6C      	MOVLW 0x6C
14F2  6F40      	MOVWF CompTempVar2882+D'15', 1
14F4  0E6F      	MOVLW 0x6F
14F6  6F3E      	MOVWF CompTempVar2882+D'13', 1
14F8  0E75      	MOVLW 0x75
14FA  6F3F      	MOVWF CompTempVar2882+D'14', 1
14FC  6B45      	CLRF CompTempVar2882+D'20', 1
14FE  0E01      	MOVLW HIGH(CompTempVar2882+D'0')
1500  6F30      	MOVWF FCD_0f051__00066_arg_FCL_STR+D'1', 1
1502  0E31      	MOVLW LOW(CompTempVar2882+D'0')
1504  6F2F      	MOVWF FCD_0f051__00066_arg_FCL_STR, 1
1506  0E15      	MOVLW 0x15
1508  6F66      	MOVWF FCD_0f051__00066_arg_FCLsz_STR, 1
150A  6B67      	CLRF FCD_0f051__00066_arg_FCLsz_STR+D'1', 1
150C  6B68      	CLRF FCD_0f051__00066_arg_FCL_X1, 1
150E  6B69      	CLRF FCD_0f051__00066_arg_FCL_X1+D'1', 1
1510  0EF1      	MOVLW 0xF1
1512  6F6A      	MOVWF FCD_0f051__00066_arg_FCL_Y1, 1
1514  6B6B      	CLRF FCD_0f051__00066_arg_FCL_Y1+D'1', 1
1516  0E02      	MOVLW 0x02
1518  6F6C      	MOVWF FCD_0f051__00066_arg_FCL_FONT, 1
151A  0E01      	MOVLW 0x01
151C  6F6D      	MOVWF FCD_0f051__00066_arg_FCL_T_00067, 1
151E  ECE4F002  	CALL FCD_0f051__00066
1522  D076      	BRA	label91
1524            label88
1524  0100      	MOVLB 0x00
1526  EE00F080  	LFSR 0x00, gbl_FCV_TABLEAUJ1
152A  50E9      	MOVF FSR0L, W
152C  0101      	MOVLB 0x01
152E  5113      	MOVF gbl_FCV_HITBOX_JOUEUR_1, W, 1
1530  26E9      	ADDWF FSR0L, F
1532  0E04      	MOVLW 0x04
1534  62EF      	CPFSEQ INDF0
1536  D038      	BRA	label89
1538  ECA6F007  	CALL FCM_Touche_0006B
153C  5317      	MOVF gbl_FCV_SOUS_MARIN, F, 1
153E  E168      	BNZ	label91
1540  ECC9F001  	CALL FCM_Reinit_00071
1544  0E64      	MOVLW 0x64
1546  6F2F      	MOVWF delay_ms_00000_arg_del, 1
1548  EC06F000  	CALL delay_ms_00000
154C  0E20      	MOVLW 0x20
154E  6F31      	MOVWF CompTempVar2885, 1
1550  6F32      	MOVWF CompTempVar2885+D'1', 1
1552  6F33      	MOVWF CompTempVar2885+D'2', 1
1554  6F34      	MOVWF CompTempVar2885+D'3', 1
1556  6F35      	MOVWF CompTempVar2885+D'4', 1
1558  6F36      	MOVWF CompTempVar2885+D'5', 1
155A  6F37      	MOVWF CompTempVar2885+D'6', 1
155C  6F38      	MOVWF CompTempVar2885+D'7', 1
155E  6F39      	MOVWF CompTempVar2885+D'8', 1
1560  6F3A      	MOVWF CompTempVar2885+D'9', 1
1562  6F3B      	MOVWF CompTempVar2885+D'10', 1
1564  6F3C      	MOVWF CompTempVar2885+D'11', 1
1566  6F42      	MOVWF CompTempVar2885+D'17', 1
1568  6F43      	MOVWF CompTempVar2885+D'18', 1
156A  6F44      	MOVWF CompTempVar2885+D'19', 1
156C  0E43      	MOVLW 0x43
156E  6F3D      	MOVWF CompTempVar2885+D'12', 1
1570  0E65      	MOVLW 0x65
1572  6F41      	MOVWF CompTempVar2885+D'16', 1
1574  0E6C      	MOVLW 0x6C
1576  6F40      	MOVWF CompTempVar2885+D'15', 1
1578  0E6F      	MOVLW 0x6F
157A  6F3E      	MOVWF CompTempVar2885+D'13', 1
157C  0E75      	MOVLW 0x75
157E  6F3F      	MOVWF CompTempVar2885+D'14', 1
1580  6B45      	CLRF CompTempVar2885+D'20', 1
1582  0E01      	MOVLW HIGH(CompTempVar2885+D'0')
1584  6F30      	MOVWF FCD_0f051__00066_arg_FCL_STR+D'1', 1
1586  0E31      	MOVLW LOW(CompTempVar2885+D'0')
1588  6F2F      	MOVWF FCD_0f051__00066_arg_FCL_STR, 1
158A  0E15      	MOVLW 0x15
158C  6F66      	MOVWF FCD_0f051__00066_arg_FCLsz_STR, 1
158E  6B67      	CLRF FCD_0f051__00066_arg_FCLsz_STR+D'1', 1
1590  6B68      	CLRF FCD_0f051__00066_arg_FCL_X1, 1
1592  6B69      	CLRF FCD_0f051__00066_arg_FCL_X1+D'1', 1
1594  0EF1      	MOVLW 0xF1
1596  6F6A      	MOVWF FCD_0f051__00066_arg_FCL_Y1, 1
1598  6B6B      	CLRF FCD_0f051__00066_arg_FCL_Y1+D'1', 1
159A  0E02      	MOVLW 0x02
159C  6F6C      	MOVWF FCD_0f051__00066_arg_FCL_FONT, 1
159E  0E01      	MOVLW 0x01
15A0  6F6D      	MOVWF FCD_0f051__00066_arg_FCL_T_00067, 1
15A2  ECE4F002  	CALL FCD_0f051__00066
15A6  D034      	BRA	label91
15A8            label89
15A8  0100      	MOVLB 0x00
15AA  EE00F080  	LFSR 0x00, gbl_FCV_TABLEAUJ1
15AE  50E9      	MOVF FSR0L, W
15B0  0101      	MOVLB 0x01
15B2  5113      	MOVF gbl_FCV_HITBOX_JOUEUR_1, W, 1
15B4  26E9      	ADDWF FSR0L, F
15B6  0E05      	MOVLW 0x05
15B8  62EF      	CPFSEQ INDF0
15BA  D028      	BRA	label90
15BC  ECD0F007  	CALL FCM_Touche_0005B
15C0  5315      	MOVF gbl_FCV_TORPILLEUR, F, 1
15C2  E126      	BNZ	label91
15C4  ECC9F001  	CALL FCM_Reinit_00071
15C8  0E64      	MOVLW 0x64
15CA  6F2F      	MOVWF delay_ms_00000_arg_del, 1
15CC  EC06F000  	CALL delay_ms_00000
15D0  0E43      	MOVLW 0x43
15D2  6F31      	MOVWF CompTempVar2888, 1
15D4  0E6F      	MOVLW 0x6F
15D6  6F32      	MOVWF CompTempVar2888+D'1', 1
15D8  0E75      	MOVLW 0x75
15DA  6F33      	MOVWF CompTempVar2888+D'2', 1
15DC  0E6C      	MOVLW 0x6C
15DE  6F34      	MOVWF CompTempVar2888+D'3', 1
15E0  0E65      	MOVLW 0x65
15E2  6F35      	MOVWF CompTempVar2888+D'4', 1
15E4  6B36      	CLRF CompTempVar2888+D'5', 1
15E6  0E01      	MOVLW HIGH(CompTempVar2888+D'0')
15E8  6F30      	MOVWF FCD_0f051__00066_arg_FCL_STR+D'1', 1
15EA  0E31      	MOVLW LOW(CompTempVar2888+D'0')
15EC  6F2F      	MOVWF FCD_0f051__00066_arg_FCL_STR, 1
15EE  0E06      	MOVLW 0x06
15F0  6F66      	MOVWF FCD_0f051__00066_arg_FCLsz_STR, 1
15F2  6B67      	CLRF FCD_0f051__00066_arg_FCLsz_STR+D'1', 1
15F4  6B68      	CLRF FCD_0f051__00066_arg_FCL_X1, 1
15F6  6B69      	CLRF FCD_0f051__00066_arg_FCL_X1+D'1', 1
15F8  0EF1      	MOVLW 0xF1
15FA  6F6A      	MOVWF FCD_0f051__00066_arg_FCL_Y1, 1
15FC  6B6B      	CLRF FCD_0f051__00066_arg_FCL_Y1+D'1', 1
15FE  0E02      	MOVLW 0x02
1600  6F6C      	MOVWF FCD_0f051__00066_arg_FCL_FONT, 1
1602  0E01      	MOVLW 0x01
1604  6F6D      	MOVWF FCD_0f051__00066_arg_FCL_T_00067, 1
1606  ECE4F002  	CALL FCD_0f051__00066
160A  D002      	BRA	label91
160C            label90
160C  EC33F008  	CALL FCM_Manque_00000
1610            label91
1610  ECF7F006  	CALL FCM_phase__0007B
1614  0100      	MOVLB 0x00
1616  6BEB      	CLRF gbl_FCV_X_SORTIE, 1
1618  6BEC      	CLRF gbl_FCV_X_SORTIE+D'1', 1
161A  6BF3      	CLRF gbl_FCV_X, 1
161C  6BF4      	CLRF gbl_FCV_X+D'1', 1
161E  6BF1      	CLRF gbl_FCV_Y, 1
1620  6BF2      	CLRF gbl_FCV_Y+D'1', 1
1622  0101      	MOVLB 0x01
1624  6B19      	CLRF gbl_FCV_APPUI_ECRAN, 1
1626  0E64      	MOVLW 0x64
1628  6F2F      	MOVWF delay_ms_00000_arg_del, 1
162A  EC06F000  	CALL delay_ms_00000
162E  0012      	RETURN
1630            ; } FCM_Toucher_CoulerJ1 function end

	ORG 0x00001630
1630            FCM_Hitbox_0005D
1630            ; { FCM_Hitbox_v2 ; function begin
1630            label92
1630  0101      	MOVLB 0x01
1632  6B29      	CLRF CompTempVar2646, 1
1634  0E05      	MOVLW 0x05
1636  631C      	CPFSEQ gbl_FCV_PORTE_AVION, 1
1638  D001      	BRA	label93
163A  2B29      	INCF CompTempVar2646, F, 1
163C            label93
163C  6729      	TSTFSZ CompTempVar2646, 1
163E  D00E      	BRA	label94
1640  0E05      	MOVLW 0x05
1642  611C      	CPFSLT gbl_FCV_PORTE_AVION, 1
1644  D7F5      	BRA	label92
1646  5319      	MOVF gbl_FCV_APPUI_ECRAN, F, 1
1648  B4D8      	BTFSC STATUS,Z
164A  ECCFF008  	CALL FCM_Choix__0005E
164E  EC19F008  	CALL FCM_Porte__0005F
1652  0EF4      	MOVLW 0xF4
1654  6F2F      	MOVWF delay_ms_00000_arg_del, 1
1656  EC06F000  	CALL delay_ms_00000
165A  D7EA      	BRA	label92
165C            label94
165C  6B2A      	CLRF CompTempVar2648, 1
165E  0E04      	MOVLW 0x04
1660  6314      	CPFSEQ gbl_FCV_CROISEUR, 1
1662  D001      	BRA	label95
1664  2B2A      	INCF CompTempVar2648, F, 1
1666            label95
1666  672A      	TSTFSZ CompTempVar2648, 1
1668  D00C      	BRA	label96
166A  0E05      	MOVLW 0x05
166C  631C      	CPFSEQ gbl_FCV_PORTE_AVION, 1
166E  D7F6      	BRA	label94
1670  ECCFF008  	CALL FCM_Choix__0005E
1674  EC91F008  	CALL FCM_Croise_00060
1678  0EF4      	MOVLW 0xF4
167A  6F2F      	MOVWF delay_ms_00000_arg_del, 1
167C  EC06F000  	CALL delay_ms_00000
1680  D7ED      	BRA	label94
1682            label96
1682  6B2B      	CLRF CompTempVar2650, 1
1684  0E03      	MOVLW 0x03
1686  631E      	CPFSEQ gbl_FCV_CONTRE_TORPILLEUR, 1
1688  D001      	BRA	label97
168A  2B2B      	INCF CompTempVar2650, F, 1
168C            label97
168C  672B      	TSTFSZ CompTempVar2650, 1
168E  D009      	BRA	label98
1690  ECCFF008  	CALL FCM_Choix__0005E
1694  ECB5F008  	CALL FCM_Contre_00061
1698  0EF4      	MOVLW 0xF4
169A  6F2F      	MOVWF delay_ms_00000_arg_del, 1
169C  EC06F000  	CALL delay_ms_00000
16A0  D7F0      	BRA	label96
16A2            label98
16A2  6B2C      	CLRF CompTempVar2652, 1
16A4  0E03      	MOVLW 0x03
16A6  6317      	CPFSEQ gbl_FCV_SOUS_MARIN, 1
16A8  D001      	BRA	label99
16AA  2B2C      	INCF CompTempVar2652, F, 1
16AC            label99
16AC  672C      	TSTFSZ CompTempVar2652, 1
16AE  D009      	BRA	label100
16B0  ECCFF008  	CALL FCM_Choix__0005E
16B4  ECFFF007  	CALL FCM_Sous_m_00062
16B8  0EF4      	MOVLW 0xF4
16BA  6F2F      	MOVWF delay_ms_00000_arg_del, 1
16BC  EC06F000  	CALL delay_ms_00000
16C0  D7F0      	BRA	label98
16C2            label100
16C2  6B2D      	CLRF CompTempVar2654, 1
16C4  0E02      	MOVLW 0x02
16C6  6315      	CPFSEQ gbl_FCV_TORPILLEUR, 1
16C8  D001      	BRA	label101
16CA  2B2D      	INCF CompTempVar2654, F, 1
16CC            label101
16CC  672D      	TSTFSZ CompTempVar2654, 1
16CE  D009      	BRA	label102
16D0  ECCFF008  	CALL FCM_Choix__0005E
16D4  ECE5F007  	CALL FCM_Torpil_00063
16D8  0EF4      	MOVLW 0xF4
16DA  6F2F      	MOVWF delay_ms_00000_arg_del, 1
16DC  EC06F000  	CALL delay_ms_00000
16E0  D7F0      	BRA	label100
16E2            label102
16E2  6B2E      	CLRF CompTempVar2655, 1
16E4  2B2E      	INCF CompTempVar2655, F, 1
16E6  6719      	TSTFSZ gbl_FCV_APPUI_ECRAN, 1
16E8  912E      	BCF CompTempVar2655,0, 1
16EA  532E      	MOVF CompTempVar2655, F, 1
16EC  E0A1      	BZ	label92
16EE  EF7CF00C  	GOTO	label112
16F2            ; } FCM_Hitbox_v2 function end

	ORG 0x000016F2
16F2            FCM_Choix__0007A
16F2            ; { FCM_Choix_affichage_bateauxJ1 ; function begin
16F2  0101      	MOVLB 0x01
16F4  6B3A      	CLRF FCD_0f051__00073_arg_FCL_RED, 1
16F6  6B3B      	CLRF FCD_0f051__00073_arg_FCL_GREEN, 1
16F8  6B3C      	CLRF FCD_0f051__00073_arg_FCL_BLUE, 1
16FA  EC40F001  	CALL FCD_0f051__00073
16FE  0E01      	MOVLW 0x01
1700  6F13      	MOVWF gbl_FCV_HITBOX_JOUEUR_1, 1
1702  EC5BF009  	CALL FCD_0f051__0006E
1706  EC18F007  	CALL FCM_lignes_00000
170A            label103
170A  0100      	MOVLB 0x00
170C  EE00F080  	LFSR 0x00, gbl_FCV_TABLEAUJ1
1710  50E9      	MOVF FSR0L, W
1712  0101      	MOVLB 0x01
1714  5113      	MOVF gbl_FCV_HITBOX_JOUEUR_1, W, 1
1716  26E9      	ADDWF FSR0L, F
1718  0E80      	MOVLW 0x80
171A  14EF      	ANDWF INDF0, W
171C  6F28      	MOVWF CompTempVar2774, 1
171E  5328      	MOVF CompTempVar2774, F, 1
1720  A4D8      	BTFSS STATUS,Z
1722  ECE2F008  	CALL FCM_Affich_00074
1726  0101      	MOVLB 0x01
1728  2913      	INCF gbl_FCV_HITBOX_JOUEUR_1, W, 1
172A  6F13      	MOVWF gbl_FCV_HITBOX_JOUEUR_1, 1
172C  6B29      	CLRF CompTempVar2775, 1
172E  0E65      	MOVLW 0x65
1730  6313      	CPFSEQ gbl_FCV_HITBOX_JOUEUR_1, 1
1732  D001      	BRA	label104
1734  2B29      	INCF CompTempVar2775, F, 1
1736            label104
1736  5329      	MOVF CompTempVar2775, F, 1
1738  E0E8      	BZ	label103
173A  0E01      	MOVLW 0x01
173C  6F13      	MOVWF gbl_FCV_HITBOX_JOUEUR_1, 1
173E  0012      	RETURN
1740            ; } FCM_Choix_affichage_bateauxJ1 function end

	ORG 0x00001740
1740            FCM_Choix__00078
1740            ; { FCM_Choix_Bateau_Toucher ; function begin
1740  ECC9F001  	CALL FCM_Reinit_00071
1744  ECACF003  	CALL FCM_Reinit_00075
1748            label105
1748  5319      	MOVF gbl_FCV_APPUI_ECRAN, F, 1
174A  E103      	BNZ	label106
174C  ECBDF003  	CALL FCM_Recupe_00079
1750  D7FB      	BRA	label105
1752            label106
1752  ECC3F005  	CALL FCM_Lectur_00068
1756  0E64      	MOVLW 0x64
1758  0101      	MOVLB 0x01
175A  6F2F      	MOVWF delay_ms_00000_arg_del, 1
175C  EC06F000  	CALL delay_ms_00000
1760  0012      	RETURN
1762            ; } FCM_Choix_Bateau_Toucher function end

	ORG 0x00001762
1762            FCD_0f051__0006D
1762            ; { FCD_0f051_gLCD_EB076_4D1__Initialise ; function begin
1762  0101      	MOVLB 0x01
1764  6B2C      	CLRF FCD_0f051__0006D_2_ptmp, 1
1766  9A94      	BCF gbl_trisc,5
1768  532C      	MOVF FCD_0f051__0006D_2_ptmp, F, 1
176A  E004      	BZ	label107
176C  0E20      	MOVLW 0x20
176E  108B      	IORWF gbl_latc, W
1770  6E82      	MOVWF gbl_portc
1772  D003      	BRA	label108
1774            label107
1774  0EDF      	MOVLW 0xDF
1776  148B      	ANDWF gbl_latc, W
1778  6E82      	MOVWF gbl_portc
177A            label108
177A  EC8EF006  	CALL FC_CAL_UAR_00092
177E  0E64      	MOVLW 0x64
1780  6F2C      	MOVWF delay_us_00000_arg_del, 1
1782  EC2EF000  	CALL delay_us_00000
1786  0E0F      	MOVLW HIGH(gbl_portc+D'0')
1788  6F2D      	MOVWF FC_CAL_Por_00042_arg_Port+D'1', 1
178A  0E82      	MOVLW LOW(gbl_portc+D'0')
178C  6F2C      	MOVWF FC_CAL_Por_00042_arg_Port, 1
178E  0E0F      	MOVLW HIGH(gbl_trisc+D'0')
1790  6F2F      	MOVWF FC_CAL_Por_00042_arg_Tris+D'1', 1
1792  0E94      	MOVLW LOW(gbl_trisc+D'0')
1794  6F2E      	MOVWF FC_CAL_Por_00042_arg_Tris, 1
1796  0E20      	MOVLW 0x20
1798  6F30      	MOVWF FC_CAL_Por_00042_arg_InMask, 1
179A  0E05      	MOVLW 0x05
179C  6F31      	MOVWF FC_CAL_Por_00042_arg_Shift, 1
179E  ECDFF006  	CALL FC_CAL_Por_00042
17A2  5132      	MOVF CompTempVarRet1822, W, 1
17A4  6F2B      	MOVWF FCD_0f051__0006D_1_FCL_DUMMY, 1
17A6  0E03      	MOVLW 0x03
17A8  6F2C      	MOVWF delay_s_00000_arg_del, 1
17AA  EC33F000  	CALL delay_s_00000
17AE  6B70      	CLRF FC_CAL_UAR_00090_arg_nTimeout, 1
17B0  EC4EF000  	CALL FC_CAL_UAR_00090
17B4  6B70      	CLRF FC_CAL_UAR_00090_arg_nTimeout, 1
17B6  EC4EF000  	CALL FC_CAL_UAR_00090
17BA  6B70      	CLRF FC_CAL_UAR_00090_arg_nTimeout, 1
17BC  EC4EF000  	CALL FC_CAL_UAR_00090
17C0  0E55      	MOVLW 0x55
17C2  6F70      	MOVWF FC_CAL_UAR_00091_arg_nChar, 1
17C4  6B71      	CLRF FC_CAL_UAR_00091_arg_nChar+D'1', 1
17C6  EC46F000  	CALL FC_CAL_UAR_00091
17CA  6970      	SETF FC_CAL_UAR_00090_arg_nTimeout, 1
17CC  EC4EF000  	CALL FC_CAL_UAR_00090
17D0  0E51      	MOVLW 0x51
17D2  6F70      	MOVWF FC_CAL_UAR_00091_arg_nChar, 1
17D4  6B71      	CLRF FC_CAL_UAR_00091_arg_nChar+D'1', 1
17D6  EC46F000  	CALL FC_CAL_UAR_00091
17DA  0E0C      	MOVLW 0x0C
17DC  6F70      	MOVWF FC_CAL_UAR_00091_arg_nChar, 1
17DE  6B71      	CLRF FC_CAL_UAR_00091_arg_nChar+D'1', 1
17E0  EC46F000  	CALL FC_CAL_UAR_00091
17E4  6970      	SETF FC_CAL_UAR_00090_arg_nTimeout, 1
17E6  EC4EF000  	CALL FC_CAL_UAR_00090
17EA  0E06      	MOVLW 0x06
17EC  6F2C      	MOVWF FC_CAL_UAR_0008E_arg_new_baud, 1
17EE  EC97F006  	CALL FC_CAL_UAR_0008E
17F2  0E0A      	MOVLW 0x0A
17F4  6F70      	MOVWF FC_CAL_UAR_00090_arg_nTimeout, 1
17F6  EC4EF000  	CALL FC_CAL_UAR_00090
17FA  0E0A      	MOVLW 0x0A
17FC  6F70      	MOVWF FC_CAL_UAR_00090_arg_nTimeout, 1
17FE  EC4EF000  	CALL FC_CAL_UAR_00090
1802  6B28      	CLRF FCD_0f051__0006D_1_FCL_RED, 1
1804  3328      	RRCF FCD_0f051__0006D_1_FCL_RED, F, 1
1806  3328      	RRCF FCD_0f051__0006D_1_FCL_RED, F, 1
1808  3328      	RRCF FCD_0f051__0006D_1_FCL_RED, F, 1
180A  0E1F      	MOVLW 0x1F
180C  1728      	ANDWF FCD_0f051__0006D_1_FCL_RED, F, 1
180E  6B29      	CLRF FCD_0f051__0006D_1_FCL_GREEN, 1
1810  3329      	RRCF FCD_0f051__0006D_1_FCL_GREEN, F, 1
1812  3329      	RRCF FCD_0f051__0006D_1_FCL_GREEN, F, 1
1814  0E3F      	MOVLW 0x3F
1816  1729      	ANDWF FCD_0f051__0006D_1_FCL_GREEN, F, 1
1818  6B2A      	CLRF FCD_0f051__0006D_1_FCL_BLUE, 1
181A  332A      	RRCF FCD_0f051__0006D_1_FCL_BLUE, F, 1
181C  332A      	RRCF FCD_0f051__0006D_1_FCL_BLUE, F, 1
181E  332A      	RRCF FCD_0f051__0006D_1_FCL_BLUE, F, 1
1820  0E1F      	MOVLW 0x1F
1822  172A      	ANDWF FCD_0f051__0006D_1_FCL_BLUE, F, 1
1824  5129      	MOVF FCD_0f051__0006D_1_FCL_GREEN, W, 1
1826  6F2C      	MOVWF CompTempVar2702, 1
1828  6B05      	CLRF gbl_FCV_0f051_gLCD_EB076_4_0000D+D'1', 1
182A  372C      	RLCF CompTempVar2702, F, 1
182C  3705      	RLCF gbl_FCV_0f051_gLCD_EB076_4_0000D+D'1', F, 1
182E  372C      	RLCF CompTempVar2702, F, 1
1830  3705      	RLCF gbl_FCV_0f051_gLCD_EB076_4_0000D+D'1', F, 1
1832  372C      	RLCF CompTempVar2702, F, 1
1834  3705      	RLCF gbl_FCV_0f051_gLCD_EB076_4_0000D+D'1', F, 1
1836  372C      	RLCF CompTempVar2702, F, 1
1838  3705      	RLCF gbl_FCV_0f051_gLCD_EB076_4_0000D+D'1', F, 1
183A  372C      	RLCF CompTempVar2702, F, 1
183C  3705      	RLCF gbl_FCV_0f051_gLCD_EB076_4_0000D+D'1', F, 1
183E  0EE0      	MOVLW 0xE0
1840  172C      	ANDWF CompTempVar2702, F, 1
1842  512C      	MOVF CompTempVar2702, W, 1
1844  112A      	IORWF FCD_0f051__0006D_1_FCL_BLUE, W, 1
1846  6F04      	MOVWF gbl_FCV_0f051_gLCD_EB076_4_0000D, 1
1848  6B2C      	CLRF CompTempVar2706, 1
184A  5128      	MOVF FCD_0f051__0006D_1_FCL_RED, W, 1
184C  6F2D      	MOVWF CompTempVar2707, 1
184E  90D8      	BCF STATUS,C
1850  372D      	RLCF CompTempVar2707, F, 1
1852  90D8      	BCF STATUS,C
1854  372D      	RLCF CompTempVar2707, F, 1
1856  90D8      	BCF STATUS,C
1858  372D      	RLCF CompTempVar2707, F, 1
185A  512C      	MOVF CompTempVar2706, W, 1
185C  1304      	IORWF gbl_FCV_0f051_gLCD_EB076_4_0000D, F, 1
185E  512D      	MOVF CompTempVar2707, W, 1
1860  1305      	IORWF gbl_FCV_0f051_gLCD_EB076_4_0000D+D'1', F, 1
1862  6928      	SETF FCD_0f051__0006D_1_FCL_RED, 1
1864  3328      	RRCF FCD_0f051__0006D_1_FCL_RED, F, 1
1866  3328      	RRCF FCD_0f051__0006D_1_FCL_RED, F, 1
1868  3328      	RRCF FCD_0f051__0006D_1_FCL_RED, F, 1
186A  0E1F      	MOVLW 0x1F
186C  1728      	ANDWF FCD_0f051__0006D_1_FCL_RED, F, 1
186E  6929      	SETF FCD_0f051__0006D_1_FCL_GREEN, 1
1870  3329      	RRCF FCD_0f051__0006D_1_FCL_GREEN, F, 1
1872  3329      	RRCF FCD_0f051__0006D_1_FCL_GREEN, F, 1
1874  0E3F      	MOVLW 0x3F
1876  1729      	ANDWF FCD_0f051__0006D_1_FCL_GREEN, F, 1
1878  692A      	SETF FCD_0f051__0006D_1_FCL_BLUE, 1
187A  332A      	RRCF FCD_0f051__0006D_1_FCL_BLUE, F, 1
187C  332A      	RRCF FCD_0f051__0006D_1_FCL_BLUE, F, 1
187E  332A      	RRCF FCD_0f051__0006D_1_FCL_BLUE, F, 1
1880  0E1F      	MOVLW 0x1F
1882  172A      	ANDWF FCD_0f051__0006D_1_FCL_BLUE, F, 1
1884  5129      	MOVF FCD_0f051__0006D_1_FCL_GREEN, W, 1
1886  6F2C      	MOVWF CompTempVar2713, 1
1888  6B03      	CLRF gbl_FCV_0f051_gLCD_EB076_4_0000C+D'1', 1
188A  372C      	RLCF CompTempVar2713, F, 1
188C  3703      	RLCF gbl_FCV_0f051_gLCD_EB076_4_0000C+D'1', F, 1
188E  372C      	RLCF CompTempVar2713, F, 1
1890  3703      	RLCF gbl_FCV_0f051_gLCD_EB076_4_0000C+D'1', F, 1
1892  372C      	RLCF CompTempVar2713, F, 1
1894  3703      	RLCF gbl_FCV_0f051_gLCD_EB076_4_0000C+D'1', F, 1
1896  372C      	RLCF CompTempVar2713, F, 1
1898  3703      	RLCF gbl_FCV_0f051_gLCD_EB076_4_0000C+D'1', F, 1
189A  372C      	RLCF CompTempVar2713, F, 1
189C  3703      	RLCF gbl_FCV_0f051_gLCD_EB076_4_0000C+D'1', F, 1
189E  0EE0      	MOVLW 0xE0
18A0  172C      	ANDWF CompTempVar2713, F, 1
18A2  512C      	MOVF CompTempVar2713, W, 1
18A4  112A      	IORWF FCD_0f051__0006D_1_FCL_BLUE, W, 1
18A6  6F02      	MOVWF gbl_FCV_0f051_gLCD_EB076_4_0000C, 1
18A8  6B2C      	CLRF CompTempVar2717, 1
18AA  5128      	MOVF FCD_0f051__0006D_1_FCL_RED, W, 1
18AC  6F2D      	MOVWF CompTempVar2718, 1
18AE  90D8      	BCF STATUS,C
18B0  372D      	RLCF CompTempVar2718, F, 1
18B2  90D8      	BCF STATUS,C
18B4  372D      	RLCF CompTempVar2718, F, 1
18B6  90D8      	BCF STATUS,C
18B8  372D      	RLCF CompTempVar2718, F, 1
18BA  512C      	MOVF CompTempVar2717, W, 1
18BC  1302      	IORWF gbl_FCV_0f051_gLCD_EB076_4_0000C, F, 1
18BE  512D      	MOVF CompTempVar2718, W, 1
18C0  1303      	IORWF gbl_FCV_0f051_gLCD_EB076_4_0000C+D'1', F, 1
18C2  EC5BF009  	CALL FCD_0f051__0006E
18C6  0E0A      	MOVLW 0x0A
18C8  6F70      	MOVWF FC_CAL_UAR_00090_arg_nTimeout, 1
18CA  EC4EF000  	CALL FC_CAL_UAR_00090
18CE  0E0A      	MOVLW 0x0A
18D0  6F70      	MOVWF FC_CAL_UAR_00090_arg_nTimeout, 1
18D2  EC4EF000  	CALL FC_CAL_UAR_00090
18D6  0012      	RETURN
18D8            ; } FCD_0f051_gLCD_EB076_4D1__Initialise function end

	ORG 0x000018D8
18D8            FCM_phase__00085
18D8            ; { FCM_phase_debut ; function begin
18D8            label109
18D8  ECC9F001  	CALL FCM_Reinit_00071
18DC  ECACF003  	CALL FCM_Reinit_00075
18E0  ECC2F003  	CALL FCM_Messag_00070
18E4            label110
18E4  5319      	MOVF gbl_FCV_APPUI_ECRAN, F, 1
18E6  E103      	BNZ	label111
18E8  ECBDF003  	CALL FCM_Recupe_00079
18EC  D7FB      	BRA	label110
18EE            label111
18EE  ECC3F005  	CALL FCM_Lectur_00068
18F2  0E99      	MOVLW 0x99
18F4  EF18F00B  	GOTO	FCM_Hitbox_0005D
18F8            label112
18F8  0E64      	MOVLW 0x64
18FA  6F2F      	MOVWF delay_ms_00000_arg_del, 1
18FC  EC06F000  	CALL delay_ms_00000
1900  6B28      	CLRF CompTempVar2831, 1
1902  0E11      	MOVLW 0x11
1904  611B      	CPFSLT gbl_FCV_BATEAU, 1
1906  2B28      	INCF CompTempVar2831, F, 1
1908  5328      	MOVF CompTempVar2831, F, 1
190A  E0E6      	BZ	label109
190C  ECC9F001  	CALL FCM_Reinit_00071
1910  0E20      	MOVLW 0x20
1912  6F31      	MOVWF CompTempVar2832, 1
1914  6F32      	MOVWF CompTempVar2832+D'1', 1
1916  6F33      	MOVWF CompTempVar2832+D'2', 1
1918  6F34      	MOVWF CompTempVar2832+D'3', 1
191A  6F37      	MOVWF CompTempVar2832+D'6', 1
191C  6F3F      	MOVWF CompTempVar2832+D'14', 1
191E  6F42      	MOVWF CompTempVar2832+D'17', 1
1920  6F49      	MOVWF CompTempVar2832+D'24', 1
1922  6F4B      	MOVWF CompTempVar2832+D'26', 1
1924  0E32      	MOVLW 0x32
1926  6F4A      	MOVWF CompTempVar2832+D'25', 1
1928  0E45      	MOVLW 0x45
192A  6F35      	MOVWF CompTempVar2832+D'4', 1
192C  0E61      	MOVLW 0x61
192E  6F38      	MOVWF CompTempVar2832+D'7', 1
1930  0E64      	MOVLW 0x64
1932  6F40      	MOVWF CompTempVar2832+D'15', 1
1934  0E65      	MOVLW 0x65
1936  6F3B      	MOVWF CompTempVar2832+D'10', 1
1938  6F3E      	MOVWF CompTempVar2832+D'13', 1
193A  6F46      	MOVWF CompTempVar2832+D'21', 1
193C  0E6A      	MOVLW 0x6A
193E  6F43      	MOVWF CompTempVar2832+D'18', 1
1940  0E6E      	MOVLW 0x6E
1942  6F36      	MOVWF CompTempVar2832+D'5', 1
1944  6F3C      	MOVWF CompTempVar2832+D'11', 1
1946  0E6F      	MOVLW 0x6F
1948  6F44      	MOVWF CompTempVar2832+D'19', 1
194A  0E72      	MOVLW 0x72
194C  6F48      	MOVWF CompTempVar2832+D'23', 1
194E  0E74      	MOVLW 0x74
1950  6F39      	MOVWF CompTempVar2832+D'8', 1
1952  6F3A      	MOVWF CompTempVar2832+D'9', 1
1954  6F3D      	MOVWF CompTempVar2832+D'12', 1
1956  0E75      	MOVLW 0x75
1958  6F41      	MOVWF CompTempVar2832+D'16', 1
195A  6F45      	MOVWF CompTempVar2832+D'20', 1
195C  6F47      	MOVWF CompTempVar2832+D'22', 1
195E  6B4C      	CLRF CompTempVar2832+D'27', 1
1960  0E01      	MOVLW HIGH(CompTempVar2832+D'0')
1962  6F30      	MOVWF FCD_0f051__00066_arg_FCL_STR+D'1', 1
1964  0E31      	MOVLW LOW(CompTempVar2832+D'0')
1966  6F2F      	MOVWF FCD_0f051__00066_arg_FCL_STR, 1
1968  0E1C      	MOVLW 0x1C
196A  6F66      	MOVWF FCD_0f051__00066_arg_FCLsz_STR, 1
196C  6B67      	CLRF FCD_0f051__00066_arg_FCLsz_STR+D'1', 1
196E  6B68      	CLRF FCD_0f051__00066_arg_FCL_X1, 1
1970  6B69      	CLRF FCD_0f051__00066_arg_FCL_X1+D'1', 1
1972  0EF1      	MOVLW 0xF1
1974  6F6A      	MOVWF FCD_0f051__00066_arg_FCL_Y1, 1
1976  6B6B      	CLRF FCD_0f051__00066_arg_FCL_Y1+D'1', 1
1978  0E02      	MOVLW 0x02
197A  6F6C      	MOVWF FCD_0f051__00066_arg_FCL_FONT, 1
197C  0E01      	MOVLW 0x01
197E  6F6D      	MOVWF FCD_0f051__00066_arg_FCL_T_00067, 1
1980  ECE4F002  	CALL FCD_0f051__00066
1984  EF07F00D  	GOTO	label118
1988            ; } FCM_phase_debut function end

	ORG 0x00001988
1988            FCM_Phase__0008B
1988            ; { FCM_Phase_jeu ; function begin
1988            label113
1988  EC79F00B  	CALL FCM_Choix__0007A
198C  ECA0F00B  	CALL FCM_Choix__00078
1990  EC7CF009  	CALL FCM_Touche_00089
1994  D7F9      	BRA	label113
1996            ; } FCM_Phase_jeu function end

	ORG 0x00001996
1996            FCM_Initia_0006C
1996            ; { FCM_Initialisation ; function begin
1996            label114
1996  0100      	MOVLB 0x00
1998  EE00F080  	LFSR 0x00, gbl_FCV_TABLEAUJ1
199C  50E9      	MOVF FSR0L, W
199E  0101      	MOVLB 0x01
19A0  5113      	MOVF gbl_FCV_HITBOX_JOUEUR_1, W, 1
19A2  26E9      	ADDWF FSR0L, F
19A4  0E00      	MOVLW 0x00
19A6  6EEF      	MOVWF INDF0
19A8  2913      	INCF gbl_FCV_HITBOX_JOUEUR_1, W, 1
19AA  6F13      	MOVWF gbl_FCV_HITBOX_JOUEUR_1, 1
19AC  6B28      	CLRF CompTempVar2691, 1
19AE  0E65      	MOVLW 0x65
19B0  6313      	CPFSEQ gbl_FCV_HITBOX_JOUEUR_1, 1
19B2  D001      	BRA	label115
19B4  2B28      	INCF CompTempVar2691, F, 1
19B6            label115
19B6  5328      	MOVF CompTempVar2691, F, 1
19B8  E0EE      	BZ	label114
19BA            label116
19BA  EE00F005  	LFSR 0x00, gbl_FCV_TABLEAUJ2
19BE  50E9      	MOVF FSR0L, W
19C0  5112      	MOVF gbl_FCV_HITBOX_JOUEUR_2, W, 1
19C2  26E9      	ADDWF FSR0L, F
19C4  0E00      	MOVLW 0x00
19C6  6EEF      	MOVWF INDF0
19C8  2912      	INCF gbl_FCV_HITBOX_JOUEUR_2, W, 1
19CA  6F12      	MOVWF gbl_FCV_HITBOX_JOUEUR_2, 1
19CC  6B28      	CLRF CompTempVar2693, 1
19CE  0E65      	MOVLW 0x65
19D0  6312      	CPFSEQ gbl_FCV_HITBOX_JOUEUR_2, 1
19D2  D001      	BRA	label117
19D4  2B28      	INCF CompTempVar2693, F, 1
19D6            label117
19D6  5328      	MOVF CompTempVar2693, F, 1
19D8  E0F0      	BZ	label116
19DA  ECB1F00B  	CALL FCD_0f051__0006D
19DE  EC5BF009  	CALL FCD_0f051__0006E
19E2  EC18F007  	CALL FCM_lignes_00000
19E6  6B2F      	CLRF FCD_0f051__0006F_arg_FCL_X1, 1
19E8  6B30      	CLRF FCD_0f051__0006F_arg_FCL_X1+D'1', 1
19EA  6B31      	CLRF FCD_0f051__0006F_arg_FCL_Y1, 1
19EC  6B32      	CLRF FCD_0f051__0006F_arg_FCL_Y1+D'1', 1
19EE  0EF0      	MOVLW 0xF0
19F0  6F33      	MOVWF FCD_0f051__0006F_arg_FCL_X2, 1
19F2  6B34      	CLRF FCD_0f051__0006F_arg_FCL_X2+D'1', 1
19F4  0EF0      	MOVLW 0xF0
19F6  6F35      	MOVWF FCD_0f051__0006F_arg_FCL_Y2, 1
19F8  6B36      	CLRF FCD_0f051__0006F_arg_FCL_Y2+D'1', 1
19FA  EC84F002  	CALL FCD_0f051__0006F
19FE  0012      	RETURN
1A00            ; } FCM_Initialisation function end

	ORG 0x00001A00
1A00            main
1A00            ; { main ; function begin
1A00  0E0F      	MOVLW 0x0F
1A02  6EC1      	MOVWF gbl_adcon1
1A04  ECCBF00C  	CALL FCM_Initia_0006C
1A08  0E99      	MOVLW 0x99
1A0A  EF6CF00C  	GOTO	FCM_phase__00085
1A0E            label118
1A0E  0E02      	MOVLW 0x02
1A10  6F2C      	MOVWF delay_s_00000_arg_del, 1
1A12  EC33F000  	CALL delay_s_00000
1A16  0E99      	MOVLW 0x99
1A18  EFC4F00C  	GOTO	FCM_Phase__0008B
1A1C            label119
1A1C  ECF7F006  	CALL FCM_phase__0007B
1A20            label120
1A20  D7FF      	BRA	label120
1A22            ; } main function end

	ORG 0x00001A22
1A22            _startup
1A22  0ED5      	MOVLW 0xD5
1A24  6E6A      	MOVWF gbl_14_LSR
1A26  0EC4      	MOVLW 0xC4
1A28  6E6B      	MOVWF gbl_14_LSR+D'1'
1A2A  0EBB      	MOVLW 0xBB
1A2C  6E6C      	MOVWF gbl_14_LSR+D'2'
1A2E  0EDC      	MOVLW 0xDC
1A30  6E6D      	MOVWF gbl_14_LSR+D'3'
1A32  6A6E      	CLRF gbl_15_gbl_aSig
1A34  6A6F      	CLRF gbl_15_gbl_aSig+D'1'
1A36  6A70      	CLRF gbl_15_gbl_aSig+D'2'
1A38  6A71      	CLRF gbl_15_gbl_aSig+D'3'
1A3A  6A72      	CLRF gbl_15_gbl_bSig
1A3C  6A73      	CLRF gbl_15_gbl_bSig+D'1'
1A3E  6A74      	CLRF gbl_15_gbl_bSig+D'2'
1A40  6A75      	CLRF gbl_15_gbl_bSig+D'3'
1A42  6A76      	CLRF gbl_15_gbl_zSig
1A44  6A77      	CLRF gbl_15_gbl_zSig+D'1'
1A46  6A78      	CLRF gbl_15_gbl_zSig+D'2'
1A48  6A79      	CLRF gbl_15_gbl_zSig+D'3'
1A4A  0101      	MOVLB 0x01
1A4C  6B0C      	CLRF gbl_15_gbl_aExp, 1
1A4E  6B0D      	CLRF gbl_15_gbl_bExp, 1
1A50  6A7E      	CLRF gbl_15_gbl_zExp
1A52  6A7F      	CLRF gbl_15_gbl_zExp+D'1'
1A54  6B0E      	CLRF gbl_15_gbl_aSign, 1
1A56  6B0F      	CLRF gbl_15_gbl_bSign, 1
1A58  6B10      	CLRF gbl_15_gbl_zSign, 1
1A5A  6B11      	CLRF gbl_15_gbl_zSigZero, 1
1A5C  6A7A      	CLRF gbl_15_gbl_ret
1A5E  6A7B      	CLRF gbl_15_gbl_ret+D'1'
1A60  6A7C      	CLRF gbl_15_gbl_ret+D'2'
1A62  6A7D      	CLRF gbl_15_gbl_ret+D'3'
1A64  6B0A      	CLRF gbl_float_rounding_mode, 1
1A66  6B0B      	CLRF gbl_float_exception_flags, 1
1A68  0100      	MOVLB 0x00
1A6A  6BFF      	CLRF gbl_float_detect_tininess, 1
1A6C  0E01      	MOVLW 0x01
1A6E  0101      	MOVLB 0x01
1A70  6F12      	MOVWF gbl_FCV_HITBOX_JOUEUR_2, 1
1A72  0E01      	MOVLW 0x01
1A74  6F13      	MOVWF gbl_FCV_HITBOX_JOUEUR_1, 1
1A76  6B14      	CLRF gbl_FCV_CROISEUR, 1
1A78  6B15      	CLRF gbl_FCV_TORPILLEUR, 1
1A7A  0E18      	MOVLW 0x18
1A7C  0100      	MOVLB 0x00
1A7E  6FE9      	MOVWF gbl_FCV_Y_LIGNE, 1
1A80  6BEA      	CLRF gbl_FCV_Y_LIGNE+D'1', 1
1A82  0101      	MOVLB 0x01
1A84  6B16      	CLRF gbl_FCV_NUM_CASE, 1
1A86  0100      	MOVLB 0x00
1A88  6BEB      	CLRF gbl_FCV_X_SORTIE, 1
1A8A  6BEC      	CLRF gbl_FCV_X_SORTIE+D'1', 1
1A8C  6BED      	CLRF gbl_FCV_Y_TOUCH, 1
1A8E  6BEE      	CLRF gbl_FCV_Y_TOUCH+D'1', 1
1A90  0E18      	MOVLW 0x18
1A92  6FEF      	MOVWF gbl_FCV_X_LIGNE, 1
1A94  6BF0      	CLRF gbl_FCV_X_LIGNE+D'1', 1
1A96  0E18      	MOVLW 0x18
1A98  6FF1      	MOVWF gbl_FCV_Y, 1
1A9A  6BF2      	CLRF gbl_FCV_Y+D'1', 1
1A9C  0E18      	MOVLW 0x18
1A9E  6FF3      	MOVWF gbl_FCV_X, 1
1AA0  6BF4      	CLRF gbl_FCV_X+D'1', 1
1AA2  0101      	MOVLB 0x01
1AA4  6B17      	CLRF gbl_FCV_SOUS_MARIN, 1
1AA6  0100      	MOVLB 0x00
1AA8  6BF5      	CLRF gbl_FCV_X_TOUCH, 1
1AAA  6BF6      	CLRF gbl_FCV_X_TOUCH+D'1', 1
1AAC  0E18      	MOVLW 0x18
1AAE  6FF7      	MOVWF gbl_FCV_POSI_X2, 1
1AB0  6BF8      	CLRF gbl_FCV_POSI_X2+D'1', 1
1AB2  6BF9      	CLRF gbl_FCV_POSI_X1, 1
1AB4  6BFA      	CLRF gbl_FCV_POSI_X1+D'1', 1
1AB6  0E01      	MOVLW 0x01
1AB8  0101      	MOVLB 0x01
1ABA  6F18      	MOVWF gbl_FCV_TOUR, 1
1ABC  0E18      	MOVLW 0x18
1ABE  0100      	MOVLB 0x00
1AC0  6FFB      	MOVWF gbl_FCV_POSI_Y2, 1
1AC2  6BFC      	CLRF gbl_FCV_POSI_Y2+D'1', 1
1AC4  0101      	MOVLB 0x01
1AC6  6B19      	CLRF gbl_FCV_APPUI_ECRAN, 1
1AC8  0100      	MOVLB 0x00
1ACA  6BFD      	CLRF gbl_FCV_POSI_Y1, 1
1ACC  6BFE      	CLRF gbl_FCV_POSI_Y1+D'1', 1
1ACE  0101      	MOVLB 0x01
1AD0  6B1A      	CLRF gbl_FCV_HITBOX_2, 1
1AD2  0E01      	MOVLW 0x01
1AD4  6F00      	MOVWF gbl_FCV_HITBOX_1, 1
1AD6  6B01      	CLRF gbl_FCV_HITBOX_1+D'1', 1
1AD8  6B1B      	CLRF gbl_FCV_BATEAU, 1
1ADA  6B1C      	CLRF gbl_FCV_PORTE_AVION, 1
1ADC  6B1D      	CLRF gbl_FCV_JOUEUR1, 1
1ADE  6B1E      	CLRF gbl_FCV_CONTRE_TORPILLEUR, 1
1AE0  0E00      	MOVLW 0x00
1AE2  6F1F      	MOVWF gbl_FCD_00fb8_ASCII6__INTL_00000, 1
1AE4  0E01      	MOVLW 0x01
1AE6  6F20      	MOVWF gbl_FCD_00fb7_ASCII7__INTL_00001, 1
1AE8  0E02      	MOVLW 0x02
1AEA  6F21      	MOVWF gbl_FCD_00fb6_ASCII5__INTL_00002, 1
1AEC  0E03      	MOVLW 0x03
1AEE  6F22      	MOVWF gbl_FCD_00fb5_ASCII4__INTL_00003, 1
1AF0  0E04      	MOVLW 0x04
1AF2  6F23      	MOVWF gbl_FCD_00fb4_ASCII3__INTL_00004, 1
1AF4  0E05      	MOVLW 0x05
1AF6  6F24      	MOVWF gbl_FCD_00fb3_ASCII2__INTL_00005, 1
1AF8  0E06      	MOVLW 0x06
1AFA  6F25      	MOVWF gbl_FCD_00fb2_ASCII1__INTL_00006, 1
1AFC  0E07      	MOVLW 0x07
1AFE  6F26      	MOVWF gbl_FCD_00fb1_ASCII0__INTL_00007, 1
1B00  0100      	MOVLB 0x00
1B02  6BE5      	CLRF gbl_FCV_0ba71_Base_GLCD__P_00009, 1
1B04  6BE6      	CLRF gbl_FCV_0ba71_Base_GLCD__P_00009+D'1', 1
1B06  6BE7      	CLRF gbl_FCV_0ba71_Base_GLCD__P_00009+D'2', 1
1B08  6BE8      	CLRF gbl_FCV_0ba71_Base_GLCD__P_00009+D'3', 1
1B0A  0101      	MOVLB 0x01
1B0C  6B27      	CLRF gbl_FCV_0ba71_Base_GLCD__O_0000B, 1
1B0E  EF00F00D  	GOTO	main
	ORG 0x00001B12
1B12            interrupt
1B12            ; { interrupt ; function begin
1B12  CFEAF001  	MOVFF FSR0H,  Int1Context
1B16  CFE9F002  	MOVFF FSR0L,  Int1Context+D'1'
1B1A  CFF4F003  	MOVFF PRODH,  Int1Context+D'2'
1B1E  CFF3F004  	MOVFF PRODL,  Int1Context+D'3'
1B22  C004FFF3  	MOVFF Int1Context+D'3',  PRODL
1B26  C003FFF4  	MOVFF Int1Context+D'2',  PRODH
1B2A  C002FFE9  	MOVFF Int1Context+D'1',  FSR0L
1B2E  C001FFEA  	MOVFF Int1Context,  FSR0H
1B32  0011      	RETFIE 1
1B34            ; } interrupt function end

	ORG 0x00300000
300000  32FF      	DW 0x32FF
300002  FEF9      	DW 0xFEF9
300004  79FF      	DW 0x79FF
300006  FFBA      	DW 0xFFBA
300008  FFFF      	DW 0xFFFF
30000A  FFFF      	DW 0xFFFF
30000C  FFFF      	DW 0xFFFF
