;/////////////////////////////////////////////////////////////////////////////////
;// Code Generator: BoostC Compiler - http://www.sourceboost.com
;// Version       : 7.20
;// License Type  : Pro License
;// Limitations   : PIC18 max code size:Unlimited, max RAM banks:Unlimited
;/////////////////////////////////////////////////////////////////////////////////

	ORG 0x00000000
0000  EFEBF007  	GOTO	_startup
	ORG 0x00000008
0008  EF13F008  	GOTO	interrupt
	ORG 0x0000000C
000C            delay_us_00000
000C            ; { delay_us ; function begin
000C            label1
000C  0000      	NOP
000E  0000      	NOP
0010  2FB0      	DECFSZ delay_us_00000_arg_del, F, 1
0012  D7FC      	BRA	label1
0014  0012      	RETURN
0016            ; } delay_us function end

	ORG 0x00000016
0016            delay_ms_00000
0016            ; { delay_ms ; function begin
0016  5273      	MOVF delay_ms_00000_arg_del, F
0018  0000      	NOP
001A  E101      	BNZ	label2
001C  0012      	RETURN
001E            label2
001E  0EF5      	MOVLW 0xF5
0020            label3
0020  0000      	NOP
0022  0000      	NOP
0024  0000      	NOP
0026  0000      	NOP
0028  0000      	NOP
002A  0000      	NOP
002C  0000      	NOP
002E  0000      	NOP
0030  0000      	NOP
0032  0000      	NOP
0034  0000      	NOP
0036  0000      	NOP
0038  0000      	NOP
003A  0000      	NOP
003C  0000      	NOP
003E  0000      	NOP
0040  0FFF      	ADDLW 0xFF
0042  A4D8      	BTFSS STATUS,Z
0044  D7ED      	BRA	label3
0046  0000      	NOP
0048  0000      	NOP
004A  0000      	NOP
004C  0000      	NOP
004E  0000      	NOP
0050  0000      	NOP
0052  0000      	NOP
0054  0000      	NOP
0056  0000      	NOP
0058  0000      	NOP
005A  0000      	NOP
005C  0000      	NOP
005E  0000      	NOP
0060  2E73      	DECFSZ delay_ms_00000_arg_del, F
0062  D7DD      	BRA	label2
0064  0012      	RETURN
0066            ; } delay_ms function end

	ORG 0x00000066
0066            delay_s_00000
0066            ; { delay_s ; function begin
0066            label4
0066  0EFA      	MOVLW 0xFA
0068  6E73      	MOVWF delay_ms_00000_arg_del
006A  EC0BF000  	CALL delay_ms_00000
006E  0EFA      	MOVLW 0xFA
0070  6E73      	MOVWF delay_ms_00000_arg_del
0072  EC0BF000  	CALL delay_ms_00000
0076  0EFA      	MOVLW 0xFA
0078  6E73      	MOVWF delay_ms_00000_arg_del
007A  EC0BF000  	CALL delay_ms_00000
007E  0EFA      	MOVLW 0xFA
0080  6E73      	MOVWF delay_ms_00000_arg_del
0082  EC0BF000  	CALL delay_ms_00000
0086  2E70      	DECFSZ delay_s_00000_arg_del, F
0088  D7EE      	BRA	label4
008A  0012      	RETURN
008C            ; } delay_s function end

	ORG 0x0000008C
008C            FC_CAL_UAR_0006C
008C            ; { FC_CAL_UART_Receive_1 ; function begin
008C  69D3      	SETF FC_CAL_UAR_0006C_1_retVal, 1
008E  6BD4      	CLRF FC_CAL_UAR_0006C_1_delay1, 1
0090  6BD5      	CLRF FC_CAL_UAR_0006C_1_regcheck, 1
0092  6BD6      	CLRF FC_CAL_UAR_0006C_1_bWaitForever, 1
0094  6BD7      	CLRF FC_CAL_UAR_0006C_1_rxStatus, 1
0096  6BDA      	CLRF FC_CAL_UAR_0006C_1_dummy, 1
0098  29D2      	INCF FC_CAL_UAR_0006C_arg_nTimeout, W, 1
009A  E102      	BNZ	label5
009C  0E01      	MOVLW 0x01
009E  6FD6      	MOVWF FC_CAL_UAR_0006C_1_bWaitForever, 1
00A0            label5
00A0  53D7      	MOVF FC_CAL_UAR_0006C_1_rxStatus, F, 1
00A2  E124      	BNZ	label10
00A4  53D6      	MOVF FC_CAL_UAR_0006C_1_bWaitForever, F, 1
00A6  E118      	BNZ	label9
00A8  53D2      	MOVF FC_CAL_UAR_0006C_arg_nTimeout, F, 1
00AA  E103      	BNZ	label6
00AC  0E01      	MOVLW 0x01
00AE  6FD7      	MOVWF FC_CAL_UAR_0006C_1_rxStatus, 1
00B0  D013      	BRA	label9
00B2            label6
00B2  6BD8      	CLRF FC_CAL_UAR_0006C_1_delaycnt, 1
00B4  6BD9      	CLRF FC_CAL_UAR_0006C_1_delaycnt+D'1', 1
00B6            label7
00B6  0E31      	MOVLW 0x31
00B8  5DD8      	SUBWF FC_CAL_UAR_0006C_1_delaycnt, W, 1
00BA  E205      	BC	label8
00BC  67D9      	TSTFSZ FC_CAL_UAR_0006C_1_delaycnt+D'1', 1
00BE  D003      	BRA	label8
00C0  4BD8      	INFSNZ FC_CAL_UAR_0006C_1_delaycnt, F, 1
00C2  2BD9      	INCF FC_CAL_UAR_0006C_1_delaycnt+D'1', F, 1
00C4  D7F8      	BRA	label7
00C6            label8
00C6  29D4      	INCF FC_CAL_UAR_0006C_1_delay1, W, 1
00C8  6FD4      	MOVWF FC_CAL_UAR_0006C_1_delay1, 1
00CA  0E64      	MOVLW 0x64
00CC  63D4      	CPFSEQ FC_CAL_UAR_0006C_1_delay1, 1
00CE  D004      	BRA	label9
00D0  05D2      	DECF FC_CAL_UAR_0006C_arg_nTimeout, W, 1
00D2  6FD2      	MOVWF FC_CAL_UAR_0006C_arg_nTimeout, 1
00D4  0004      	CLRWDT
00D6  6BD4      	CLRF FC_CAL_UAR_0006C_1_delay1, 1
00D8            label9
00D8  0E20      	MOVLW 0x20
00DA  149E      	ANDWF gbl_pir1, W
00DC  6FDB      	MOVWF CompTempVar2710, 1
00DE  51DB      	MOVF CompTempVar2710, W, 1
00E0  6FD5      	MOVWF FC_CAL_UAR_0006C_1_regcheck, 1
00E2  53D5      	MOVF FC_CAL_UAR_0006C_1_regcheck, F, 1
00E4  E0DD      	BZ	label5
00E6  0E02      	MOVLW 0x02
00E8  6FD7      	MOVWF FC_CAL_UAR_0006C_1_rxStatus, 1
00EA  D7DA      	BRA	label5
00EC            label10
00EC  0E02      	MOVLW 0x02
00EE  63D7      	CPFSEQ FC_CAL_UAR_0006C_1_rxStatus, 1
00F0  D018      	BRA	label13
00F2  0E04      	MOVLW 0x04
00F4  14AB      	ANDWF gbl_rcsta, W
00F6  6FDB      	MOVWF CompTempVar2711, 1
00F8  51DB      	MOVF CompTempVar2711, W, 1
00FA  6FD5      	MOVWF FC_CAL_UAR_0006C_1_regcheck, 1
00FC  53D5      	MOVF FC_CAL_UAR_0006C_1_regcheck, F, 1
00FE  E003      	BZ	label11
0100  50AE      	MOVF gbl_rcreg, W
0102  6FDA      	MOVWF FC_CAL_UAR_0006C_1_dummy, 1
0104  D00E      	BRA	label13
0106            label11
0106  0E02      	MOVLW 0x02
0108  14AB      	ANDWF gbl_rcsta, W
010A  6FDB      	MOVWF CompTempVar2712, 1
010C  51DB      	MOVF CompTempVar2712, W, 1
010E  6FD5      	MOVWF FC_CAL_UAR_0006C_1_regcheck, 1
0110  53D5      	MOVF FC_CAL_UAR_0006C_1_regcheck, F, 1
0112  E003      	BZ	label12
0114  98AB      	BCF gbl_rcsta,4
0116  88AB      	BSF gbl_rcsta,4
0118  D004      	BRA	label13
011A            label12
011A  6BD3      	CLRF FC_CAL_UAR_0006C_1_retVal, 1
011C  50AE      	MOVF gbl_rcreg, W
011E  11D3      	IORWF FC_CAL_UAR_0006C_1_retVal, W, 1
0120  6FD3      	MOVWF FC_CAL_UAR_0006C_1_retVal, 1
0122            label13
0122  51D3      	MOVF FC_CAL_UAR_0006C_1_retVal, W, 1
0124  6FDB      	MOVWF CompTempVarRet2709, 1
0126  6BDC      	CLRF CompTempVarRet2709+D'1', 1
0128  0012      	RETURN
012A            ; } FC_CAL_UART_Receive_1 function end

	ORG 0x0000012A
012A            FCI_DELAYI_00038
012A            ; { FCI_DELAYINT_US ; function begin
012A            label14
012A  0EFF      	MOVLW 0xFF
012C  65AE      	CPFSGT FCI_DELAYI_00038_arg_Delay, 1
012E  67AF      	TSTFSZ FCI_DELAYI_00038_arg_Delay+D'1', 1
0130  D001      	BRA	label15
0132  D00C      	BRA	label16
0134            label15
0134  69B0      	SETF delay_us_00000_arg_del, 1
0136  EC06F000  	CALL delay_us_00000
013A  0EFF      	MOVLW 0xFF
013C  5DAE      	SUBWF FCI_DELAYI_00038_arg_Delay, W, 1
013E  6FB0      	MOVWF CompTempVar1836, 1
0140  59AE      	SUBWFB FCI_DELAYI_00038_arg_Delay, W, 1
0142  08FF      	SUBLW 0xFF
0144  5FAF      	SUBWF FCI_DELAYI_00038_arg_Delay+D'1', F, 1
0146  51B0      	MOVF CompTempVar1836, W, 1
0148  6FAE      	MOVWF FCI_DELAYI_00038_arg_Delay, 1
014A  D7EF      	BRA	label14
014C            label16
014C  0E00      	MOVLW 0x00
014E  65AE      	CPFSGT FCI_DELAYI_00038_arg_Delay, 1
0150  67AF      	TSTFSZ FCI_DELAYI_00038_arg_Delay+D'1', 1
0152  D001      	BRA	label17
0154  0012      	RETURN
0156            label17
0156  51AE      	MOVF FCI_DELAYI_00038_arg_Delay, W, 1
0158  6FB0      	MOVWF delay_us_00000_arg_del, 1
015A  EC06F000  	CALL delay_us_00000
015E  0012      	RETURN
0160            ; } FCI_DELAYINT_US function end

	ORG 0x00000160
0160            FC_CAL_UAR_0006D
0160            ; { FC_CAL_UART_Send_1 ; function begin
0160            label18
0160  0E10      	MOVLW 0x10
0162  149E      	ANDWF gbl_pir1, W
0164  6FAD      	MOVWF CompTempVar2713, 1
0166  53AD      	MOVF CompTempVar2713, F, 1
0168  E0FB      	BZ	label18
016A  51AB      	MOVF FC_CAL_UAR_0006D_arg_nChar, W, 1
016C  6EAD      	MOVWF gbl_txreg
016E  0012      	RETURN
0170            ; } FC_CAL_UART_Send_1 function end

	ORG 0x00000170
0170            FCI_GETLEN_0003E
0170            ; { FCI_GETLENGTH ; function begin
0170  6BAE      	CLRF FCI_GETLEN_0003E_1_tmp, 1
0172            label19
0172  51AD      	MOVF FCI_GETLEN_0003E_arg_iStr1_len, W, 1
0174  61AE      	CPFSLT FCI_GETLEN_0003E_1_tmp, 1
0176  D009      	BRA	label20
0178  51AC      	MOVF FCI_GETLEN_0003E_arg_sStr1+D'1', W, 1
017A  6EEA      	MOVWF FSR0H
017C  51AB      	MOVF FCI_GETLEN_0003E_arg_sStr1, W, 1
017E  25AE      	ADDWF FCI_GETLEN_0003E_1_tmp, W, 1
0180  6EE9      	MOVWF FSR0L
0182  52EF      	MOVF INDF0, F
0184  E002      	BZ	label20
0186  2BAE      	INCF FCI_GETLEN_0003E_1_tmp, F, 1
0188  D7F4      	BRA	label19
018A            label20
018A  51AE      	MOVF FCI_GETLEN_0003E_1_tmp, W, 1
018C  6FAF      	MOVWF CompTempVarRet1850, 1
018E  0012      	RETURN
0190            ; } FCI_GETLENGTH function end

	ORG 0x00000190
0190            FCD_0c851__00073
0190            ; { FCD_0c851_Bluetooth2__StringReceive ; function begin
0190  0100      	MOVLB 0x00
0192  6BAB      	CLRF FCD_0c851__00073_1_FCL_TOUT, 1
0194  6BAC      	CLRF FCD_0c851__00073_1_FCL_LEN, 1
0196  506F      	MOVF gbl_FCV_0c851_Bluetooth2___00002, W
0198  6FAC      	MOVWF FCD_0c851__00073_1_FCL_LEN, 1
019A  6A6E      	CLRF gbl_FCV_0c851_Bluetooth2___00001
019C  6A6F      	CLRF gbl_FCV_0c851_Bluetooth2___00002
019E  6A6D      	CLRF gbl_FCV_0c851_Bluetooth2__RX_IDX
01A0            label21
01A0  526E      	MOVF gbl_FCV_0c851_Bluetooth2___00001, F
01A2  E113      	BNZ	label23
01A4  0EFF      	MOVLW 0xFF
01A6  61AB      	CPFSLT FCD_0c851__00073_1_FCL_TOUT, 1
01A8  D010      	BRA	label23
01AA  29AB      	INCF FCD_0c851__00073_1_FCL_TOUT, W, 1
01AC  6FAB      	MOVWF FCD_0c851__00073_1_FCL_TOUT, 1
01AE  506F      	MOVF gbl_FCV_0c851_Bluetooth2___00002, W
01B0  63AC      	CPFSEQ FCD_0c851__00073_1_FCL_LEN, 1
01B2  626F      	CPFSEQ gbl_FCV_0c851_Bluetooth2___00002
01B4  D003      	BRA	label22
01B6  6BAB      	CLRF FCD_0c851__00073_1_FCL_TOUT, 1
01B8  506F      	MOVF gbl_FCV_0c851_Bluetooth2___00002, W
01BA  6FAC      	MOVWF FCD_0c851__00073_1_FCL_LEN, 1
01BC            label22
01BC  0EF4      	MOVLW 0xF4
01BE  6FAE      	MOVWF FCI_DELAYI_00038_arg_Delay, 1
01C0  0E01      	MOVLW 0x01
01C2  6FAF      	MOVWF FCI_DELAYI_00038_arg_Delay+D'1', 1
01C4  EC95F000  	CALL FCI_DELAYI_00038
01C8  D7EB      	BRA	label21
01CA            label23
01CA  29AB      	INCF FCD_0c851__00073_1_FCL_TOUT, W, 1
01CC  E104      	BNZ	label24
01CE  6A6E      	CLRF gbl_FCV_0c851_Bluetooth2___00001
01D0  6A6F      	CLRF gbl_FCV_0c851_Bluetooth2___00002
01D2  6BAD      	CLRF FCD_0c851__00073_1_FCR_RETVAL, 1
01D4  D002      	BRA	label25
01D6            label24
01D6  0E01      	MOVLW 0x01
01D8  6FAD      	MOVWF FCD_0c851__00073_1_FCR_RETVAL, 1
01DA            label25
01DA  51AD      	MOVF FCD_0c851__00073_1_FCR_RETVAL, W, 1
01DC  6FAE      	MOVWF CompTempVarRet2723, 1
01DE  0012      	RETURN
01E0            ; } FCD_0c851_Bluetooth2__StringReceive function end

	ORG 0x000001E0
01E0            FCI_SHEAD_00000
01E0            ; { FCI_SHEAD ; function begin
01E0  6BB5      	CLRF FCI_SHEAD_00000_1_len, 1
01E2  51B2      	MOVF FCI_SHEAD_00000_arg_sDst, W, 1
01E4  627E      	CPFSEQ FCI_SHEAD_00000_arg_sSrc2
01E6  D08C      	BRA	label37
01E8  51B3      	MOVF FCI_SHEAD_00000_arg_sDst+D'1', W, 1
01EA  627F      	CPFSEQ FCI_SHEAD_00000_arg_sSrc2+D'1'
01EC  D089      	BRA	label37
01EE  6BB6      	CLRF FCI_SHEAD_00000_1_strt, 1
01F0            label26
01F0  507D      	MOVF FCI_SHEAD_00000_arg_iSrc1_len, W
01F2  61B6      	CPFSLT FCI_SHEAD_00000_1_strt, 1
01F4  D009      	BRA	label27
01F6  507C      	MOVF FCI_SHEAD_00000_arg_sSrc1+D'1', W
01F8  6EEA      	MOVWF FSR0H
01FA  507B      	MOVF FCI_SHEAD_00000_arg_sSrc1, W
01FC  25B6      	ADDWF FCI_SHEAD_00000_1_strt, W, 1
01FE  6EE9      	MOVWF FSR0L
0200  52EF      	MOVF INDF0, F
0202  E002      	BZ	label27
0204  2BB6      	INCF FCI_SHEAD_00000_1_strt, F, 1
0206  D7F4      	BRA	label26
0208            label27
0208  51B4      	MOVF FCI_SHEAD_00000_arg_iDst_len, W, 1
020A  61B6      	CPFSLT FCI_SHEAD_00000_1_strt, 1
020C  D058      	BRA	label35
020E  6BB5      	CLRF FCI_SHEAD_00000_1_len, 1
0210            label28
0210  51B1      	MOVF FCI_SHEAD_00000_arg_iSrc2_len, W, 1
0212  61B5      	CPFSLT FCI_SHEAD_00000_1_len, 1
0214  D009      	BRA	label29
0216  507F      	MOVF FCI_SHEAD_00000_arg_sSrc2+D'1', W
0218  6EEA      	MOVWF FSR0H
021A  507E      	MOVF FCI_SHEAD_00000_arg_sSrc2, W
021C  25B5      	ADDWF FCI_SHEAD_00000_1_len, W, 1
021E  6EE9      	MOVWF FSR0L
0220  52EF      	MOVF INDF0, F
0222  E002      	BZ	label29
0224  2BB5      	INCF FCI_SHEAD_00000_1_len, F, 1
0226  D7F4      	BRA	label28
0228            label29
0228  51B6      	MOVF FCI_SHEAD_00000_1_strt, W, 1
022A  5DB4      	SUBWF FCI_SHEAD_00000_arg_iDst_len, W, 1
022C  6FB7      	MOVWF CompTempVar2023, 1
022E  51B5      	MOVF FCI_SHEAD_00000_1_len, W, 1
0230  61B7      	CPFSLT CompTempVar2023, 1
0232  D005      	BRA	label30
0234  51B6      	MOVF FCI_SHEAD_00000_1_strt, W, 1
0236  5DB4      	SUBWF FCI_SHEAD_00000_arg_iDst_len, W, 1
0238  6FB8      	MOVWF CompTempVar2029, 1
023A  51B8      	MOVF CompTempVar2029, W, 1
023C  6FB5      	MOVWF FCI_SHEAD_00000_1_len, 1
023E            label30
023E  51B5      	MOVF FCI_SHEAD_00000_1_len, W, 1
0240  25B6      	ADDWF FCI_SHEAD_00000_1_strt, W, 1
0242  6FB1      	MOVWF FCI_SHEAD_00000_arg_iSrc2_len, 1
0244  51B5      	MOVF FCI_SHEAD_00000_1_len, W, 1
0246  6FB6      	MOVWF FCI_SHEAD_00000_1_strt, 1
0248            label31
0248  0E00      	MOVLW 0x00
024A  65B6      	CPFSGT FCI_SHEAD_00000_1_strt, 1
024C  D014      	BRA	label32
024E  07B6      	DECF FCI_SHEAD_00000_1_strt, F, 1
0250  07B1      	DECF FCI_SHEAD_00000_arg_iSrc2_len, F, 1
0252  507F      	MOVF FCI_SHEAD_00000_arg_sSrc2+D'1', W
0254  6EEA      	MOVWF FSR0H
0256  507E      	MOVF FCI_SHEAD_00000_arg_sSrc2, W
0258  6EE9      	MOVWF FSR0L
025A  51B6      	MOVF FCI_SHEAD_00000_1_strt, W, 1
025C  6FB8      	MOVWF CompTempVar2032, 1
025E  51B8      	MOVF CompTempVar2032, W, 1
0260  26E9      	ADDWF FSR0L, F
0262  50EF      	MOVF INDF0, W
0264  6FB9      	MOVWF CompTempVar2033, 1
0266  51B3      	MOVF FCI_SHEAD_00000_arg_sDst+D'1', W, 1
0268  6EEA      	MOVWF FSR0H
026A  51B2      	MOVF FCI_SHEAD_00000_arg_sDst, W, 1
026C  25B1      	ADDWF FCI_SHEAD_00000_arg_iSrc2_len, W, 1
026E  6EE9      	MOVWF FSR0L
0270  51B9      	MOVF CompTempVar2033, W, 1
0272  6EEF      	MOVWF INDF0
0274  D7E9      	BRA	label31
0276            label32
0276  6BB6      	CLRF FCI_SHEAD_00000_1_strt, 1
0278            label33
0278  507D      	MOVF FCI_SHEAD_00000_arg_iSrc1_len, W
027A  61B6      	CPFSLT FCI_SHEAD_00000_1_strt, 1
027C  D01D      	BRA	label34
027E  51B4      	MOVF FCI_SHEAD_00000_arg_iDst_len, W, 1
0280  61B6      	CPFSLT FCI_SHEAD_00000_1_strt, 1
0282  D01A      	BRA	label34
0284  507C      	MOVF FCI_SHEAD_00000_arg_sSrc1+D'1', W
0286  6EEA      	MOVWF FSR0H
0288  507B      	MOVF FCI_SHEAD_00000_arg_sSrc1, W
028A  25B6      	ADDWF FCI_SHEAD_00000_1_strt, W, 1
028C  6EE9      	MOVWF FSR0L
028E  52EF      	MOVF INDF0, F
0290  E013      	BZ	label34
0292  507C      	MOVF FCI_SHEAD_00000_arg_sSrc1+D'1', W
0294  6EEA      	MOVWF FSR0H
0296  507B      	MOVF FCI_SHEAD_00000_arg_sSrc1, W
0298  6EE9      	MOVWF FSR0L
029A  51B6      	MOVF FCI_SHEAD_00000_1_strt, W, 1
029C  6FB8      	MOVWF CompTempVar2036, 1
029E  51B8      	MOVF CompTempVar2036, W, 1
02A0  26E9      	ADDWF FSR0L, F
02A2  50EF      	MOVF INDF0, W
02A4  6FB9      	MOVWF CompTempVar2037, 1
02A6  51B3      	MOVF FCI_SHEAD_00000_arg_sDst+D'1', W, 1
02A8  6EEA      	MOVWF FSR0H
02AA  51B2      	MOVF FCI_SHEAD_00000_arg_sDst, W, 1
02AC  25B6      	ADDWF FCI_SHEAD_00000_1_strt, W, 1
02AE  6EE9      	MOVWF FSR0L
02B0  51B9      	MOVF CompTempVar2037, W, 1
02B2  6EEF      	MOVWF INDF0
02B4  2BB6      	INCF FCI_SHEAD_00000_1_strt, F, 1
02B6  D7E0      	BRA	label33
02B8            label34
02B8  51B6      	MOVF FCI_SHEAD_00000_1_strt, W, 1
02BA  27B5      	ADDWF FCI_SHEAD_00000_1_len, F, 1
02BC  D075      	BRA	label42
02BE            label35
02BE  6BB5      	CLRF FCI_SHEAD_00000_1_len, 1
02C0            label36
02C0  507D      	MOVF FCI_SHEAD_00000_arg_iSrc1_len, W
02C2  61B5      	CPFSLT FCI_SHEAD_00000_1_len, 1
02C4  D071      	BRA	label42
02C6  51B4      	MOVF FCI_SHEAD_00000_arg_iDst_len, W, 1
02C8  61B5      	CPFSLT FCI_SHEAD_00000_1_len, 1
02CA  D06E      	BRA	label42
02CC  507C      	MOVF FCI_SHEAD_00000_arg_sSrc1+D'1', W
02CE  6EEA      	MOVWF FSR0H
02D0  507B      	MOVF FCI_SHEAD_00000_arg_sSrc1, W
02D2  25B5      	ADDWF FCI_SHEAD_00000_1_len, W, 1
02D4  6EE9      	MOVWF FSR0L
02D6  52EF      	MOVF INDF0, F
02D8  E067      	BZ	label42
02DA  507C      	MOVF FCI_SHEAD_00000_arg_sSrc1+D'1', W
02DC  6EEA      	MOVWF FSR0H
02DE  507B      	MOVF FCI_SHEAD_00000_arg_sSrc1, W
02E0  6EE9      	MOVWF FSR0L
02E2  51B5      	MOVF FCI_SHEAD_00000_1_len, W, 1
02E4  6FB7      	MOVWF CompTempVar2044, 1
02E6  51B7      	MOVF CompTempVar2044, W, 1
02E8  26E9      	ADDWF FSR0L, F
02EA  50EF      	MOVF INDF0, W
02EC  6FB8      	MOVWF CompTempVar2045, 1
02EE  51B3      	MOVF FCI_SHEAD_00000_arg_sDst+D'1', W, 1
02F0  6EEA      	MOVWF FSR0H
02F2  51B2      	MOVF FCI_SHEAD_00000_arg_sDst, W, 1
02F4  25B5      	ADDWF FCI_SHEAD_00000_1_len, W, 1
02F6  6EE9      	MOVWF FSR0L
02F8  51B8      	MOVF CompTempVar2045, W, 1
02FA  6EEF      	MOVWF INDF0
02FC  2BB5      	INCF FCI_SHEAD_00000_1_len, F, 1
02FE  D7E0      	BRA	label36
0300            label37
0300  6BB5      	CLRF FCI_SHEAD_00000_1_len, 1
0302            label38
0302  507D      	MOVF FCI_SHEAD_00000_arg_iSrc1_len, W
0304  61B5      	CPFSLT FCI_SHEAD_00000_1_len, 1
0306  D01D      	BRA	label39
0308  51B4      	MOVF FCI_SHEAD_00000_arg_iDst_len, W, 1
030A  61B5      	CPFSLT FCI_SHEAD_00000_1_len, 1
030C  D01A      	BRA	label39
030E  507C      	MOVF FCI_SHEAD_00000_arg_sSrc1+D'1', W
0310  6EEA      	MOVWF FSR0H
0312  507B      	MOVF FCI_SHEAD_00000_arg_sSrc1, W
0314  25B5      	ADDWF FCI_SHEAD_00000_1_len, W, 1
0316  6EE9      	MOVWF FSR0L
0318  52EF      	MOVF INDF0, F
031A  E013      	BZ	label39
031C  507C      	MOVF FCI_SHEAD_00000_arg_sSrc1+D'1', W
031E  6EEA      	MOVWF FSR0H
0320  507B      	MOVF FCI_SHEAD_00000_arg_sSrc1, W
0322  6EE9      	MOVWF FSR0L
0324  51B5      	MOVF FCI_SHEAD_00000_1_len, W, 1
0326  6FB7      	MOVWF CompTempVar2052, 1
0328  51B7      	MOVF CompTempVar2052, W, 1
032A  26E9      	ADDWF FSR0L, F
032C  50EF      	MOVF INDF0, W
032E  6FB8      	MOVWF CompTempVar2053, 1
0330  51B3      	MOVF FCI_SHEAD_00000_arg_sDst+D'1', W, 1
0332  6EEA      	MOVWF FSR0H
0334  51B2      	MOVF FCI_SHEAD_00000_arg_sDst, W, 1
0336  25B5      	ADDWF FCI_SHEAD_00000_1_len, W, 1
0338  6EE9      	MOVWF FSR0L
033A  51B8      	MOVF CompTempVar2053, W, 1
033C  6EEF      	MOVWF INDF0
033E  2BB5      	INCF FCI_SHEAD_00000_1_len, F, 1
0340  D7E0      	BRA	label38
0342            label39
0342  51B4      	MOVF FCI_SHEAD_00000_arg_iDst_len, W, 1
0344  61B5      	CPFSLT FCI_SHEAD_00000_1_len, 1
0346  D030      	BRA	label42
0348  6BB8      	CLRF CompTempVar2059, 1
034A  51B5      	MOVF FCI_SHEAD_00000_1_len, W, 1
034C  25B2      	ADDWF FCI_SHEAD_00000_arg_sDst, W, 1
034E  6FB7      	MOVWF CompTempVar2058, 1
0350  51B3      	MOVF FCI_SHEAD_00000_arg_sDst+D'1', W, 1
0352  23B8      	ADDWFC CompTempVar2059, F, 1
0354  51B7      	MOVF CompTempVar2058, W, 1
0356  6E7B      	MOVWF FCI_SHEAD_00000_arg_sSrc1
0358  51B8      	MOVF CompTempVar2059, W, 1
035A  6E7C      	MOVWF FCI_SHEAD_00000_arg_sSrc1+D'1'
035C  51B5      	MOVF FCI_SHEAD_00000_1_len, W, 1
035E  5DB4      	SUBWF FCI_SHEAD_00000_arg_iDst_len, W, 1
0360  6E7D      	MOVWF FCI_SHEAD_00000_arg_iSrc1_len
0362  6BB6      	CLRF FCI_SHEAD_00000_1_strt, 1
0364            label40
0364  51B1      	MOVF FCI_SHEAD_00000_arg_iSrc2_len, W, 1
0366  61B6      	CPFSLT FCI_SHEAD_00000_1_strt, 1
0368  D01D      	BRA	label41
036A  507D      	MOVF FCI_SHEAD_00000_arg_iSrc1_len, W
036C  61B6      	CPFSLT FCI_SHEAD_00000_1_strt, 1
036E  D01A      	BRA	label41
0370  507F      	MOVF FCI_SHEAD_00000_arg_sSrc2+D'1', W
0372  6EEA      	MOVWF FSR0H
0374  507E      	MOVF FCI_SHEAD_00000_arg_sSrc2, W
0376  25B6      	ADDWF FCI_SHEAD_00000_1_strt, W, 1
0378  6EE9      	MOVWF FSR0L
037A  52EF      	MOVF INDF0, F
037C  E013      	BZ	label41
037E  507F      	MOVF FCI_SHEAD_00000_arg_sSrc2+D'1', W
0380  6EEA      	MOVWF FSR0H
0382  507E      	MOVF FCI_SHEAD_00000_arg_sSrc2, W
0384  6EE9      	MOVWF FSR0L
0386  51B6      	MOVF FCI_SHEAD_00000_1_strt, W, 1
0388  6FB7      	MOVWF CompTempVar2062, 1
038A  51B7      	MOVF CompTempVar2062, W, 1
038C  26E9      	ADDWF FSR0L, F
038E  50EF      	MOVF INDF0, W
0390  6FB8      	MOVWF CompTempVar2063, 1
0392  507C      	MOVF FCI_SHEAD_00000_arg_sSrc1+D'1', W
0394  6EEA      	MOVWF FSR0H
0396  507B      	MOVF FCI_SHEAD_00000_arg_sSrc1, W
0398  25B6      	ADDWF FCI_SHEAD_00000_1_strt, W, 1
039A  6EE9      	MOVWF FSR0L
039C  51B8      	MOVF CompTempVar2063, W, 1
039E  6EEF      	MOVWF INDF0
03A0  2BB6      	INCF FCI_SHEAD_00000_1_strt, F, 1
03A2  D7E0      	BRA	label40
03A4            label41
03A4  51B6      	MOVF FCI_SHEAD_00000_1_strt, W, 1
03A6  27B5      	ADDWF FCI_SHEAD_00000_1_len, F, 1
03A8            label42
03A8  51B4      	MOVF FCI_SHEAD_00000_arg_iDst_len, W, 1
03AA  61B5      	CPFSLT FCI_SHEAD_00000_1_len, 1
03AC  0012      	RETURN
03AE  51B3      	MOVF FCI_SHEAD_00000_arg_sDst+D'1', W, 1
03B0  6EEA      	MOVWF FSR0H
03B2  51B2      	MOVF FCI_SHEAD_00000_arg_sDst, W, 1
03B4  25B5      	ADDWF FCI_SHEAD_00000_1_len, W, 1
03B6  6EE9      	MOVWF FSR0L
03B8  0E00      	MOVLW 0x00
03BA  6EEF      	MOVWF INDF0
03BC  0012      	RETURN
03BE            ; } FCI_SHEAD function end

	ORG 0x000003BE
03BE            FCD_0c851__00059
03BE            ; { FCD_0c851_Bluetooth2__SendCommand ; function begin
03BE  0100      	MOVLB 0x00
03C0  6BA8      	CLRF FCD_0c851__00059_1_FCL_IDX, 1
03C2            label43
03C2  ECC8F000  	CALL FCD_0c851__00073
03C6  51AE      	MOVF CompTempVarRet2723, W, 1
03C8  6FAA      	MOVWF FCD_0c851__00059_1_FCR_RETVAL, 1
03CA  53AA      	MOVF FCD_0c851__00059_1_FCR_RETVAL, F, 1
03CC  E1FA      	BNZ	label43
03CE  507B      	MOVF FCD_0c851__00059_arg_FCL_COMMAND, W
03D0  6FAB      	MOVWF FCI_GETLEN_0003E_arg_sStr1, 1
03D2  507C      	MOVF FCD_0c851__00059_arg_FCL_COMMAND+D'1', W
03D4  6FAC      	MOVWF FCI_GETLEN_0003E_arg_sStr1+D'1', 1
03D6  507D      	MOVF FCD_0c851__00059_arg_FCLsz_0005A, W
03D8  6FAD      	MOVWF FCI_GETLEN_0003E_arg_iStr1_len, 1
03DA  ECB8F000  	CALL FCI_GETLEN_0003E
03DE  51AF      	MOVF CompTempVarRet1850, W, 1
03E0  6FA9      	MOVWF FCD_0c851__00059_1_FCL_LEN, 1
03E2  53A9      	MOVF FCD_0c851__00059_1_FCL_LEN, F, 1
03E4  E017      	BZ	label46
03E6            label44
03E6  51A9      	MOVF FCD_0c851__00059_1_FCL_LEN, W, 1
03E8  61A8      	CPFSLT FCD_0c851__00059_1_FCL_IDX, 1
03EA  D00D      	BRA	label45
03EC  507C      	MOVF FCD_0c851__00059_arg_FCL_COMMAND+D'1', W
03EE  6EEA      	MOVWF FSR0H
03F0  507B      	MOVF FCD_0c851__00059_arg_FCL_COMMAND, W
03F2  25A8      	ADDWF FCD_0c851__00059_1_FCL_IDX, W, 1
03F4  6EE9      	MOVWF FSR0L
03F6  50EF      	MOVF INDF0, W
03F8  6FAB      	MOVWF FC_CAL_UAR_0006D_arg_nChar, 1
03FA  6BAC      	CLRF FC_CAL_UAR_0006D_arg_nChar+D'1', 1
03FC  ECB0F000  	CALL FC_CAL_UAR_0006D
0400  29A8      	INCF FCD_0c851__00059_1_FCL_IDX, W, 1
0402  6FA8      	MOVWF FCD_0c851__00059_1_FCL_IDX, 1
0404  D7F0      	BRA	label44
0406            label45
0406  527F      	MOVF FCD_0c851__00059_arg_FCL_SENDCR, F
0408  E005      	BZ	label46
040A  0E0D      	MOVLW 0x0D
040C  6FAB      	MOVWF FC_CAL_UAR_0006D_arg_nChar, 1
040E  6BAC      	CLRF FC_CAL_UAR_0006D_arg_nChar+D'1', 1
0410  ECB0F000  	CALL FC_CAL_UAR_0006D
0414            label46
0414  ECC8F000  	CALL FCD_0c851__00073
0418  ECC8F000  	CALL FCD_0c851__00073
041C  51AE      	MOVF CompTempVarRet2723, W, 1
041E  6FAA      	MOVWF FCD_0c851__00059_1_FCR_RETVAL, 1
0420  53AA      	MOVF FCD_0c851__00059_1_FCR_RETVAL, F, 1
0422  E102      	BNZ	label47
0424  69AA      	SETF FCD_0c851__00059_1_FCR_RETVAL, 1
0426  D001      	BRA	label48
0428            label47
0428  6BAA      	CLRF FCD_0c851__00059_1_FCR_RETVAL, 1
042A            label48
042A  51AA      	MOVF FCD_0c851__00059_1_FCR_RETVAL, W, 1
042C  6FAB      	MOVWF CompTempVarRet2679, 1
042E  0012      	RETURN
0430            ; } FCD_0c851_Bluetooth2__SendCommand function end

	ORG 0x00000430
0430            FCD_04071__0005C
0430            ; { FCD_04071_LCD__RawSend ; function begin
0430  6A79      	CLRF FCD_04071__0005C_2_ptmp
0432  9092      	BCF gbl_trisa,0
0434  5279      	MOVF FCD_04071__0005C_2_ptmp, F
0436  E004      	BZ	label49
0438  0E01      	MOVLW 0x01
043A  1089      	IORWF gbl_lata, W
043C  6E80      	MOVWF gbl_porta
043E  D003      	BRA	label50
0440            label49
0440  0EFE      	MOVLW 0xFE
0442  1489      	ANDWF gbl_lata, W
0444  6E80      	MOVWF gbl_porta
0446            label50
0446  6A79      	CLRF FCD_04071__0005C_9_ptmp
0448  9292      	BCF gbl_trisa,1
044A  5279      	MOVF FCD_04071__0005C_9_ptmp, F
044C  E004      	BZ	label51
044E  0E02      	MOVLW 0x02
0450  1089      	IORWF gbl_lata, W
0452  6E80      	MOVWF gbl_porta
0454  D003      	BRA	label52
0456            label51
0456  0EFD      	MOVLW 0xFD
0458  1489      	ANDWF gbl_lata, W
045A  6E80      	MOVWF gbl_porta
045C            label52
045C  6A79      	CLRF FCD_04071__0005C_16_ptmp
045E  9492      	BCF gbl_trisa,2
0460  5279      	MOVF FCD_04071__0005C_16_ptmp, F
0462  E004      	BZ	label53
0464  0E04      	MOVLW 0x04
0466  1089      	IORWF gbl_lata, W
0468  6E80      	MOVWF gbl_porta
046A  D003      	BRA	label54
046C            label53
046C  0EFB      	MOVLW 0xFB
046E  1489      	ANDWF gbl_lata, W
0470  6E80      	MOVWF gbl_porta
0472            label54
0472  6A79      	CLRF FCD_04071__0005C_23_ptmp
0474  9692      	BCF gbl_trisa,3
0476  5279      	MOVF FCD_04071__0005C_23_ptmp, F
0478  E004      	BZ	label55
047A  0E08      	MOVLW 0x08
047C  1089      	IORWF gbl_lata, W
047E  6E80      	MOVWF gbl_porta
0480  D003      	BRA	label56
0482            label55
0482  0EF7      	MOVLW 0xF7
0484  1489      	ANDWF gbl_lata, W
0486  6E80      	MOVWF gbl_porta
0488            label56
0488  6A79      	CLRF FCD_04071__0005C_30_ptmp
048A  9892      	BCF gbl_trisa,4
048C  5279      	MOVF FCD_04071__0005C_30_ptmp, F
048E  E004      	BZ	label57
0490  0E10      	MOVLW 0x10
0492  1089      	IORWF gbl_lata, W
0494  6E80      	MOVWF gbl_porta
0496  D003      	BRA	label58
0498            label57
0498  0EEF      	MOVLW 0xEF
049A  1489      	ANDWF gbl_lata, W
049C  6E80      	MOVWF gbl_porta
049E            label58
049E  6A79      	CLRF FCD_04071__0005C_37_ptmp
04A0  9A92      	BCF gbl_trisa,5
04A2  5279      	MOVF FCD_04071__0005C_37_ptmp, F
04A4  E004      	BZ	label59
04A6  0E20      	MOVLW 0x20
04A8  1089      	IORWF gbl_lata, W
04AA  6E80      	MOVWF gbl_porta
04AC  D003      	BRA	label60
04AE            label59
04AE  0EDF      	MOVLW 0xDF
04B0  1489      	ANDWF gbl_lata, W
04B2  6E80      	MOVWF gbl_porta
04B4            label60
04B4  3876      	SWAPF FCD_04071__0005C_arg_FCL_DATA, W
04B6  0B0F      	ANDLW 0x0F
04B8  6E78      	MOVWF FCD_04071__0005C_1_FCL_NIBBLE
04BA  0E01      	MOVLW 0x01
04BC  1478      	ANDWF FCD_04071__0005C_1_FCL_NIBBLE, W
04BE  6E79      	MOVWF FCD_04071__0005C_46_ptmp
04C0  9092      	BCF gbl_trisa,0
04C2  5279      	MOVF FCD_04071__0005C_46_ptmp, F
04C4  E004      	BZ	label61
04C6  0E01      	MOVLW 0x01
04C8  1089      	IORWF gbl_lata, W
04CA  6E80      	MOVWF gbl_porta
04CC  D003      	BRA	label62
04CE            label61
04CE  0EFE      	MOVLW 0xFE
04D0  1489      	ANDWF gbl_lata, W
04D2  6E80      	MOVWF gbl_porta
04D4            label62
04D4  5278      	MOVF FCD_04071__0005C_1_FCL_NIBBLE, F
04D6  90D8      	BCF STATUS,C
04D8  3278      	RRCF FCD_04071__0005C_1_FCL_NIBBLE, F
04DA  0E01      	MOVLW 0x01
04DC  1478      	ANDWF FCD_04071__0005C_1_FCL_NIBBLE, W
04DE  6E79      	MOVWF FCD_04071__0005C_55_ptmp
04E0  9292      	BCF gbl_trisa,1
04E2  5279      	MOVF FCD_04071__0005C_55_ptmp, F
04E4  E004      	BZ	label63
04E6  0E02      	MOVLW 0x02
04E8  1089      	IORWF gbl_lata, W
04EA  6E80      	MOVWF gbl_porta
04EC  D003      	BRA	label64
04EE            label63
04EE  0EFD      	MOVLW 0xFD
04F0  1489      	ANDWF gbl_lata, W
04F2  6E80      	MOVWF gbl_porta
04F4            label64
04F4  5278      	MOVF FCD_04071__0005C_1_FCL_NIBBLE, F
04F6  90D8      	BCF STATUS,C
04F8  3278      	RRCF FCD_04071__0005C_1_FCL_NIBBLE, F
04FA  0E01      	MOVLW 0x01
04FC  1478      	ANDWF FCD_04071__0005C_1_FCL_NIBBLE, W
04FE  6E79      	MOVWF FCD_04071__0005C_64_ptmp
0500  9492      	BCF gbl_trisa,2
0502  5279      	MOVF FCD_04071__0005C_64_ptmp, F
0504  E004      	BZ	label65
0506  0E04      	MOVLW 0x04
0508  1089      	IORWF gbl_lata, W
050A  6E80      	MOVWF gbl_porta
050C  D003      	BRA	label66
050E            label65
050E  0EFB      	MOVLW 0xFB
0510  1489      	ANDWF gbl_lata, W
0512  6E80      	MOVWF gbl_porta
0514            label66
0514  5278      	MOVF FCD_04071__0005C_1_FCL_NIBBLE, F
0516  90D8      	BCF STATUS,C
0518  3278      	RRCF FCD_04071__0005C_1_FCL_NIBBLE, F
051A  0E01      	MOVLW 0x01
051C  1478      	ANDWF FCD_04071__0005C_1_FCL_NIBBLE, W
051E  6E79      	MOVWF FCD_04071__0005C_73_ptmp
0520  9692      	BCF gbl_trisa,3
0522  5279      	MOVF FCD_04071__0005C_73_ptmp, F
0524  E004      	BZ	label67
0526  0E08      	MOVLW 0x08
0528  1089      	IORWF gbl_lata, W
052A  6E80      	MOVWF gbl_porta
052C  D003      	BRA	label68
052E            label67
052E  0EF7      	MOVLW 0xF7
0530  1489      	ANDWF gbl_lata, W
0532  6E80      	MOVWF gbl_porta
0534            label68
0534  A077      	BTFSS FCD_04071__0005C_arg_FCL_TYPE,0
0536  D00C      	BRA	label70
0538  0E01      	MOVLW 0x01
053A  6E79      	MOVWF FCD_04071__0005C_82_ptmp
053C  9892      	BCF gbl_trisa,4
053E  5279      	MOVF FCD_04071__0005C_82_ptmp, F
0540  E004      	BZ	label69
0542  0E10      	MOVLW 0x10
0544  1089      	IORWF gbl_lata, W
0546  6E80      	MOVWF gbl_porta
0548  D003      	BRA	label70
054A            label69
054A  0EEF      	MOVLW 0xEF
054C  1489      	ANDWF gbl_lata, W
054E  6E80      	MOVWF gbl_porta
0550            label70
0550  0E64      	MOVLW 0x64
0552  0100      	MOVLB 0x00
0554  6FB0      	MOVWF delay_us_00000_arg_del, 1
0556  EC06F000  	CALL delay_us_00000
055A  0E01      	MOVLW 0x01
055C  6E79      	MOVWF FCD_04071__0005C_93_ptmp
055E  9A92      	BCF gbl_trisa,5
0560  5279      	MOVF FCD_04071__0005C_93_ptmp, F
0562  E004      	BZ	label71
0564  0E20      	MOVLW 0x20
0566  1089      	IORWF gbl_lata, W
0568  6E80      	MOVWF gbl_porta
056A  D003      	BRA	label72
056C            label71
056C  0EDF      	MOVLW 0xDF
056E  1489      	ANDWF gbl_lata, W
0570  6E80      	MOVWF gbl_porta
0572            label72
0572  0E64      	MOVLW 0x64
0574  6FB0      	MOVWF delay_us_00000_arg_del, 1
0576  EC06F000  	CALL delay_us_00000
057A  6A79      	CLRF FCD_04071__0005C_104_ptmp
057C  9A92      	BCF gbl_trisa,5
057E  5279      	MOVF FCD_04071__0005C_104_ptmp, F
0580  E004      	BZ	label73
0582  0E20      	MOVLW 0x20
0584  1089      	IORWF gbl_lata, W
0586  6E80      	MOVWF gbl_porta
0588  D003      	BRA	label74
058A            label73
058A  0EDF      	MOVLW 0xDF
058C  1489      	ANDWF gbl_lata, W
058E  6E80      	MOVWF gbl_porta
0590            label74
0590  0E64      	MOVLW 0x64
0592  6FB0      	MOVWF delay_us_00000_arg_del, 1
0594  EC06F000  	CALL delay_us_00000
0598  6A79      	CLRF FCD_04071__0005C_115_ptmp
059A  9092      	BCF gbl_trisa,0
059C  5279      	MOVF FCD_04071__0005C_115_ptmp, F
059E  E004      	BZ	label75
05A0  0E01      	MOVLW 0x01
05A2  1089      	IORWF gbl_lata, W
05A4  6E80      	MOVWF gbl_porta
05A6  D003      	BRA	label76
05A8            label75
05A8  0EFE      	MOVLW 0xFE
05AA  1489      	ANDWF gbl_lata, W
05AC  6E80      	MOVWF gbl_porta
05AE            label76
05AE  6A79      	CLRF FCD_04071__0005C_122_ptmp
05B0  9292      	BCF gbl_trisa,1
05B2  5279      	MOVF FCD_04071__0005C_122_ptmp, F
05B4  E004      	BZ	label77
05B6  0E02      	MOVLW 0x02
05B8  1089      	IORWF gbl_lata, W
05BA  6E80      	MOVWF gbl_porta
05BC  D003      	BRA	label78
05BE            label77
05BE  0EFD      	MOVLW 0xFD
05C0  1489      	ANDWF gbl_lata, W
05C2  6E80      	MOVWF gbl_porta
05C4            label78
05C4  6A79      	CLRF FCD_04071__0005C_129_ptmp
05C6  9492      	BCF gbl_trisa,2
05C8  5279      	MOVF FCD_04071__0005C_129_ptmp, F
05CA  E004      	BZ	label79
05CC  0E04      	MOVLW 0x04
05CE  1089      	IORWF gbl_lata, W
05D0  6E80      	MOVWF gbl_porta
05D2  D003      	BRA	label80
05D4            label79
05D4  0EFB      	MOVLW 0xFB
05D6  1489      	ANDWF gbl_lata, W
05D8  6E80      	MOVWF gbl_porta
05DA            label80
05DA  6A79      	CLRF FCD_04071__0005C_136_ptmp
05DC  9692      	BCF gbl_trisa,3
05DE  5279      	MOVF FCD_04071__0005C_136_ptmp, F
05E0  E004      	BZ	label81
05E2  0E08      	MOVLW 0x08
05E4  1089      	IORWF gbl_lata, W
05E6  6E80      	MOVWF gbl_porta
05E8  D003      	BRA	label82
05EA            label81
05EA  0EF7      	MOVLW 0xF7
05EC  1489      	ANDWF gbl_lata, W
05EE  6E80      	MOVWF gbl_porta
05F0            label82
05F0  6A79      	CLRF FCD_04071__0005C_143_ptmp
05F2  9892      	BCF gbl_trisa,4
05F4  5279      	MOVF FCD_04071__0005C_143_ptmp, F
05F6  E004      	BZ	label83
05F8  0E10      	MOVLW 0x10
05FA  1089      	IORWF gbl_lata, W
05FC  6E80      	MOVWF gbl_porta
05FE  D003      	BRA	label84
0600            label83
0600  0EEF      	MOVLW 0xEF
0602  1489      	ANDWF gbl_lata, W
0604  6E80      	MOVWF gbl_porta
0606            label84
0606  0E0F      	MOVLW 0x0F
0608  1476      	ANDWF FCD_04071__0005C_arg_FCL_DATA, W
060A  6E79      	MOVWF CompTempVar2691
060C  5079      	MOVF CompTempVar2691, W
060E  6E78      	MOVWF FCD_04071__0005C_1_FCL_NIBBLE
0610  0E01      	MOVLW 0x01
0612  1478      	ANDWF FCD_04071__0005C_1_FCL_NIBBLE, W
0614  6E79      	MOVWF FCD_04071__0005C_152_ptmp
0616  9092      	BCF gbl_trisa,0
0618  5279      	MOVF FCD_04071__0005C_152_ptmp, F
061A  E004      	BZ	label85
061C  0E01      	MOVLW 0x01
061E  1089      	IORWF gbl_lata, W
0620  6E80      	MOVWF gbl_porta
0622  D003      	BRA	label86
0624            label85
0624  0EFE      	MOVLW 0xFE
0626  1489      	ANDWF gbl_lata, W
0628  6E80      	MOVWF gbl_porta
062A            label86
062A  5278      	MOVF FCD_04071__0005C_1_FCL_NIBBLE, F
062C  90D8      	BCF STATUS,C
062E  3278      	RRCF FCD_04071__0005C_1_FCL_NIBBLE, F
0630  0E01      	MOVLW 0x01
0632  1478      	ANDWF FCD_04071__0005C_1_FCL_NIBBLE, W
0634  6E79      	MOVWF FCD_04071__0005C_161_ptmp
0636  9292      	BCF gbl_trisa,1
0638  5279      	MOVF FCD_04071__0005C_161_ptmp, F
063A  E004      	BZ	label87
063C  0E02      	MOVLW 0x02
063E  1089      	IORWF gbl_lata, W
0640  6E80      	MOVWF gbl_porta
0642  D003      	BRA	label88
0644            label87
0644  0EFD      	MOVLW 0xFD
0646  1489      	ANDWF gbl_lata, W
0648  6E80      	MOVWF gbl_porta
064A            label88
064A  5278      	MOVF FCD_04071__0005C_1_FCL_NIBBLE, F
064C  90D8      	BCF STATUS,C
064E  3278      	RRCF FCD_04071__0005C_1_FCL_NIBBLE, F
0650  0E01      	MOVLW 0x01
0652  1478      	ANDWF FCD_04071__0005C_1_FCL_NIBBLE, W
0654  6E79      	MOVWF FCD_04071__0005C_170_ptmp
0656  9492      	BCF gbl_trisa,2
0658  5279      	MOVF FCD_04071__0005C_170_ptmp, F
065A  E004      	BZ	label89
065C  0E04      	MOVLW 0x04
065E  1089      	IORWF gbl_lata, W
0660  6E80      	MOVWF gbl_porta
0662  D003      	BRA	label90
0664            label89
0664  0EFB      	MOVLW 0xFB
0666  1489      	ANDWF gbl_lata, W
0668  6E80      	MOVWF gbl_porta
066A            label90
066A  5278      	MOVF FCD_04071__0005C_1_FCL_NIBBLE, F
066C  90D8      	BCF STATUS,C
066E  3278      	RRCF FCD_04071__0005C_1_FCL_NIBBLE, F
0670  0E01      	MOVLW 0x01
0672  1478      	ANDWF FCD_04071__0005C_1_FCL_NIBBLE, W
0674  6E79      	MOVWF FCD_04071__0005C_179_ptmp
0676  9692      	BCF gbl_trisa,3
0678  5279      	MOVF FCD_04071__0005C_179_ptmp, F
067A  E004      	BZ	label91
067C  0E08      	MOVLW 0x08
067E  1089      	IORWF gbl_lata, W
0680  6E80      	MOVWF gbl_porta
0682  D003      	BRA	label92
0684            label91
0684  0EF7      	MOVLW 0xF7
0686  1489      	ANDWF gbl_lata, W
0688  6E80      	MOVWF gbl_porta
068A            label92
068A  A077      	BTFSS FCD_04071__0005C_arg_FCL_TYPE,0
068C  D00C      	BRA	label94
068E  0E01      	MOVLW 0x01
0690  6E79      	MOVWF FCD_04071__0005C_188_ptmp
0692  9892      	BCF gbl_trisa,4
0694  5279      	MOVF FCD_04071__0005C_188_ptmp, F
0696  E004      	BZ	label93
0698  0E10      	MOVLW 0x10
069A  1089      	IORWF gbl_lata, W
069C  6E80      	MOVWF gbl_porta
069E  D003      	BRA	label94
06A0            label93
06A0  0EEF      	MOVLW 0xEF
06A2  1489      	ANDWF gbl_lata, W
06A4  6E80      	MOVWF gbl_porta
06A6            label94
06A6  0E64      	MOVLW 0x64
06A8  6FB0      	MOVWF delay_us_00000_arg_del, 1
06AA  EC06F000  	CALL delay_us_00000
06AE  0E01      	MOVLW 0x01
06B0  6E79      	MOVWF FCD_04071__0005C_199_ptmp
06B2  9A92      	BCF gbl_trisa,5
06B4  5279      	MOVF FCD_04071__0005C_199_ptmp, F
06B6  E004      	BZ	label95
06B8  0E20      	MOVLW 0x20
06BA  1089      	IORWF gbl_lata, W
06BC  6E80      	MOVWF gbl_porta
06BE  D003      	BRA	label96
06C0            label95
06C0  0EDF      	MOVLW 0xDF
06C2  1489      	ANDWF gbl_lata, W
06C4  6E80      	MOVWF gbl_porta
06C6            label96
06C6  0E64      	MOVLW 0x64
06C8  6FB0      	MOVWF delay_us_00000_arg_del, 1
06CA  EC06F000  	CALL delay_us_00000
06CE  6A79      	CLRF FCD_04071__0005C_210_ptmp
06D0  9A92      	BCF gbl_trisa,5
06D2  5279      	MOVF FCD_04071__0005C_210_ptmp, F
06D4  E004      	BZ	label97
06D6  0E20      	MOVLW 0x20
06D8  1089      	IORWF gbl_lata, W
06DA  6E80      	MOVWF gbl_porta
06DC  D003      	BRA	label98
06DE            label97
06DE  0EDF      	MOVLW 0xDF
06E0  1489      	ANDWF gbl_lata, W
06E2  6E80      	MOVWF gbl_porta
06E4            label98
06E4  0E64      	MOVLW 0x64
06E6  6FB0      	MOVWF delay_us_00000_arg_del, 1
06E8  EC06F000  	CALL delay_us_00000
06EC  0012      	RETURN
06EE            ; } FCD_04071_LCD__RawSend function end

	ORG 0x000006EE
06EE            FC_CAL_UAR_0006E
06EE            ; { FC_CAL_UART_Init_1 ; function begin
06EE  84AC      	BSF gbl_txsta,2
06F0  0E7F      	MOVLW 0x7F
06F2  6EAF      	MOVWF gbl_spbrg
06F4  6AAB      	CLRF gbl_rcsta
06F6  8EAB      	BSF gbl_rcsta,7
06F8  8AAC      	BSF gbl_txsta,5
06FA  88AB      	BSF gbl_rcsta,4
06FC  8A9D      	BSF gbl_pie1,5
06FE  8CF2      	BSF gbl_intcon,6
0700  8EF2      	BSF gbl_intcon,7
0702  0012      	RETURN
0704            ; } FC_CAL_UART_Init_1 function end

	ORG 0x00000704
0704            FCI_SCOPY_00000
0704            ; { FCI_SCOPY ; function begin
0704  6A7C      	CLRF FCI_SCOPY_00000_1_len
0706            label99
0706  5078      	MOVF FCI_SCOPY_00000_arg_iSrc_len, W
0708  607C      	CPFSLT FCI_SCOPY_00000_1_len
070A  D01D      	BRA	label100
070C  507B      	MOVF FCI_SCOPY_00000_arg_iDst_len, W
070E  607C      	CPFSLT FCI_SCOPY_00000_1_len
0710  D01A      	BRA	label100
0712  5076      	MOVF FCI_SCOPY_00000_arg_sSrc+D'1', W
0714  6EEA      	MOVWF FSR0H
0716  5075      	MOVF FCI_SCOPY_00000_arg_sSrc, W
0718  247C      	ADDWF FCI_SCOPY_00000_1_len, W
071A  6EE9      	MOVWF FSR0L
071C  52EF      	MOVF INDF0, F
071E  E013      	BZ	label100
0720  5076      	MOVF FCI_SCOPY_00000_arg_sSrc+D'1', W
0722  6EEA      	MOVWF FSR0H
0724  5075      	MOVF FCI_SCOPY_00000_arg_sSrc, W
0726  6EE9      	MOVWF FSR0L
0728  507C      	MOVF FCI_SCOPY_00000_1_len, W
072A  6E7D      	MOVWF CompTempVar2071
072C  507D      	MOVF CompTempVar2071, W
072E  26E9      	ADDWF FSR0L, F
0730  50EF      	MOVF INDF0, W
0732  6E7E      	MOVWF CompTempVar2072
0734  507A      	MOVF FCI_SCOPY_00000_arg_sDst+D'1', W
0736  6EEA      	MOVWF FSR0H
0738  5079      	MOVF FCI_SCOPY_00000_arg_sDst, W
073A  247C      	ADDWF FCI_SCOPY_00000_1_len, W
073C  6EE9      	MOVWF FSR0L
073E  507E      	MOVF CompTempVar2072, W
0740  6EEF      	MOVWF INDF0
0742  2A7C      	INCF FCI_SCOPY_00000_1_len, F
0744  D7E0      	BRA	label99
0746            label100
0746  507B      	MOVF FCI_SCOPY_00000_arg_iDst_len, W
0748  607C      	CPFSLT FCI_SCOPY_00000_1_len
074A  0012      	RETURN
074C  507A      	MOVF FCI_SCOPY_00000_arg_sDst+D'1', W
074E  6EEA      	MOVWF FSR0H
0750  5079      	MOVF FCI_SCOPY_00000_arg_sDst, W
0752  247C      	ADDWF FCI_SCOPY_00000_1_len, W
0754  6EE9      	MOVWF FSR0L
0756  0E00      	MOVLW 0x00
0758  6EEF      	MOVWF INDF0
075A  0012      	RETURN
075C            ; } FCI_SCOPY function end

	ORG 0x0000075C
075C            FCD_0c851__00079
075C            ; { FCD_0c851_Bluetooth2__RestoreFactorySettings ; function begin
075C  0E41      	MOVLW 0x41
075E  6E72      	MOVWF CompTempVar2739
0760  0E54      	MOVLW 0x54
0762  6E73      	MOVWF CompTempVar2739+D'1'
0764  0E26      	MOVLW 0x26
0766  6E74      	MOVWF CompTempVar2739+D'2'
0768  0E46      	MOVLW 0x46
076A  6E75      	MOVWF CompTempVar2739+D'3'
076C  0E2A      	MOVLW 0x2A
076E  6E76      	MOVWF CompTempVar2739+D'4'
0770  6A77      	CLRF CompTempVar2739+D'5'
0772  0E00      	MOVLW HIGH(CompTempVar2739+D'0')
0774  6E7C      	MOVWF FCD_0c851__00059_arg_FCL_COMMAND+D'1'
0776  0E72      	MOVLW LOW(CompTempVar2739+D'0')
0778  6E7B      	MOVWF FCD_0c851__00059_arg_FCL_COMMAND
077A  0E06      	MOVLW 0x06
077C  6E7D      	MOVWF FCD_0c851__00059_arg_FCLsz_0005A
077E  6A7E      	CLRF FCD_0c851__00059_arg_FCLsz_0005A+D'1'
0780  0E01      	MOVLW 0x01
0782  6E7F      	MOVWF FCD_0c851__00059_arg_FCL_SENDCR
0784  ECDFF001  	CALL FCD_0c851__00059
0788  51AB      	MOVF CompTempVarRet2679, W, 1
078A  6E71      	MOVWF FCD_0c851__00079_1_FCR_RETVAL
078C  5071      	MOVF FCD_0c851__00079_1_FCR_RETVAL, W
078E  6E72      	MOVWF CompTempVarRet2738
0790  0012      	RETURN
0792            ; } FCD_0c851_Bluetooth2__RestoreFactorySettings function end

	ORG 0x00000792
0792            FCD_0c851__00076
0792            ; { FCD_0c851_Bluetooth2__SetMode ; function begin
0792  5271      	MOVF FCD_0c851__00076_arg_FCL_D_00077, F
0794  E041      	BZ	label102
0796  5272      	MOVF FCD_0c851__00076_arg_FCL_C_00078, F
0798  E020      	BZ	label101
079A  0E41      	MOVLW 0x41
079C  0100      	MOVLB 0x00
079E  6F94      	MOVWF CompTempVar2730, 1
07A0  0E54      	MOVLW 0x54
07A2  6F95      	MOVWF CompTempVar2730+D'1', 1
07A4  0E53      	MOVLW 0x53
07A6  6F96      	MOVWF CompTempVar2730+D'2', 1
07A8  0E35      	MOVLW 0x35
07AA  6F97      	MOVWF CompTempVar2730+D'3', 1
07AC  0E31      	MOVLW 0x31
07AE  6F98      	MOVWF CompTempVar2730+D'4', 1
07B0  0E32      	MOVLW 0x32
07B2  6F99      	MOVWF CompTempVar2730+D'5', 1
07B4  0E3D      	MOVLW 0x3D
07B6  6F9A      	MOVWF CompTempVar2730+D'6', 1
07B8  0E34      	MOVLW 0x34
07BA  6F9B      	MOVWF CompTempVar2730+D'7', 1
07BC  6B9C      	CLRF CompTempVar2730+D'8', 1
07BE  0E00      	MOVLW HIGH(CompTempVar2730+D'0')
07C0  6E7C      	MOVWF FCD_0c851__00059_arg_FCL_COMMAND+D'1'
07C2  0E94      	MOVLW LOW(CompTempVar2730+D'0')
07C4  6E7B      	MOVWF FCD_0c851__00059_arg_FCL_COMMAND
07C6  0E09      	MOVLW 0x09
07C8  6E7D      	MOVWF FCD_0c851__00059_arg_FCLsz_0005A
07CA  6A7E      	CLRF FCD_0c851__00059_arg_FCLsz_0005A+D'1'
07CC  0E01      	MOVLW 0x01
07CE  6E7F      	MOVWF FCD_0c851__00059_arg_FCL_SENDCR
07D0  ECDFF001  	CALL FCD_0c851__00059
07D4  51AB      	MOVF CompTempVarRet2679, W, 1
07D6  6E73      	MOVWF FCD_0c851__00076_1_FCR_RETVAL
07D8  D05F      	BRA	label104
07DA            label101
07DA  0E31      	MOVLW 0x31
07DC  0100      	MOVLB 0x00
07DE  6F98      	MOVWF CompTempVar2732+D'4', 1
07E0  0E32      	MOVLW 0x32
07E2  6F99      	MOVWF CompTempVar2732+D'5', 1
07E4  6F9B      	MOVWF CompTempVar2732+D'7', 1
07E6  0E35      	MOVLW 0x35
07E8  6F97      	MOVWF CompTempVar2732+D'3', 1
07EA  0E3D      	MOVLW 0x3D
07EC  6F9A      	MOVWF CompTempVar2732+D'6', 1
07EE  0E41      	MOVLW 0x41
07F0  6F94      	MOVWF CompTempVar2732, 1
07F2  0E53      	MOVLW 0x53
07F4  6F96      	MOVWF CompTempVar2732+D'2', 1
07F6  0E54      	MOVLW 0x54
07F8  6F95      	MOVWF CompTempVar2732+D'1', 1
07FA  6B9C      	CLRF CompTempVar2732+D'8', 1
07FC  0E00      	MOVLW HIGH(CompTempVar2732+D'0')
07FE  6E7C      	MOVWF FCD_0c851__00059_arg_FCL_COMMAND+D'1'
0800  0E94      	MOVLW LOW(CompTempVar2732+D'0')
0802  6E7B      	MOVWF FCD_0c851__00059_arg_FCL_COMMAND
0804  0E09      	MOVLW 0x09
0806  6E7D      	MOVWF FCD_0c851__00059_arg_FCLsz_0005A
0808  6A7E      	CLRF FCD_0c851__00059_arg_FCLsz_0005A+D'1'
080A  0E01      	MOVLW 0x01
080C  6E7F      	MOVWF FCD_0c851__00059_arg_FCL_SENDCR
080E  ECDFF001  	CALL FCD_0c851__00059
0812  51AB      	MOVF CompTempVarRet2679, W, 1
0814  6E73      	MOVWF FCD_0c851__00076_1_FCR_RETVAL
0816  D040      	BRA	label104
0818            label102
0818  5272      	MOVF FCD_0c851__00076_arg_FCL_C_00078, F
081A  E01F      	BZ	label103
081C  0E31      	MOVLW 0x31
081E  0100      	MOVLB 0x00
0820  6F98      	MOVWF CompTempVar2734+D'4', 1
0822  0E32      	MOVLW 0x32
0824  6F99      	MOVWF CompTempVar2734+D'5', 1
0826  6F9B      	MOVWF CompTempVar2734+D'7', 1
0828  0E35      	MOVLW 0x35
082A  6F97      	MOVWF CompTempVar2734+D'3', 1
082C  0E3D      	MOVLW 0x3D
082E  6F9A      	MOVWF CompTempVar2734+D'6', 1
0830  0E41      	MOVLW 0x41
0832  6F94      	MOVWF CompTempVar2734, 1
0834  0E53      	MOVLW 0x53
0836  6F96      	MOVWF CompTempVar2734+D'2', 1
0838  0E54      	MOVLW 0x54
083A  6F95      	MOVWF CompTempVar2734+D'1', 1
083C  6B9C      	CLRF CompTempVar2734+D'8', 1
083E  0E00      	MOVLW HIGH(CompTempVar2734+D'0')
0840  6E7C      	MOVWF FCD_0c851__00059_arg_FCL_COMMAND+D'1'
0842  0E94      	MOVLW LOW(CompTempVar2734+D'0')
0844  6E7B      	MOVWF FCD_0c851__00059_arg_FCL_COMMAND
0846  0E09      	MOVLW 0x09
0848  6E7D      	MOVWF FCD_0c851__00059_arg_FCLsz_0005A
084A  6A7E      	CLRF FCD_0c851__00059_arg_FCLsz_0005A+D'1'
084C  0E03      	MOVLW 0x03
084E  6E7F      	MOVWF FCD_0c851__00059_arg_FCL_SENDCR
0850  ECDFF001  	CALL FCD_0c851__00059
0854  51AB      	MOVF CompTempVarRet2679, W, 1
0856  6E73      	MOVWF FCD_0c851__00076_1_FCR_RETVAL
0858  D01F      	BRA	label104
085A            label103
085A  0E41      	MOVLW 0x41
085C  0100      	MOVLB 0x00
085E  6F94      	MOVWF CompTempVar2736, 1
0860  0E54      	MOVLW 0x54
0862  6F95      	MOVWF CompTempVar2736+D'1', 1
0864  0E53      	MOVLW 0x53
0866  6F96      	MOVWF CompTempVar2736+D'2', 1
0868  0E35      	MOVLW 0x35
086A  6F97      	MOVWF CompTempVar2736+D'3', 1
086C  0E31      	MOVLW 0x31
086E  6F98      	MOVWF CompTempVar2736+D'4', 1
0870  0E32      	MOVLW 0x32
0872  6F99      	MOVWF CompTempVar2736+D'5', 1
0874  0E3D      	MOVLW 0x3D
0876  6F9A      	MOVWF CompTempVar2736+D'6', 1
0878  0E30      	MOVLW 0x30
087A  6F9B      	MOVWF CompTempVar2736+D'7', 1
087C  6B9C      	CLRF CompTempVar2736+D'8', 1
087E  0E00      	MOVLW HIGH(CompTempVar2736+D'0')
0880  6E7C      	MOVWF FCD_0c851__00059_arg_FCL_COMMAND+D'1'
0882  0E94      	MOVLW LOW(CompTempVar2736+D'0')
0884  6E7B      	MOVWF FCD_0c851__00059_arg_FCL_COMMAND
0886  0E09      	MOVLW 0x09
0888  6E7D      	MOVWF FCD_0c851__00059_arg_FCLsz_0005A
088A  6A7E      	CLRF FCD_0c851__00059_arg_FCLsz_0005A+D'1'
088C  0E01      	MOVLW 0x01
088E  6E7F      	MOVWF FCD_0c851__00059_arg_FCL_SENDCR
0890  ECDFF001  	CALL FCD_0c851__00059
0894  51AB      	MOVF CompTempVarRet2679, W, 1
0896  6E73      	MOVWF FCD_0c851__00076_1_FCR_RETVAL
0898            label104
0898  5073      	MOVF FCD_0c851__00076_1_FCR_RETVAL, W
089A  6E74      	MOVWF CompTempVarRet2729
089C  0012      	RETURN
089E            ; } FCD_0c851_Bluetooth2__SetMode function end

	ORG 0x0000089E
089E            FCD_0c851__00074
089E            ; { FCD_0c851_Bluetooth2__SaveSettings ; function begin
089E  0E41      	MOVLW 0x41
08A0  6E72      	MOVWF CompTempVar2725
08A2  0E54      	MOVLW 0x54
08A4  6E73      	MOVWF CompTempVar2725+D'1'
08A6  0E26      	MOVLW 0x26
08A8  6E74      	MOVWF CompTempVar2725+D'2'
08AA  0E57      	MOVLW 0x57
08AC  6E75      	MOVWF CompTempVar2725+D'3'
08AE  6A76      	CLRF CompTempVar2725+D'4'
08B0  0E00      	MOVLW HIGH(CompTempVar2725+D'0')
08B2  6E7C      	MOVWF FCD_0c851__00059_arg_FCL_COMMAND+D'1'
08B4  0E72      	MOVLW LOW(CompTempVar2725+D'0')
08B6  6E7B      	MOVWF FCD_0c851__00059_arg_FCL_COMMAND
08B8  0E05      	MOVLW 0x05
08BA  6E7D      	MOVWF FCD_0c851__00059_arg_FCLsz_0005A
08BC  6A7E      	CLRF FCD_0c851__00059_arg_FCLsz_0005A+D'1'
08BE  0E01      	MOVLW 0x01
08C0  6E7F      	MOVWF FCD_0c851__00059_arg_FCL_SENDCR
08C2  ECDFF001  	CALL FCD_0c851__00059
08C6  51AB      	MOVF CompTempVarRet2679, W, 1
08C8  6E71      	MOVWF FCD_0c851__00074_1_FCR_RETVAL
08CA  5271      	MOVF FCD_0c851__00074_1_FCR_RETVAL, F
08CC  E114      	BNZ	label105
08CE  0E41      	MOVLW 0x41
08D0  6E72      	MOVWF CompTempVar2727
08D2  0E54      	MOVLW 0x54
08D4  6E73      	MOVWF CompTempVar2727+D'1'
08D6  0E5A      	MOVLW 0x5A
08D8  6E74      	MOVWF CompTempVar2727+D'2'
08DA  6A75      	CLRF CompTempVar2727+D'3'
08DC  0E00      	MOVLW HIGH(CompTempVar2727+D'0')
08DE  6E7C      	MOVWF FCD_0c851__00059_arg_FCL_COMMAND+D'1'
08E0  0E72      	MOVLW LOW(CompTempVar2727+D'0')
08E2  6E7B      	MOVWF FCD_0c851__00059_arg_FCL_COMMAND
08E4  0E04      	MOVLW 0x04
08E6  6E7D      	MOVWF FCD_0c851__00059_arg_FCLsz_0005A
08E8  6A7E      	CLRF FCD_0c851__00059_arg_FCLsz_0005A+D'1'
08EA  0E01      	MOVLW 0x01
08EC  6E7F      	MOVWF FCD_0c851__00059_arg_FCL_SENDCR
08EE  ECDFF001  	CALL FCD_0c851__00059
08F2  51AB      	MOVF CompTempVarRet2679, W, 1
08F4  6E71      	MOVWF FCD_0c851__00074_1_FCR_RETVAL
08F6            label105
08F6  5071      	MOVF FCD_0c851__00074_1_FCR_RETVAL, W
08F8  6E72      	MOVWF CompTempVarRet2724
08FA  0012      	RETURN
08FC            ; } FCD_0c851_Bluetooth2__SaveSettings function end

	ORG 0x000008FC
08FC            FCD_0c851__00070
08FC            ; { FCD_0c851_Bluetooth2__SetPairKey ; function begin
08FC  0E22      	MOVLW 0x22
08FE  0100      	MOVLB 0x00
0900  6FAF      	MOVWF CompTempVar2715+D'7', 1
0902  0E2B      	MOVLW 0x2B
0904  6FAA      	MOVWF CompTempVar2715+D'2', 1
0906  0E3D      	MOVLW 0x3D
0908  6FAE      	MOVWF CompTempVar2715+D'6', 1
090A  0E41      	MOVLW 0x41
090C  6FA8      	MOVWF CompTempVar2715, 1
090E  0E42      	MOVLW 0x42
0910  6FAB      	MOVWF CompTempVar2715+D'3', 1
0912  0E4B      	MOVLW 0x4B
0914  6FAD      	MOVWF CompTempVar2715+D'5', 1
0916  0E54      	MOVLW 0x54
0918  6FA9      	MOVWF CompTempVar2715+D'1', 1
091A  6FAC      	MOVWF CompTempVar2715+D'4', 1
091C  6BB0      	CLRF CompTempVar2715+D'8', 1
091E  0E00      	MOVLW HIGH(CompTempVar2715+D'0')
0920  6E7C      	MOVWF FCI_SHEAD_00000_arg_sSrc1+D'1'
0922  0EA8      	MOVLW LOW(CompTempVar2715+D'0')
0924  6E7B      	MOVWF FCI_SHEAD_00000_arg_sSrc1
0926  0E09      	MOVLW 0x09
0928  6E7D      	MOVWF FCI_SHEAD_00000_arg_iSrc1_len
092A  5071      	MOVF FCD_0c851__00070_arg_FCL_PAIRKEY, W
092C  6E7E      	MOVWF FCI_SHEAD_00000_arg_sSrc2
092E  5072      	MOVF FCD_0c851__00070_arg_FCL_PAIRKEY+D'1', W
0930  6E7F      	MOVWF FCI_SHEAD_00000_arg_sSrc2+D'1'
0932  5078      	MOVF FCD_0c851__00070_arg_FCLsz_00071, W
0934  6FB1      	MOVWF FCI_SHEAD_00000_arg_iSrc2_len, 1
0936  0E00      	MOVLW HIGH(FCD_0c851__00070_1_FCL_COM_00072+D'0')
0938  6FB3      	MOVWF FCI_SHEAD_00000_arg_sDst+D'1', 1
093A  0E94      	MOVLW LOW(FCD_0c851__00070_1_FCL_COM_00072+D'0')
093C  6FB2      	MOVWF FCI_SHEAD_00000_arg_sDst, 1
093E  0E14      	MOVLW 0x14
0940  6FB4      	MOVWF FCI_SHEAD_00000_arg_iDst_len, 1
0942  ECF0F000  	CALL FCI_SHEAD_00000
0946  0E00      	MOVLW HIGH(FCD_0c851__00070_1_FCL_COM_00072+D'0')
0948  6E7C      	MOVWF FCI_SHEAD_00000_arg_sSrc1+D'1'
094A  0E94      	MOVLW LOW(FCD_0c851__00070_1_FCL_COM_00072+D'0')
094C  6E7B      	MOVWF FCI_SHEAD_00000_arg_sSrc1
094E  0E14      	MOVLW 0x14
0950  6E7D      	MOVWF FCI_SHEAD_00000_arg_iSrc1_len
0952  0E22      	MOVLW 0x22
0954  6FA8      	MOVWF CompTempVar2718, 1
0956  6BA9      	CLRF CompTempVar2718+D'1', 1
0958  0E00      	MOVLW HIGH(CompTempVar2718+D'0')
095A  6E7F      	MOVWF FCI_SHEAD_00000_arg_sSrc2+D'1'
095C  0EA8      	MOVLW LOW(CompTempVar2718+D'0')
095E  6E7E      	MOVWF FCI_SHEAD_00000_arg_sSrc2
0960  0E02      	MOVLW 0x02
0962  6FB1      	MOVWF FCI_SHEAD_00000_arg_iSrc2_len, 1
0964  0E00      	MOVLW HIGH(FCD_0c851__00070_1_FCL_COM_00072+D'0')
0966  6FB3      	MOVWF FCI_SHEAD_00000_arg_sDst+D'1', 1
0968  0E94      	MOVLW LOW(FCD_0c851__00070_1_FCL_COM_00072+D'0')
096A  6FB2      	MOVWF FCI_SHEAD_00000_arg_sDst, 1
096C  0E14      	MOVLW 0x14
096E  6FB4      	MOVWF FCI_SHEAD_00000_arg_iDst_len, 1
0970  ECF0F000  	CALL FCI_SHEAD_00000
0974  0E00      	MOVLW HIGH(FCD_0c851__00070_1_FCL_COM_00072+D'0')
0976  6E7C      	MOVWF FCD_0c851__00059_arg_FCL_COMMAND+D'1'
0978  0E94      	MOVLW LOW(FCD_0c851__00070_1_FCL_COM_00072+D'0')
097A  6E7B      	MOVWF FCD_0c851__00059_arg_FCL_COMMAND
097C  0E14      	MOVLW 0x14
097E  6E7D      	MOVWF FCD_0c851__00059_arg_FCLsz_0005A
0980  6A7E      	CLRF FCD_0c851__00059_arg_FCLsz_0005A+D'1'
0982  0E01      	MOVLW 0x01
0984  6E7F      	MOVWF FCD_0c851__00059_arg_FCL_SENDCR
0986  ECDFF001  	CALL FCD_0c851__00059
098A  51AB      	MOVF CompTempVarRet2679, W, 1
098C  6E7A      	MOVWF FCD_0c851__00070_1_FCR_RETVAL
098E  507A      	MOVF FCD_0c851__00070_1_FCR_RETVAL, W
0990  6E7B      	MOVWF CompTempVarRet2714
0992  0012      	RETURN
0994            ; } FCD_0c851_Bluetooth2__SetPairKey function end

	ORG 0x00000994
0994            FCD_04071__00054
0994            ; { FCD_04071_LCD__Clear ; function begin
0994  0E01      	MOVLW 0x01
0996  6E76      	MOVWF FCD_04071__0005C_arg_FCL_DATA
0998  9077      	BCF FCD_04071__0005C_arg_FCL_TYPE,0
099A  EC18F002  	CALL FCD_04071__0005C
099E  0E02      	MOVLW 0x02
09A0  6E73      	MOVWF delay_ms_00000_arg_del
09A2  EC0BF000  	CALL delay_ms_00000
09A6  0E02      	MOVLW 0x02
09A8  6E76      	MOVWF FCD_04071__0005C_arg_FCL_DATA
09AA  9077      	BCF FCD_04071__0005C_arg_FCL_TYPE,0
09AC  EC18F002  	CALL FCD_04071__0005C
09B0  0E02      	MOVLW 0x02
09B2  6E73      	MOVWF delay_ms_00000_arg_del
09B4  EC0BF000  	CALL delay_ms_00000
09B8  0012      	RETURN
09BA            ; } FCD_04071_LCD__Clear function end

	ORG 0x000009BA
09BA            FCD_0c851__00056
09BA            ; { FCD_0c851_Bluetooth2__ReadString ; function begin
09BA  6A75      	CLRF FCD_0c851__00056_1_FCL_IDX
09BC            label106
09BC  5074      	MOVF FCD_0c851__00056_arg_FCL_N_00058, W
09BE  6075      	CPFSLT FCD_0c851__00056_1_FCL_IDX
09C0  D01B      	BRA	label107
09C2  EE00F005  	LFSR 0x00, gbl_FCV_0c851_Bluetooth2___00000
09C6  50E9      	MOVF FSR0L, W
09C8  5075      	MOVF FCD_0c851__00056_1_FCL_IDX, W
09CA  26E9      	ADDWF FSR0L, F
09CC  0E00      	MOVLW 0x00
09CE  64EF      	CPFSGT INDF0
09D0  D013      	BRA	label107
09D2  EE00F005  	LFSR 0x00, gbl_FCV_0c851_Bluetooth2___00000
09D6  50E9      	MOVF FSR0L, W
09D8  5075      	MOVF FCD_0c851__00056_1_FCL_IDX, W
09DA  6E76      	MOVWF CompTempVar2676
09DC  5076      	MOVF CompTempVar2676, W
09DE  26E9      	ADDWF FSR0L, F
09E0  50EF      	MOVF INDF0, W
09E2  6E77      	MOVWF CompTempVar2677
09E4  5071      	MOVF FCD_0c851__00056_arg_FCR_RETVAL+D'1', W
09E6  6EEA      	MOVWF FSR0H
09E8  5070      	MOVF FCD_0c851__00056_arg_FCR_RETVAL, W
09EA  2475      	ADDWF FCD_0c851__00056_1_FCL_IDX, W
09EC  6EE9      	MOVWF FSR0L
09EE  5077      	MOVF CompTempVar2677, W
09F0  6EEF      	MOVWF INDF0
09F2  2875      	INCF FCD_0c851__00056_1_FCL_IDX, W
09F4  6E75      	MOVWF FCD_0c851__00056_1_FCL_IDX
09F6  D7E2      	BRA	label106
09F8            label107
09F8  5074      	MOVF FCD_0c851__00056_arg_FCL_N_00058, W
09FA  6075      	CPFSLT FCD_0c851__00056_1_FCL_IDX
09FC  0012      	RETURN
09FE  5071      	MOVF FCD_0c851__00056_arg_FCR_RETVAL+D'1', W
0A00  6EEA      	MOVWF FSR0H
0A02  5070      	MOVF FCD_0c851__00056_arg_FCR_RETVAL, W
0A04  2475      	ADDWF FCD_0c851__00056_1_FCL_IDX, W
0A06  6EE9      	MOVWF FSR0L
0A08  0E00      	MOVLW 0x00
0A0A  6EEF      	MOVWF INDF0
0A0C  0012      	RETURN
0A0E            ; } FCD_0c851_Bluetooth2__ReadString function end

	ORG 0x00000A0E
0A0E            FCD_0c851__00055
0A0E            ; { FCD_0c851_Bluetooth2__ReceiveByte ; function begin
0A0E  6A71      	CLRF FCD_0c851__00055_1_FCL_COUNT
0A10  6A6E      	CLRF gbl_FCV_0c851_Bluetooth2___00001
0A12            label108
0A12  506F      	MOVF gbl_FCV_0c851_Bluetooth2___00002, W
0A14  606D      	CPFSLT gbl_FCV_0c851_Bluetooth2__RX_IDX
0A16  D00A      	BRA	label109
0A18  EE00F005  	LFSR 0x00, gbl_FCV_0c851_Bluetooth2___00000
0A1C  50E9      	MOVF FSR0L, W
0A1E  506D      	MOVF gbl_FCV_0c851_Bluetooth2__RX_IDX, W
0A20  26E9      	ADDWF FSR0L, F
0A22  50EF      	MOVF INDF0, W
0A24  6E72      	MOVWF FCD_0c851__00055_1_FCR_RETVAL
0A26  286D      	INCF gbl_FCV_0c851_Bluetooth2__RX_IDX, W
0A28  6E6D      	MOVWF gbl_FCV_0c851_Bluetooth2__RX_IDX
0A2A  D012      	BRA	label112
0A2C            label109
0A2C  0E32      	MOVLW 0x32
0A2E  606F      	CPFSLT gbl_FCV_0c851_Bluetooth2___00002
0A30  D00C      	BRA	label111
0A32  5270      	MOVF FCD_0c851__00055_arg_FCL_TIMEOUT, F
0A34  E003      	BZ	label110
0A36  5070      	MOVF FCD_0c851__00055_arg_FCL_TIMEOUT, W
0A38  6071      	CPFSLT FCD_0c851__00055_1_FCL_COUNT
0A3A  D007      	BRA	label111
0A3C            label110
0A3C  0E01      	MOVLW 0x01
0A3E  6E73      	MOVWF delay_ms_00000_arg_del
0A40  EC0BF000  	CALL delay_ms_00000
0A44  2871      	INCF FCD_0c851__00055_1_FCL_COUNT, W
0A46  6E71      	MOVWF FCD_0c851__00055_1_FCL_COUNT
0A48  D7E4      	BRA	label108
0A4A            label111
0A4A  6A6D      	CLRF gbl_FCV_0c851_Bluetooth2__RX_IDX
0A4C  6A6F      	CLRF gbl_FCV_0c851_Bluetooth2___00002
0A4E  6872      	SETF FCD_0c851__00055_1_FCR_RETVAL
0A50            label112
0A50  5072      	MOVF FCD_0c851__00055_1_FCR_RETVAL, W
0A52  6E73      	MOVWF CompTempVarRet2671
0A54  0012      	RETURN
0A56            ; } FCD_0c851_Bluetooth2__ReceiveByte function end

	ORG 0x00000A56
0A56            FCD_0c851__00051
0A56            ; { FCD_0c851_Bluetooth2__SendScript ; function begin
0A56  6A71      	CLRF FCD_0c851__00051_1_FCL_I
0A58  6872      	SETF FCD_0c851__00051_1_FCL_CH
0A5A  6A73      	CLRF FCD_0c851__00051_1_FCL_LEN
0A5C  0E01      	MOVLW 0x01
0A5E  6070      	CPFSLT FCD_0c851__00051_arg_FCL_IDX
0A60  D001      	BRA	label113
0A62  D003      	BRA	label114
0A64            label113
0A64  0E02      	MOVLW 0x02
0A66  6470      	CPFSGT FCD_0c851__00051_arg_FCL_IDX
0A68  D002      	BRA	label115
0A6A            label114
0A6A  6874      	SETF FCD_0c851__00051_1_FCR_RETVAL
0A6C  D0E4      	BRA	label127
0A6E            label115
0A6E  0470      	DECF FCD_0c851__00051_arg_FCL_IDX, W
0A70  E00C      	BZ	label118
0A72  0E02      	MOVLW 0x02
0A74  6270      	CPFSEQ FCD_0c851__00051_arg_FCL_IDX
0A76  D001      	BRA	label116
0A78  D04F      	BRA	label119
0A7A            label116
0A7A  0E03      	MOVLW 0x03
0A7C  6270      	CPFSEQ FCD_0c851__00051_arg_FCL_IDX
0A7E  D001      	BRA	label117
0A80  D083      	BRA	label120
0A82            label117
0A82  0E04      	MOVLW 0x04
0A84  6270      	CPFSEQ FCD_0c851__00051_arg_FCL_IDX
0A86  D0A0      	BRA	label122
0A88  D08F      	BRA	label121
0A8A            label118
0A8A  0E0A      	MOVLW 0x0A
0A8C  0100      	MOVLB 0x00
0A8E  6FAF      	MOVWF CompTempVar2655+D'7', 1
0A90  6FB4      	MOVWF CompTempVar2655+D'12', 1
0A92  6FBE      	MOVWF CompTempVar2655+D'22', 1
0A94  6FC8      	MOVWF CompTempVar2655+D'32', 1
0A96  0E0D      	MOVLW 0x0D
0A98  6FAE      	MOVWF CompTempVar2655+D'6', 1
0A9A  6FB3      	MOVWF CompTempVar2655+D'11', 1
0A9C  6FBD      	MOVWF CompTempVar2655+D'21', 1
0A9E  6FC7      	MOVWF CompTempVar2655+D'31', 1
0AA0  0E30      	MOVLW 0x30
0AA2  6FAB      	MOVWF CompTempVar2655+D'3', 1
0AA4  6FCD      	MOVWF CompTempVar2655+D'37', 1
0AA6  0E31      	MOVLW 0x31
0AA8  6FAD      	MOVWF CompTempVar2655+D'5', 1
0AAA  6FB9      	MOVWF CompTempVar2655+D'17', 1
0AAC  6FC6      	MOVWF CompTempVar2655+D'30', 1
0AAE  0E32      	MOVLW 0x32
0AB0  6FBA      	MOVWF CompTempVar2655+D'18', 1
0AB2  6FCE      	MOVWF CompTempVar2655+D'38', 1
0AB4  0E33      	MOVLW 0x33
0AB6  6FC3      	MOVWF CompTempVar2655+D'27', 1
0AB8  0E35      	MOVLW 0x35
0ABA  6FB8      	MOVWF CompTempVar2655+D'16', 1
0ABC  6FC2      	MOVWF CompTempVar2655+D'26', 1
0ABE  6FCC      	MOVWF CompTempVar2655+D'36', 1
0AC0  0E36      	MOVLW 0x36
0AC2  6FC4      	MOVWF CompTempVar2655+D'28', 1
0AC4  0E37      	MOVLW 0x37
0AC6  6FBC      	MOVWF CompTempVar2655+D'20', 1
0AC8  0E3D      	MOVLW 0x3D
0ACA  6FAC      	MOVWF CompTempVar2655+D'4', 1
0ACC  6FBB      	MOVWF CompTempVar2655+D'19', 1
0ACE  6FC5      	MOVWF CompTempVar2655+D'29', 1
0AD0  6FCF      	MOVWF CompTempVar2655+D'39', 1
0AD2  0E41      	MOVLW 0x41
0AD4  6FA8      	MOVWF CompTempVar2655, 1
0AD6  6FB0      	MOVWF CompTempVar2655+D'8', 1
0AD8  6FB5      	MOVWF CompTempVar2655+D'13', 1
0ADA  6FBF      	MOVWF CompTempVar2655+D'23', 1
0ADC  6FC9      	MOVWF CompTempVar2655+D'33', 1
0ADE  0E52      	MOVLW 0x52
0AE0  6FB2      	MOVWF CompTempVar2655+D'10', 1
0AE2  0E53      	MOVLW 0x53
0AE4  6FAA      	MOVWF CompTempVar2655+D'2', 1
0AE6  6FB7      	MOVWF CompTempVar2655+D'15', 1
0AE8  6FC1      	MOVWF CompTempVar2655+D'25', 1
0AEA  6FCB      	MOVWF CompTempVar2655+D'35', 1
0AEC  0E54      	MOVLW 0x54
0AEE  6FA9      	MOVWF CompTempVar2655+D'1', 1
0AF0  6FB1      	MOVWF CompTempVar2655+D'9', 1
0AF2  6FB6      	MOVWF CompTempVar2655+D'14', 1
0AF4  6FC0      	MOVWF CompTempVar2655+D'24', 1
0AF6  6FCA      	MOVWF CompTempVar2655+D'34', 1
0AF8  6BD0      	CLRF CompTempVar2655+D'40', 1
0AFA  0E00      	MOVLW HIGH(CompTempVar2655+D'0')
0AFC  6E76      	MOVWF FCI_SCOPY_00000_arg_sSrc+D'1'
0AFE  0EA8      	MOVLW LOW(CompTempVar2655+D'0')
0B00  6E75      	MOVWF FCI_SCOPY_00000_arg_sSrc
0B02  0E29      	MOVLW 0x29
0B04  6E78      	MOVWF FCI_SCOPY_00000_arg_iSrc_len
0B06  0E00      	MOVLW HIGH(FCD_0c851__00051_1_FCL_SCR_00052+D'0')
0B08  6E7A      	MOVWF FCI_SCOPY_00000_arg_sDst+D'1'
0B0A  0E80      	MOVLW LOW(FCD_0c851__00051_1_FCL_SCR_00052+D'0')
0B0C  6E79      	MOVWF FCI_SCOPY_00000_arg_sDst
0B0E  0E28      	MOVLW 0x28
0B10  6E7B      	MOVWF FCI_SCOPY_00000_arg_iDst_len
0B12  EC82F003  	CALL FCI_SCOPY_00000
0B16  D05A      	BRA	label123
0B18            label119
0B18  0E0A      	MOVLW 0x0A
0B1A  0100      	MOVLB 0x00
0B1C  6FB1      	MOVWF CompTempVar2658+D'9', 1
0B1E  6FB6      	MOVWF CompTempVar2658+D'14', 1
0B20  6FBC      	MOVWF CompTempVar2658+D'20', 1
0B22  0E0D      	MOVLW 0x0D
0B24  6FB0      	MOVWF CompTempVar2658+D'8', 1
0B26  6FB5      	MOVWF CompTempVar2658+D'13', 1
0B28  6FBB      	MOVWF CompTempVar2658+D'19', 1
0B2A  0E26      	MOVLW 0x26
0B2C  6FB9      	MOVWF CompTempVar2658+D'17', 1
0B2E  0E30      	MOVLW 0x30
0B30  6FC0      	MOVWF CompTempVar2658+D'24', 1
0B32  0E31      	MOVLW 0x31
0B34  6FAD      	MOVWF CompTempVar2658+D'5', 1
0B36  0E32      	MOVLW 0x32
0B38  6FAF      	MOVWF CompTempVar2658+D'7', 1
0B3A  0E33      	MOVLW 0x33
0B3C  6FAC      	MOVWF CompTempVar2658+D'4', 1
0B3E  0E35      	MOVLW 0x35
0B40  6FAB      	MOVWF CompTempVar2658+D'3', 1
0B42  0E3D      	MOVLW 0x3D
0B44  6FAE      	MOVWF CompTempVar2658+D'6', 1
0B46  0E41      	MOVLW 0x41
0B48  6FA8      	MOVWF CompTempVar2658, 1
0B4A  6FB2      	MOVWF CompTempVar2658+D'10', 1
0B4C  6FB4      	MOVWF CompTempVar2658+D'12', 1
0B4E  6FB7      	MOVWF CompTempVar2658+D'15', 1
0B50  6FBD      	MOVWF CompTempVar2658+D'21', 1
0B52  0E53      	MOVLW 0x53
0B54  6FAA      	MOVWF CompTempVar2658+D'2', 1
0B56  0E54      	MOVLW 0x54
0B58  6FA9      	MOVWF CompTempVar2658+D'1', 1
0B5A  6FB3      	MOVWF CompTempVar2658+D'11', 1
0B5C  6FB8      	MOVWF CompTempVar2658+D'16', 1
0B5E  6FBE      	MOVWF CompTempVar2658+D'22', 1
0B60  0E57      	MOVLW 0x57
0B62  6FBA      	MOVWF CompTempVar2658+D'18', 1
0B64  0E5A      	MOVLW 0x5A
0B66  6FBF      	MOVWF CompTempVar2658+D'23', 1
0B68  6BC1      	CLRF CompTempVar2658+D'25', 1
0B6A  0E00      	MOVLW HIGH(CompTempVar2658+D'0')
0B6C  6E76      	MOVWF FCI_SCOPY_00000_arg_sSrc+D'1'
0B6E  0EA8      	MOVLW LOW(CompTempVar2658+D'0')
0B70  6E75      	MOVWF FCI_SCOPY_00000_arg_sSrc
0B72  0E1A      	MOVLW 0x1A
0B74  6E78      	MOVWF FCI_SCOPY_00000_arg_iSrc_len
0B76  0E00      	MOVLW HIGH(FCD_0c851__00051_1_FCL_SCR_00052+D'0')
0B78  6E7A      	MOVWF FCI_SCOPY_00000_arg_sDst+D'1'
0B7A  0E80      	MOVLW LOW(FCD_0c851__00051_1_FCL_SCR_00052+D'0')
0B7C  6E79      	MOVWF FCI_SCOPY_00000_arg_sDst
0B7E  0E28      	MOVLW 0x28
0B80  6E7B      	MOVWF FCI_SCOPY_00000_arg_iDst_len
0B82  EC82F003  	CALL FCI_SCOPY_00000
0B86  D022      	BRA	label123
0B88            label120
0B88  6A77      	CLRF CompTempVar2661
0B8A  0E00      	MOVLW HIGH(CompTempVar2661+D'0')
0B8C  6E76      	MOVWF FCI_SCOPY_00000_arg_sSrc+D'1'
0B8E  0E77      	MOVLW LOW(CompTempVar2661+D'0')
0B90  6E75      	MOVWF FCI_SCOPY_00000_arg_sSrc
0B92  0E01      	MOVLW 0x01
0B94  6E78      	MOVWF FCI_SCOPY_00000_arg_iSrc_len
0B96  0E00      	MOVLW HIGH(FCD_0c851__00051_1_FCL_SCR_00052+D'0')
0B98  6E7A      	MOVWF FCI_SCOPY_00000_arg_sDst+D'1'
0B9A  0E80      	MOVLW LOW(FCD_0c851__00051_1_FCL_SCR_00052+D'0')
0B9C  6E79      	MOVWF FCI_SCOPY_00000_arg_sDst
0B9E  0E28      	MOVLW 0x28
0BA0  6E7B      	MOVWF FCI_SCOPY_00000_arg_iDst_len
0BA2  EC82F003  	CALL FCI_SCOPY_00000
0BA6  D012      	BRA	label123
0BA8            label121
0BA8  6A77      	CLRF CompTempVar2664
0BAA  0E00      	MOVLW HIGH(CompTempVar2664+D'0')
0BAC  6E76      	MOVWF FCI_SCOPY_00000_arg_sSrc+D'1'
0BAE  0E77      	MOVLW LOW(CompTempVar2664+D'0')
0BB0  6E75      	MOVWF FCI_SCOPY_00000_arg_sSrc
0BB2  0E01      	MOVLW 0x01
0BB4  6E78      	MOVWF FCI_SCOPY_00000_arg_iSrc_len
0BB6  0E00      	MOVLW HIGH(FCD_0c851__00051_1_FCL_SCR_00052+D'0')
0BB8  6E7A      	MOVWF FCI_SCOPY_00000_arg_sDst+D'1'
0BBA  0E80      	MOVLW LOW(FCD_0c851__00051_1_FCL_SCR_00052+D'0')
0BBC  6E79      	MOVWF FCI_SCOPY_00000_arg_sDst
0BBE  0E28      	MOVLW 0x28
0BC0  6E7B      	MOVWF FCI_SCOPY_00000_arg_iDst_len
0BC2  EC82F003  	CALL FCI_SCOPY_00000
0BC6  D002      	BRA	label123
0BC8            label122
0BC8  6874      	SETF FCD_0c851__00051_1_FCR_RETVAL
0BCA  D035      	BRA	label127
0BCC            label123
0BCC  0E00      	MOVLW 0x00
0BCE  6472      	CPFSGT FCD_0c851__00051_1_FCL_CH
0BD0  D023      	BRA	label126
0BD2  0100      	MOVLB 0x00
0BD4  EE00F080  	LFSR 0x00, FCD_0c851__00051_1_FCL_SCR_00052
0BD8  50E9      	MOVF FSR0L, W
0BDA  5071      	MOVF FCD_0c851__00051_1_FCL_I, W
0BDC  26E9      	ADDWF FSR0L, F
0BDE  50EF      	MOVF INDF0, W
0BE0  6E72      	MOVWF FCD_0c851__00051_1_FCL_CH
0BE2  0E00      	MOVLW 0x00
0BE4  6472      	CPFSGT FCD_0c851__00051_1_FCL_CH
0BE6  D015      	BRA	label125
0BE8  0E0A      	MOVLW 0x0A
0BEA  6272      	CPFSEQ FCD_0c851__00051_1_FCL_CH
0BEC  D001      	BRA	label124
0BEE  D011      	BRA	label125
0BF0            label124
0BF0  5072      	MOVF FCD_0c851__00051_1_FCL_CH, W
0BF2  6FAB      	MOVWF FC_CAL_UAR_0006D_arg_nChar, 1
0BF4  6BAC      	CLRF FC_CAL_UAR_0006D_arg_nChar+D'1', 1
0BF6  ECB0F000  	CALL FC_CAL_UAR_0006D
0BFA  2873      	INCF FCD_0c851__00051_1_FCL_LEN, W
0BFC  6E73      	MOVWF FCD_0c851__00051_1_FCL_LEN
0BFE  0E0D      	MOVLW 0x0D
0C00  6272      	CPFSEQ FCD_0c851__00051_1_FCL_CH
0C02  D007      	BRA	label125
0C04  ECC8F000  	CALL FCD_0c851__00073
0C08  ECC8F000  	CALL FCD_0c851__00073
0C0C  51AE      	MOVF CompTempVarRet2723, W, 1
0C0E  6E74      	MOVWF FCD_0c851__00051_1_FCR_RETVAL
0C10  6A73      	CLRF FCD_0c851__00051_1_FCL_LEN
0C12            label125
0C12  2871      	INCF FCD_0c851__00051_1_FCL_I, W
0C14  6E71      	MOVWF FCD_0c851__00051_1_FCL_I
0C16  D7DA      	BRA	label123
0C18            label126
0C18  0E00      	MOVLW 0x00
0C1A  6473      	CPFSGT FCD_0c851__00051_1_FCL_LEN
0C1C  D00C      	BRA	label127
0C1E  0E0D      	MOVLW 0x0D
0C20  0100      	MOVLB 0x00
0C22  6FAB      	MOVWF FC_CAL_UAR_0006D_arg_nChar, 1
0C24  6BAC      	CLRF FC_CAL_UAR_0006D_arg_nChar+D'1', 1
0C26  ECB0F000  	CALL FC_CAL_UAR_0006D
0C2A  ECC8F000  	CALL FCD_0c851__00073
0C2E  ECC8F000  	CALL FCD_0c851__00073
0C32  51AE      	MOVF CompTempVarRet2723, W, 1
0C34  6E74      	MOVWF FCD_0c851__00051_1_FCR_RETVAL
0C36            label127
0C36  5074      	MOVF FCD_0c851__00051_1_FCR_RETVAL, W
0C38  6E75      	MOVWF CompTempVarRet2654
0C3A  0012      	RETURN
0C3C            ; } FCD_0c851_Bluetooth2__SendScript function end

	ORG 0x00000C3C
0C3C            FCD_0c851__0004F
0C3C            ; { FCD_0c851_Bluetooth2__Initialise ; function begin
0C3C  6A71      	CLRF FCD_0c851__0004F_2_ptmp
0C3E  9293      	BCF gbl_trisb,1
0C40  5271      	MOVF FCD_0c851__0004F_2_ptmp, F
0C42  E004      	BZ	label128
0C44  0E02      	MOVLW 0x02
0C46  108A      	IORWF gbl_latb, W
0C48  6E81      	MOVWF gbl_portb
0C4A  D003      	BRA	label129
0C4C            label128
0C4C  0EFD      	MOVLW 0xFD
0C4E  148A      	ANDWF gbl_latb, W
0C50  6E81      	MOVWF gbl_portb
0C52            label129
0C52  0E64      	MOVLW 0x64
0C54  6E73      	MOVWF delay_ms_00000_arg_del
0C56  EC0BF000  	CALL delay_ms_00000
0C5A  0E01      	MOVLW 0x01
0C5C  6E71      	MOVWF FCD_0c851__0004F_13_ptmp
0C5E  9293      	BCF gbl_trisb,1
0C60  5271      	MOVF FCD_0c851__0004F_13_ptmp, F
0C62  E004      	BZ	label130
0C64  0E02      	MOVLW 0x02
0C66  108A      	IORWF gbl_latb, W
0C68  6E81      	MOVWF gbl_portb
0C6A  D003      	BRA	label131
0C6C            label130
0C6C  0EFD      	MOVLW 0xFD
0C6E  148A      	ANDWF gbl_latb, W
0C70  6E81      	MOVWF gbl_portb
0C72            label131
0C72  6A70      	CLRF FCD_0c851__0004F_1_FCR_RETVAL
0C74  EC77F003  	CALL FC_CAL_UAR_0006E
0C78  0E0A      	MOVLW 0x0A
0C7A  6E73      	MOVWF delay_ms_00000_arg_del
0C7C  EC0BF000  	CALL delay_ms_00000
0C80  ECC8F000  	CALL FCD_0c851__00073
0C84  ECAEF003  	CALL FCD_0c851__00079
0C88  0E22      	MOVLW 0x22
0C8A  6F9B      	MOVWF CompTempVar2642+D'7', 1
0C8C  0E2B      	MOVLW 0x2B
0C8E  6F96      	MOVWF CompTempVar2642+D'2', 1
0C90  0E3D      	MOVLW 0x3D
0C92  6F9A      	MOVWF CompTempVar2642+D'6', 1
0C94  0E41      	MOVLW 0x41
0C96  6F94      	MOVWF CompTempVar2642, 1
0C98  0E42      	MOVLW 0x42
0C9A  6F97      	MOVWF CompTempVar2642+D'3', 1
0C9C  0E4E      	MOVLW 0x4E
0C9E  6F99      	MOVWF CompTempVar2642+D'5', 1
0CA0  0E54      	MOVLW 0x54
0CA2  6F95      	MOVWF CompTempVar2642+D'1', 1
0CA4  6F98      	MOVWF CompTempVar2642+D'4', 1
0CA6  6B9C      	CLRF CompTempVar2642+D'8', 1
0CA8  0E00      	MOVLW HIGH(CompTempVar2642+D'0')
0CAA  6E7C      	MOVWF FCI_SHEAD_00000_arg_sSrc1+D'1'
0CAC  0E94      	MOVLW LOW(CompTempVar2642+D'0')
0CAE  6E7B      	MOVWF FCI_SHEAD_00000_arg_sSrc1
0CB0  0E09      	MOVLW 0x09
0CB2  6E7D      	MOVWF FCI_SHEAD_00000_arg_iSrc1_len
0CB4  0E4D      	MOVLW 0x4D
0CB6  6F9D      	MOVWF CompTempVar2643, 1
0CB8  0E41      	MOVLW 0x41
0CBA  6F9E      	MOVWF CompTempVar2643+D'1', 1
0CBC  0E52      	MOVLW 0x52
0CBE  6F9F      	MOVWF CompTempVar2643+D'2', 1
0CC0  0E43      	MOVLW 0x43
0CC2  6FA0      	MOVWF CompTempVar2643+D'3', 1
0CC4  0E48      	MOVLW 0x48
0CC6  6FA1      	MOVWF CompTempVar2643+D'4', 1
0CC8  0E45      	MOVLW 0x45
0CCA  6FA2      	MOVWF CompTempVar2643+D'5', 1
0CCC  0E5F      	MOVLW 0x5F
0CCE  6FA3      	MOVWF CompTempVar2643+D'6', 1
0CD0  0E50      	MOVLW 0x50
0CD2  6FA4      	MOVWF CompTempVar2643+D'7', 1
0CD4  0E54      	MOVLW 0x54
0CD6  6FA5      	MOVWF CompTempVar2643+D'8', 1
0CD8  0E4E      	MOVLW 0x4E
0CDA  6FA6      	MOVWF CompTempVar2643+D'9', 1
0CDC  6BA7      	CLRF CompTempVar2643+D'10', 1
0CDE  0E00      	MOVLW HIGH(CompTempVar2643+D'0')
0CE0  6E7F      	MOVWF FCI_SHEAD_00000_arg_sSrc2+D'1'
0CE2  0E9D      	MOVLW LOW(CompTempVar2643+D'0')
0CE4  6E7E      	MOVWF FCI_SHEAD_00000_arg_sSrc2
0CE6  0E0B      	MOVLW 0x0B
0CE8  6FB1      	MOVWF FCI_SHEAD_00000_arg_iSrc2_len, 1
0CEA  0E00      	MOVLW HIGH(FCD_0c851__0004F_1_FCL_CMDSTR+D'0')
0CEC  6FB3      	MOVWF FCI_SHEAD_00000_arg_sDst+D'1', 1
0CEE  0E80      	MOVLW LOW(FCD_0c851__0004F_1_FCL_CMDSTR+D'0')
0CF0  6FB2      	MOVWF FCI_SHEAD_00000_arg_sDst, 1
0CF2  0E14      	MOVLW 0x14
0CF4  6FB4      	MOVWF FCI_SHEAD_00000_arg_iDst_len, 1
0CF6  ECF0F000  	CALL FCI_SHEAD_00000
0CFA  0E00      	MOVLW HIGH(FCD_0c851__0004F_1_FCL_CMDSTR+D'0')
0CFC  6E7C      	MOVWF FCI_SHEAD_00000_arg_sSrc1+D'1'
0CFE  0E80      	MOVLW LOW(FCD_0c851__0004F_1_FCL_CMDSTR+D'0')
0D00  6E7B      	MOVWF FCI_SHEAD_00000_arg_sSrc1
0D02  0E14      	MOVLW 0x14
0D04  6E7D      	MOVWF FCI_SHEAD_00000_arg_iSrc1_len
0D06  0E22      	MOVLW 0x22
0D08  6E72      	MOVWF CompTempVar2647
0D0A  6A73      	CLRF CompTempVar2647+D'1'
0D0C  0E00      	MOVLW HIGH(CompTempVar2647+D'0')
0D0E  6E7F      	MOVWF FCI_SHEAD_00000_arg_sSrc2+D'1'
0D10  0E72      	MOVLW LOW(CompTempVar2647+D'0')
0D12  6E7E      	MOVWF FCI_SHEAD_00000_arg_sSrc2
0D14  0E02      	MOVLW 0x02
0D16  6FB1      	MOVWF FCI_SHEAD_00000_arg_iSrc2_len, 1
0D18  0E00      	MOVLW HIGH(FCD_0c851__0004F_1_FCL_CMDSTR+D'0')
0D1A  6FB3      	MOVWF FCI_SHEAD_00000_arg_sDst+D'1', 1
0D1C  0E80      	MOVLW LOW(FCD_0c851__0004F_1_FCL_CMDSTR+D'0')
0D1E  6FB2      	MOVWF FCI_SHEAD_00000_arg_sDst, 1
0D20  0E14      	MOVLW 0x14
0D22  6FB4      	MOVWF FCI_SHEAD_00000_arg_iDst_len, 1
0D24  ECF0F000  	CALL FCI_SHEAD_00000
0D28  0E00      	MOVLW HIGH(FCD_0c851__0004F_1_FCL_CMDSTR+D'0')
0D2A  6E7C      	MOVWF FCD_0c851__00059_arg_FCL_COMMAND+D'1'
0D2C  0E80      	MOVLW LOW(FCD_0c851__0004F_1_FCL_CMDSTR+D'0')
0D2E  6E7B      	MOVWF FCD_0c851__00059_arg_FCL_COMMAND
0D30  0E14      	MOVLW 0x14
0D32  6E7D      	MOVWF FCD_0c851__00059_arg_FCLsz_0005A
0D34  6A7E      	CLRF FCD_0c851__00059_arg_FCLsz_0005A+D'1'
0D36  0E01      	MOVLW 0x01
0D38  6E7F      	MOVWF FCD_0c851__00059_arg_FCL_SENDCR
0D3A  ECDFF001  	CALL FCD_0c851__00059
0D3E  0E31      	MOVLW 0x31
0D40  6E73      	MOVWF CompTempVar2652
0D42  0E33      	MOVLW 0x33
0D44  6E74      	MOVWF CompTempVar2652+D'1'
0D46  0E37      	MOVLW 0x37
0D48  6E75      	MOVWF CompTempVar2652+D'2'
0D4A  0E39      	MOVLW 0x39
0D4C  6E76      	MOVWF CompTempVar2652+D'3'
0D4E  6A77      	CLRF CompTempVar2652+D'4'
0D50  0E00      	MOVLW HIGH(CompTempVar2652+D'0')
0D52  6E72      	MOVWF FCD_0c851__00070_arg_FCL_PAIRKEY+D'1'
0D54  0E73      	MOVLW LOW(CompTempVar2652+D'0')
0D56  6E71      	MOVWF FCD_0c851__00070_arg_FCL_PAIRKEY
0D58  0E05      	MOVLW 0x05
0D5A  6E78      	MOVWF FCD_0c851__00070_arg_FCLsz_00071
0D5C  6A79      	CLRF FCD_0c851__00070_arg_FCLsz_00071+D'1'
0D5E  EC7EF004  	CALL FCD_0c851__00070
0D62  0E01      	MOVLW 0x01
0D64  6E71      	MOVWF FCD_0c851__00076_arg_FCL_D_00077
0D66  6E72      	MOVWF FCD_0c851__00076_arg_FCL_C_00078
0D68  ECC9F003  	CALL FCD_0c851__00076
0D6C  EC4FF004  	CALL FCD_0c851__00074
0D70  5072      	MOVF CompTempVarRet2724, W
0D72  6E70      	MOVWF FCD_0c851__0004F_1_FCR_RETVAL
0D74  5070      	MOVF FCD_0c851__0004F_1_FCR_RETVAL, W
0D76  6E71      	MOVWF CompTempVarRet2641
0D78  0012      	RETURN
0D7A            ; } FCD_0c851_Bluetooth2__Initialise function end

	ORG 0x00000D7A
0D7A            FCD_04071__00053
0D7A            ; { FCD_04071_LCD__PrintString ; function begin
0D7A  6A74      	CLRF FCD_04071__00053_1_FCL_IDX
0D7C  5070      	MOVF FCD_04071__00053_arg_FCL_TEXT, W
0D7E  0100      	MOVLB 0x00
0D80  6FAB      	MOVWF FCI_GETLEN_0003E_arg_sStr1, 1
0D82  5071      	MOVF FCD_04071__00053_arg_FCL_TEXT+D'1', W
0D84  6FAC      	MOVWF FCI_GETLEN_0003E_arg_sStr1+D'1', 1
0D86  5072      	MOVF FCD_04071__00053_arg_FCLsz_TEXT, W
0D88  6FAD      	MOVWF FCI_GETLEN_0003E_arg_iStr1_len, 1
0D8A  ECB8F000  	CALL FCI_GETLEN_0003E
0D8E  51AF      	MOVF CompTempVarRet1850, W, 1
0D90  6E75      	MOVWF FCD_04071__00053_1_FCL_COUNT
0D92            label132
0D92  5075      	MOVF FCD_04071__00053_1_FCL_COUNT, W
0D94  6074      	CPFSLT FCD_04071__00053_1_FCL_IDX
0D96  0012      	RETURN
0D98  5071      	MOVF FCD_04071__00053_arg_FCL_TEXT+D'1', W
0D9A  6EEA      	MOVWF FSR0H
0D9C  5070      	MOVF FCD_04071__00053_arg_FCL_TEXT, W
0D9E  2474      	ADDWF FCD_04071__00053_1_FCL_IDX, W
0DA0  6EE9      	MOVWF FSR0L
0DA2  50EF      	MOVF INDF0, W
0DA4  6E76      	MOVWF FCD_04071__0005C_arg_FCL_DATA
0DA6  8077      	BSF FCD_04071__0005C_arg_FCL_TYPE,0
0DA8  EC18F002  	CALL FCD_04071__0005C
0DAC  2874      	INCF FCD_04071__00053_1_FCL_IDX, W
0DAE  6E74      	MOVWF FCD_04071__00053_1_FCL_IDX
0DB0  D7F0      	BRA	label132
0DB2            ; } FCD_04071_LCD__PrintString function end

	ORG 0x00000DB2
0DB2            FCD_04071__00050
0DB2            ; { FCD_04071_LCD__Start ; function begin
0DB2  6A70      	CLRF FCD_04071__00050_2_ptmp
0DB4  9092      	BCF gbl_trisa,0
0DB6  5270      	MOVF FCD_04071__00050_2_ptmp, F
0DB8  E004      	BZ	label133
0DBA  0E01      	MOVLW 0x01
0DBC  1089      	IORWF gbl_lata, W
0DBE  6E80      	MOVWF gbl_porta
0DC0  D003      	BRA	label134
0DC2            label133
0DC2  0EFE      	MOVLW 0xFE
0DC4  1489      	ANDWF gbl_lata, W
0DC6  6E80      	MOVWF gbl_porta
0DC8            label134
0DC8  6A70      	CLRF FCD_04071__00050_9_ptmp
0DCA  9292      	BCF gbl_trisa,1
0DCC  5270      	MOVF FCD_04071__00050_9_ptmp, F
0DCE  E004      	BZ	label135
0DD0  0E02      	MOVLW 0x02
0DD2  1089      	IORWF gbl_lata, W
0DD4  6E80      	MOVWF gbl_porta
0DD6  D003      	BRA	label136
0DD8            label135
0DD8  0EFD      	MOVLW 0xFD
0DDA  1489      	ANDWF gbl_lata, W
0DDC  6E80      	MOVWF gbl_porta
0DDE            label136
0DDE  6A70      	CLRF FCD_04071__00050_16_ptmp
0DE0  9492      	BCF gbl_trisa,2
0DE2  5270      	MOVF FCD_04071__00050_16_ptmp, F
0DE4  E004      	BZ	label137
0DE6  0E04      	MOVLW 0x04
0DE8  1089      	IORWF gbl_lata, W
0DEA  6E80      	MOVWF gbl_porta
0DEC  D003      	BRA	label138
0DEE            label137
0DEE  0EFB      	MOVLW 0xFB
0DF0  1489      	ANDWF gbl_lata, W
0DF2  6E80      	MOVWF gbl_porta
0DF4            label138
0DF4  6A70      	CLRF FCD_04071__00050_23_ptmp
0DF6  9692      	BCF gbl_trisa,3
0DF8  5270      	MOVF FCD_04071__00050_23_ptmp, F
0DFA  E004      	BZ	label139
0DFC  0E08      	MOVLW 0x08
0DFE  1089      	IORWF gbl_lata, W
0E00  6E80      	MOVWF gbl_porta
0E02  D003      	BRA	label140
0E04            label139
0E04  0EF7      	MOVLW 0xF7
0E06  1489      	ANDWF gbl_lata, W
0E08  6E80      	MOVWF gbl_porta
0E0A            label140
0E0A  6A70      	CLRF FCD_04071__00050_30_ptmp
0E0C  9892      	BCF gbl_trisa,4
0E0E  5270      	MOVF FCD_04071__00050_30_ptmp, F
0E10  E004      	BZ	label141
0E12  0E10      	MOVLW 0x10
0E14  1089      	IORWF gbl_lata, W
0E16  6E80      	MOVWF gbl_porta
0E18  D003      	BRA	label142
0E1A            label141
0E1A  0EEF      	MOVLW 0xEF
0E1C  1489      	ANDWF gbl_lata, W
0E1E  6E80      	MOVWF gbl_porta
0E20            label142
0E20  6A70      	CLRF FCD_04071__00050_37_ptmp
0E22  9A92      	BCF gbl_trisa,5
0E24  5270      	MOVF FCD_04071__00050_37_ptmp, F
0E26  E004      	BZ	label143
0E28  0E20      	MOVLW 0x20
0E2A  1089      	IORWF gbl_lata, W
0E2C  6E80      	MOVWF gbl_porta
0E2E  D003      	BRA	label144
0E30            label143
0E30  0EDF      	MOVLW 0xDF
0E32  1489      	ANDWF gbl_lata, W
0E34  6E80      	MOVWF gbl_porta
0E36            label144
0E36  0E0C      	MOVLW 0x0C
0E38  6E73      	MOVWF delay_ms_00000_arg_del
0E3A  EC0BF000  	CALL delay_ms_00000
0E3E  0E33      	MOVLW 0x33
0E40  6E76      	MOVWF FCD_04071__0005C_arg_FCL_DATA
0E42  9077      	BCF FCD_04071__0005C_arg_FCL_TYPE,0
0E44  EC18F002  	CALL FCD_04071__0005C
0E48  0E02      	MOVLW 0x02
0E4A  6E73      	MOVWF delay_ms_00000_arg_del
0E4C  EC0BF000  	CALL delay_ms_00000
0E50  0E33      	MOVLW 0x33
0E52  6E76      	MOVWF FCD_04071__0005C_arg_FCL_DATA
0E54  9077      	BCF FCD_04071__0005C_arg_FCL_TYPE,0
0E56  EC18F002  	CALL FCD_04071__0005C
0E5A  0E02      	MOVLW 0x02
0E5C  6E73      	MOVWF delay_ms_00000_arg_del
0E5E  EC0BF000  	CALL delay_ms_00000
0E62  0E32      	MOVLW 0x32
0E64  6E76      	MOVWF FCD_04071__0005C_arg_FCL_DATA
0E66  9077      	BCF FCD_04071__0005C_arg_FCL_TYPE,0
0E68  EC18F002  	CALL FCD_04071__0005C
0E6C  0E02      	MOVLW 0x02
0E6E  6E73      	MOVWF delay_ms_00000_arg_del
0E70  EC0BF000  	CALL delay_ms_00000
0E74  0E2C      	MOVLW 0x2C
0E76  6E76      	MOVWF FCD_04071__0005C_arg_FCL_DATA
0E78  9077      	BCF FCD_04071__0005C_arg_FCL_TYPE,0
0E7A  EC18F002  	CALL FCD_04071__0005C
0E7E  0E02      	MOVLW 0x02
0E80  6E73      	MOVWF delay_ms_00000_arg_del
0E82  EC0BF000  	CALL delay_ms_00000
0E86  0E06      	MOVLW 0x06
0E88  6E76      	MOVWF FCD_04071__0005C_arg_FCL_DATA
0E8A  9077      	BCF FCD_04071__0005C_arg_FCL_TYPE,0
0E8C  EC18F002  	CALL FCD_04071__0005C
0E90  0E02      	MOVLW 0x02
0E92  6E73      	MOVWF delay_ms_00000_arg_del
0E94  EC0BF000  	CALL delay_ms_00000
0E98  0E0C      	MOVLW 0x0C
0E9A  6E76      	MOVWF FCD_04071__0005C_arg_FCL_DATA
0E9C  9077      	BCF FCD_04071__0005C_arg_FCL_TYPE,0
0E9E  EC18F002  	CALL FCD_04071__0005C
0EA2  0E02      	MOVLW 0x02
0EA4  6E73      	MOVWF delay_ms_00000_arg_del
0EA6  EC0BF000  	CALL delay_ms_00000
0EAA  0E01      	MOVLW 0x01
0EAC  6E76      	MOVWF FCD_04071__0005C_arg_FCL_DATA
0EAE  9077      	BCF FCD_04071__0005C_arg_FCL_TYPE,0
0EB0  EC18F002  	CALL FCD_04071__0005C
0EB4  0E02      	MOVLW 0x02
0EB6  6E73      	MOVWF delay_ms_00000_arg_del
0EB8  EC0BF000  	CALL delay_ms_00000
0EBC  0E02      	MOVLW 0x02
0EBE  6E76      	MOVWF FCD_04071__0005C_arg_FCL_DATA
0EC0  9077      	BCF FCD_04071__0005C_arg_FCL_TYPE,0
0EC2  EC18F002  	CALL FCD_04071__0005C
0EC6  0E02      	MOVLW 0x02
0EC8  6E73      	MOVWF delay_ms_00000_arg_del
0ECA  EC0BF000  	CALL delay_ms_00000
0ECE  ECCAF004  	CALL FCD_04071__00054
0ED2  0012      	RETURN
0ED4            ; } FCD_04071_LCD__Start function end

	ORG 0x00000ED4
0ED4            FCM_INITIA_0004E
0ED4            ; { FCM_INITIALISATION ; function begin
0ED4  EC1EF006  	CALL FCD_0c851__0004F
0ED8  ECD9F006  	CALL FCD_04071__00050
0EDC  0E01      	MOVLW 0x01
0EDE  6E70      	MOVWF delay_s_00000_arg_del
0EE0  EC33F000  	CALL delay_s_00000
0EE4  0E01      	MOVLW 0x01
0EE6  6E70      	MOVWF FCD_0c851__00051_arg_FCL_IDX
0EE8  EC2BF005  	CALL FCD_0c851__00051
0EEC  0E02      	MOVLW 0x02
0EEE  6E70      	MOVWF FCD_0c851__00051_arg_FCL_IDX
0EF0  EC2BF005  	CALL FCD_0c851__00051
0EF4  0E2E      	MOVLW 0x2E
0EF6  0100      	MOVLB 0x00
0EF8  6F8E      	MOVWF CompTempVar2633+D'14', 1
0EFA  6F8F      	MOVWF CompTempVar2633+D'15', 1
0EFC  6F90      	MOVWF CompTempVar2633+D'16', 1
0EFE  0E49      	MOVLW 0x49
0F00  6F80      	MOVWF CompTempVar2633, 1
0F02  0E61      	MOVLW 0x61
0F04  6F85      	MOVWF CompTempVar2633+D'5', 1
0F06  6F89      	MOVWF CompTempVar2633+D'9', 1
0F08  0E69      	MOVLW 0x69
0F0A  6F82      	MOVWF CompTempVar2633+D'2', 1
0F0C  6F84      	MOVWF CompTempVar2633+D'4', 1
0F0E  6F87      	MOVWF CompTempVar2633+D'7', 1
0F10  6F8B      	MOVWF CompTempVar2633+D'11', 1
0F12  0E6C      	MOVLW 0x6C
0F14  6F86      	MOVWF CompTempVar2633+D'6', 1
0F16  0E6E      	MOVLW 0x6E
0F18  6F81      	MOVWF CompTempVar2633+D'1', 1
0F1A  6F8D      	MOVWF CompTempVar2633+D'13', 1
0F1C  0E6F      	MOVLW 0x6F
0F1E  6F8C      	MOVWF CompTempVar2633+D'12', 1
0F20  0E73      	MOVLW 0x73
0F22  6F88      	MOVWF CompTempVar2633+D'8', 1
0F24  0E74      	MOVLW 0x74
0F26  6F83      	MOVWF CompTempVar2633+D'3', 1
0F28  6F8A      	MOVWF CompTempVar2633+D'10', 1
0F2A  6B91      	CLRF CompTempVar2633+D'17', 1
0F2C  0E00      	MOVLW HIGH(CompTempVar2633+D'0')
0F2E  6E71      	MOVWF FCD_04071__00053_arg_FCL_TEXT+D'1'
0F30  0E80      	MOVLW LOW(CompTempVar2633+D'0')
0F32  6E70      	MOVWF FCD_04071__00053_arg_FCL_TEXT
0F34  0E12      	MOVLW 0x12
0F36  6E72      	MOVWF FCD_04071__00053_arg_FCLsz_TEXT
0F38  6A73      	CLRF FCD_04071__00053_arg_FCLsz_TEXT+D'1'
0F3A  ECBDF006  	CALL FCD_04071__00053
0F3E  0E01      	MOVLW 0x01
0F40  6E70      	MOVWF delay_s_00000_arg_del
0F42  EC33F000  	CALL delay_s_00000
0F46            label145
0F46  6A6C      	CLRF gbl_FCV_OCTET
0F48  ECCAF004  	CALL FCD_04071__00054
0F4C  0E14      	MOVLW 0x14
0F4E  6E70      	MOVWF FCD_0c851__00055_arg_FCL_TIMEOUT
0F50  EC07F005  	CALL FCD_0c851__00055
0F54  5073      	MOVF CompTempVarRet2671, W
0F56  6E6C      	MOVWF gbl_FCV_OCTET
0F58  0E00      	MOVLW HIGH(gbl_FCV_RETURN+D'0')
0F5A  6E71      	MOVWF FCD_0c851__00056_arg_FCR_RETVAL+D'1'
0F5C  0E37      	MOVLW LOW(gbl_FCV_RETURN+D'0')
0F5E  6E70      	MOVWF FCD_0c851__00056_arg_FCR_RETVAL
0F60  0E14      	MOVLW 0x14
0F62  6E72      	MOVWF FCD_0c851__00056_arg_FCRsz_00057
0F64  6A73      	CLRF FCD_0c851__00056_arg_FCRsz_00057+D'1'
0F66  506C      	MOVF gbl_FCV_OCTET, W
0F68  6E74      	MOVWF FCD_0c851__00056_arg_FCL_N_00058
0F6A  ECDDF004  	CALL FCD_0c851__00056
0F6E  0E00      	MOVLW HIGH(gbl_FCV_RETURN+D'0')
0F70  6E71      	MOVWF FCD_04071__00053_arg_FCL_TEXT+D'1'
0F72  0E37      	MOVLW LOW(gbl_FCV_RETURN+D'0')
0F74  6E70      	MOVWF FCD_04071__00053_arg_FCL_TEXT
0F76  0E14      	MOVLW 0x14
0F78  6E72      	MOVWF FCD_04071__00053_arg_FCLsz_TEXT
0F7A  6A73      	CLRF FCD_04071__00053_arg_FCLsz_TEXT+D'1'
0F7C  ECBDF006  	CALL FCD_04071__00053
0F80  5261      	MOVF gbl_FCV_LOOP, F
0F82  5262      	MOVF gbl_FCV_LOOP+D'1', F
0F84  2A61      	INCF gbl_FCV_LOOP, F
0F86  B4D8      	BTFSC STATUS,Z
0F88  2A62      	INCF gbl_FCV_LOOP+D'1', F
0F8A  5062      	MOVF gbl_FCV_LOOP+D'1', W
0F8C  0E0F      	MOVLW 0x0F
0F8E  B4D8      	BTFSC STATUS,Z
0F90  6061      	CPFSLT gbl_FCV_LOOP
0F92  D001      	BRA	label146
0F94  D7D8      	BRA	label145
0F96            label146
0F96  BE62      	BTFSC gbl_FCV_LOOP+D'1',7
0F98  D7D6      	BRA	label145
0F9A  6A61      	CLRF gbl_FCV_LOOP
0F9C  6A62      	CLRF gbl_FCV_LOOP+D'1'
0F9E  0E73      	MOVLW 0x73
0FA0  6E70      	MOVWF CompTempVar2639
0FA2  0E61      	MOVLW 0x61
0FA4  6E71      	MOVWF CompTempVar2639+D'1'
0FA6  0E6C      	MOVLW 0x6C
0FA8  6E72      	MOVWF CompTempVar2639+D'2'
0FAA  0E75      	MOVLW 0x75
0FAC  6E73      	MOVWF CompTempVar2639+D'3'
0FAE  0E74      	MOVLW 0x74
0FB0  6E74      	MOVWF CompTempVar2639+D'4'
0FB2  6A75      	CLRF CompTempVar2639+D'5'
0FB4  0E00      	MOVLW HIGH(CompTempVar2639+D'0')
0FB6  6E7C      	MOVWF FCD_0c851__00059_arg_FCL_COMMAND+D'1'
0FB8  0E70      	MOVLW LOW(CompTempVar2639+D'0')
0FBA  6E7B      	MOVWF FCD_0c851__00059_arg_FCL_COMMAND
0FBC  0E06      	MOVLW 0x06
0FBE  6E7D      	MOVWF FCD_0c851__00059_arg_FCLsz_0005A
0FC0  6A7E      	CLRF FCD_0c851__00059_arg_FCLsz_0005A+D'1'
0FC2  6A7F      	CLRF FCD_0c851__00059_arg_FCL_SENDCR
0FC4  ECDFF001  	CALL FCD_0c851__00059
0FC8  D7BE      	BRA	label145
0FCA            ; } FCM_INITIALISATION function end

	ORG 0x00000FCA
0FCA            main
0FCA            ; { main ; function begin
0FCA  0E0F      	MOVLW 0x0F
0FCC  6EC1      	MOVWF gbl_adcon1
0FCE  0E99      	MOVLW 0x99
0FD0  EF6AF007  	GOTO	FCM_INITIA_0004E
0FD4            label147
0FD4  D7FF      	BRA	label147
0FD6            ; } main function end

	ORG 0x00000FD6
0FD6            _startup
0FD6  0ED5      	MOVLW 0xD5
0FD8  6E4B      	MOVWF gbl_14_LSR
0FDA  0EC4      	MOVLW 0xC4
0FDC  6E4C      	MOVWF gbl_14_LSR+D'1'
0FDE  0EBB      	MOVLW 0xBB
0FE0  6E4D      	MOVWF gbl_14_LSR+D'2'
0FE2  0EDC      	MOVLW 0xDC
0FE4  6E4E      	MOVWF gbl_14_LSR+D'3'
0FE6  6A4F      	CLRF gbl_15_gbl_aSig
0FE8  6A50      	CLRF gbl_15_gbl_aSig+D'1'
0FEA  6A51      	CLRF gbl_15_gbl_aSig+D'2'
0FEC  6A52      	CLRF gbl_15_gbl_aSig+D'3'
0FEE  6A53      	CLRF gbl_15_gbl_bSig
0FF0  6A54      	CLRF gbl_15_gbl_bSig+D'1'
0FF2  6A55      	CLRF gbl_15_gbl_bSig+D'2'
0FF4  6A56      	CLRF gbl_15_gbl_bSig+D'3'
0FF6  6A57      	CLRF gbl_15_gbl_zSig
0FF8  6A58      	CLRF gbl_15_gbl_zSig+D'1'
0FFA  6A59      	CLRF gbl_15_gbl_zSig+D'2'
0FFC  6A5A      	CLRF gbl_15_gbl_zSig+D'3'
0FFE  6A66      	CLRF gbl_15_gbl_aExp
1000  6A67      	CLRF gbl_15_gbl_bExp
1002  6A5F      	CLRF gbl_15_gbl_zExp
1004  6A60      	CLRF gbl_15_gbl_zExp+D'1'
1006  6A68      	CLRF gbl_15_gbl_aSign
1008  6A69      	CLRF gbl_15_gbl_bSign
100A  6A6A      	CLRF gbl_15_gbl_zSign
100C  6A6B      	CLRF gbl_15_gbl_zSigZero
100E  6A5B      	CLRF gbl_15_gbl_ret
1010  6A5C      	CLRF gbl_15_gbl_ret+D'1'
1012  6A5D      	CLRF gbl_15_gbl_ret+D'2'
1014  6A5E      	CLRF gbl_15_gbl_ret+D'3'
1016  6A64      	CLRF gbl_float_rounding_mode
1018  6A65      	CLRF gbl_float_exception_flags
101A  6A63      	CLRF gbl_float_detect_tininess
101C  6A6D      	CLRF gbl_FCV_0c851_Bluetooth2__RX_IDX
101E  6A6E      	CLRF gbl_FCV_0c851_Bluetooth2___00001
1020  6A6F      	CLRF gbl_FCV_0c851_Bluetooth2___00002
1022  EFE5F007  	GOTO	main
	ORG 0x00001026
1026            interrupt
1026            ; { interrupt ; function begin
1026  CFEAF001  	MOVFF FSR0H,  Int1Context
102A  CFE9F002  	MOVFF FSR0L,  Int1Context+D'1'
102E  CFF4F003  	MOVFF PRODH,  Int1Context+D'2'
1032  CFF3F004  	MOVFF PRODL,  Int1Context+D'3'
1036  0E20      	MOVLW 0x20
1038  149E      	ANDWF gbl_pir1, W
103A  0100      	MOVLB 0x00
103C  6FD3      	MOVWF CompTempVar2742, 1
103E  0E20      	MOVLW 0x20
1040  149D      	ANDWF gbl_pie1, W
1042  6FD2      	MOVWF CompTempVar2741, 1
1044  6BD1      	CLRF interrupt_1_FCL_BT_IN, 1
1046  53D2      	MOVF CompTempVar2741, F, 1
1048  A4D8      	BTFSS STATUS,Z
104A  53D3      	MOVF CompTempVar2742, F, 1
104C  A4D8      	BTFSS STATUS,Z
104E  2BD1      	INCF interrupt_1_FCL_BT_IN, F, 1
1050  53D1      	MOVF interrupt_1_FCL_BT_IN, F, 1
1052  E022      	BZ	label151
1054  0E01      	MOVLW 0x01
1056  6FD2      	MOVWF FC_CAL_UAR_0006C_arg_nTimeout, 1
1058  EC46F000  	CALL FC_CAL_UAR_0006C
105C  51DB      	MOVF CompTempVarRet2709, W, 1
105E  6FD1      	MOVWF interrupt_1_FCL_BT_IN, 1
1060  526E      	MOVF gbl_FCV_0c851_Bluetooth2___00001, F
1062  E119      	BNZ	label150
1064  0E32      	MOVLW 0x32
1066  606F      	CPFSLT gbl_FCV_0c851_Bluetooth2___00002
1068  D016      	BRA	label150
106A  0E0A      	MOVLW 0x0A
106C  63D1      	CPFSEQ interrupt_1_FCL_BT_IN, 1
106E  D00A      	BRA	label149
1070  0E01      	MOVLW 0x01
1072  6E6E      	MOVWF gbl_FCV_0c851_Bluetooth2___00001
1074  EE00F005  	LFSR 0x00, gbl_FCV_0c851_Bluetooth2___00000
1078  50E9      	MOVF FSR0L, W
107A  506F      	MOVF gbl_FCV_0c851_Bluetooth2___00002, W
107C  26E9      	ADDWF FSR0L, F
107E  0E00      	MOVLW 0x00
1080  6EEF      	MOVWF INDF0
1082  D009      	BRA	label150
1084            label149
1084  EE00F005  	LFSR 0x00, gbl_FCV_0c851_Bluetooth2___00000
1088  50E9      	MOVF FSR0L, W
108A  506F      	MOVF gbl_FCV_0c851_Bluetooth2___00002, W
108C  26E9      	ADDWF FSR0L, F
108E  51D1      	MOVF interrupt_1_FCL_BT_IN, W, 1
1090  6EEF      	MOVWF INDF0
1092  286F      	INCF gbl_FCV_0c851_Bluetooth2___00002, W
1094  6E6F      	MOVWF gbl_FCV_0c851_Bluetooth2___00002
1096            label150
1096  9A9E      	BCF gbl_pir1,5
1098            label151
1098  C004FFF3  	MOVFF Int1Context+D'3',  PRODL
109C  C003FFF4  	MOVFF Int1Context+D'2',  PRODH
10A0  C002FFE9  	MOVFF Int1Context+D'1',  FSR0L
10A4  C001FFEA  	MOVFF Int1Context,  FSR0H
10A8  0011      	RETFIE 1
10AA            ; } interrupt function end

	ORG 0x00300000
300000  32FF      	DW 0x32FF
300002  FEF9      	DW 0xFEF9
300004  78FF      	DW 0x78FF
300006  FFBA      	DW 0xFFBA
300008  FFFF      	DW 0xFFFF
30000A  FFFF      	DW 0xFFFF
30000C  FFFF      	DW 0xFFFF
